
bluebil.elf:     file format elf32-littlearm

Sections:
Idx Name          Size      VMA       LMA       File off  Algn
  0 .isr_vector   0000010c  08000000  08000000  00010000  2**0
                  CONTENTS, ALLOC, LOAD, READONLY, DATA
  1 .text         00002d1c  0800010c  0800010c  0001010c  2**2
                  CONTENTS, ALLOC, LOAD, READONLY, CODE
  2 .rodata       00000000  08002e28  08002e28  000200cc  2**0
                  CONTENTS, ALLOC, LOAD, DATA
  3 .ARM.extab    00000000  08002e28  08002e28  000200cc  2**0
                  CONTENTS
  4 .ARM          00000000  08002e28  08002e28  000200cc  2**0
                  CONTENTS
  5 .preinit_array 00000000  08002e28  08002e28  000200cc  2**0
                  CONTENTS, ALLOC, LOAD, DATA
  6 .init_array   00000004  08002e28  08002e28  00012e28  2**2
                  CONTENTS, ALLOC, LOAD, DATA
  7 .fini_array   00000004  08002e2c  08002e2c  00012e2c  2**2
                  CONTENTS, ALLOC, LOAD, DATA
  8 .data         000000cc  20000000  08002e30  00020000  2**2
                  CONTENTS, ALLOC, LOAD, DATA
  9 .bss          00000110  200000cc  08002efc  000200cc  2**2
                  ALLOC
 10 ._user_heap_stack 00000604  200001dc  08002efc  000201dc  2**0
                  ALLOC
 11 .ARM.attributes 00000029  00000000  00000000  000200cc  2**0
                  CONTENTS, READONLY
 12 .debug_info   00002154  00000000  00000000  000200f5  2**0
                  CONTENTS, READONLY, DEBUGGING
 13 .debug_abbrev 00000d20  00000000  00000000  00022249  2**0
                  CONTENTS, READONLY, DEBUGGING
 14 .debug_aranges 00000408  00000000  00000000  00022f70  2**3
                  CONTENTS, READONLY, DEBUGGING
 15 .debug_rnglists 000001ec  00000000  00000000  00023378  2**0
                  CONTENTS, READONLY, DEBUGGING
 16 .debug_macro  0000217e  00000000  00000000  00023564  2**0
                  CONTENTS, READONLY, DEBUGGING
 17 .debug_line   00002ada  00000000  00000000  000256e2  2**0
                  CONTENTS, READONLY, DEBUGGING
 18 .debug_str    00083ba7  00000000  00000000  000281bc  2**0
                  CONTENTS, READONLY, DEBUGGING
 19 .comment      000000be  00000000  00000000  000abd63  2**0
                  CONTENTS, READONLY
 20 .debug_frame  00000e64  00000000  00000000  000abe24  2**2
                  CONTENTS, READONLY, DEBUGGING
 21 .debug_ranges 00000120  00000000  00000000  000acc88  2**0
                  CONTENTS, READONLY, DEBUGGING
 22 .debug_line_str 00000051  00000000  00000000  000acda8  2**0
                  CONTENTS, READONLY, DEBUGGING

Disassembly of section .text:

0800010c <__do_global_dtors_aux>:
 800010c:	b510      	push	{r4, lr}
 800010e:	4c05      	ldr	r4, [pc, #20]	; (8000124 <__do_global_dtors_aux+0x18>)
 8000110:	7823      	ldrb	r3, [r4, #0]
 8000112:	b933      	cbnz	r3, 8000122 <__do_global_dtors_aux+0x16>
 8000114:	4b04      	ldr	r3, [pc, #16]	; (8000128 <__do_global_dtors_aux+0x1c>)
 8000116:	b113      	cbz	r3, 800011e <__do_global_dtors_aux+0x12>
 8000118:	4804      	ldr	r0, [pc, #16]	; (800012c <__do_global_dtors_aux+0x20>)
 800011a:	f3af 8000 	nop.w
 800011e:	2301      	movs	r3, #1
 8000120:	7023      	strb	r3, [r4, #0]
 8000122:	bd10      	pop	{r4, pc}
 8000124:	200000cc 	.word	0x200000cc
 8000128:	00000000 	.word	0x00000000
 800012c:	08002e10 	.word	0x08002e10

08000130 <frame_dummy>:
 8000130:	b508      	push	{r3, lr}
 8000132:	4b03      	ldr	r3, [pc, #12]	; (8000140 <frame_dummy+0x10>)
 8000134:	b11b      	cbz	r3, 800013e <frame_dummy+0xe>
 8000136:	4903      	ldr	r1, [pc, #12]	; (8000144 <frame_dummy+0x14>)
 8000138:	4803      	ldr	r0, [pc, #12]	; (8000148 <frame_dummy+0x18>)
 800013a:	f3af 8000 	nop.w
 800013e:	bd08      	pop	{r3, pc}
 8000140:	00000000 	.word	0x00000000
 8000144:	200000d0 	.word	0x200000d0
 8000148:	08002e10 	.word	0x08002e10

0800014c <__aeabi_drsub>:
 800014c:	f081 4100 	eor.w	r1, r1, #2147483648	; 0x80000000
 8000150:	e002      	b.n	8000158 <__adddf3>
 8000152:	bf00      	nop

08000154 <__aeabi_dsub>:
 8000154:	f083 4300 	eor.w	r3, r3, #2147483648	; 0x80000000

08000158 <__adddf3>:
 8000158:	b530      	push	{r4, r5, lr}
 800015a:	ea4f 0441 	mov.w	r4, r1, lsl #1
 800015e:	ea4f 0543 	mov.w	r5, r3, lsl #1
 8000162:	ea94 0f05 	teq	r4, r5
 8000166:	bf08      	it	eq
 8000168:	ea90 0f02 	teqeq	r0, r2
 800016c:	bf1f      	itttt	ne
 800016e:	ea54 0c00 	orrsne.w	ip, r4, r0
 8000172:	ea55 0c02 	orrsne.w	ip, r5, r2
 8000176:	ea7f 5c64 	mvnsne.w	ip, r4, asr #21
 800017a:	ea7f 5c65 	mvnsne.w	ip, r5, asr #21
 800017e:	f000 80e2 	beq.w	8000346 <__adddf3+0x1ee>
 8000182:	ea4f 5454 	mov.w	r4, r4, lsr #21
 8000186:	ebd4 5555 	rsbs	r5, r4, r5, lsr #21
 800018a:	bfb8      	it	lt
 800018c:	426d      	neglt	r5, r5
 800018e:	dd0c      	ble.n	80001aa <__adddf3+0x52>
 8000190:	442c      	add	r4, r5
 8000192:	ea80 0202 	eor.w	r2, r0, r2
 8000196:	ea81 0303 	eor.w	r3, r1, r3
 800019a:	ea82 0000 	eor.w	r0, r2, r0
 800019e:	ea83 0101 	eor.w	r1, r3, r1
 80001a2:	ea80 0202 	eor.w	r2, r0, r2
 80001a6:	ea81 0303 	eor.w	r3, r1, r3
 80001aa:	2d36      	cmp	r5, #54	; 0x36
 80001ac:	bf88      	it	hi
 80001ae:	bd30      	pophi	{r4, r5, pc}
 80001b0:	f011 4f00 	tst.w	r1, #2147483648	; 0x80000000
 80001b4:	ea4f 3101 	mov.w	r1, r1, lsl #12
 80001b8:	f44f 1c80 	mov.w	ip, #1048576	; 0x100000
 80001bc:	ea4c 3111 	orr.w	r1, ip, r1, lsr #12
 80001c0:	d002      	beq.n	80001c8 <__adddf3+0x70>
 80001c2:	4240      	negs	r0, r0
 80001c4:	eb61 0141 	sbc.w	r1, r1, r1, lsl #1
 80001c8:	f013 4f00 	tst.w	r3, #2147483648	; 0x80000000
 80001cc:	ea4f 3303 	mov.w	r3, r3, lsl #12
 80001d0:	ea4c 3313 	orr.w	r3, ip, r3, lsr #12
 80001d4:	d002      	beq.n	80001dc <__adddf3+0x84>
 80001d6:	4252      	negs	r2, r2
 80001d8:	eb63 0343 	sbc.w	r3, r3, r3, lsl #1
 80001dc:	ea94 0f05 	teq	r4, r5
 80001e0:	f000 80a7 	beq.w	8000332 <__adddf3+0x1da>
 80001e4:	f1a4 0401 	sub.w	r4, r4, #1
 80001e8:	f1d5 0e20 	rsbs	lr, r5, #32
 80001ec:	db0d      	blt.n	800020a <__adddf3+0xb2>
 80001ee:	fa02 fc0e 	lsl.w	ip, r2, lr
 80001f2:	fa22 f205 	lsr.w	r2, r2, r5
 80001f6:	1880      	adds	r0, r0, r2
 80001f8:	f141 0100 	adc.w	r1, r1, #0
 80001fc:	fa03 f20e 	lsl.w	r2, r3, lr
 8000200:	1880      	adds	r0, r0, r2
 8000202:	fa43 f305 	asr.w	r3, r3, r5
 8000206:	4159      	adcs	r1, r3
 8000208:	e00e      	b.n	8000228 <__adddf3+0xd0>
 800020a:	f1a5 0520 	sub.w	r5, r5, #32
 800020e:	f10e 0e20 	add.w	lr, lr, #32
 8000212:	2a01      	cmp	r2, #1
 8000214:	fa03 fc0e 	lsl.w	ip, r3, lr
 8000218:	bf28      	it	cs
 800021a:	f04c 0c02 	orrcs.w	ip, ip, #2
 800021e:	fa43 f305 	asr.w	r3, r3, r5
 8000222:	18c0      	adds	r0, r0, r3
 8000224:	eb51 71e3 	adcs.w	r1, r1, r3, asr #31
 8000228:	f001 4500 	and.w	r5, r1, #2147483648	; 0x80000000
 800022c:	d507      	bpl.n	800023e <__adddf3+0xe6>
 800022e:	f04f 0e00 	mov.w	lr, #0
 8000232:	f1dc 0c00 	rsbs	ip, ip, #0
 8000236:	eb7e 0000 	sbcs.w	r0, lr, r0
 800023a:	eb6e 0101 	sbc.w	r1, lr, r1
 800023e:	f5b1 1f80 	cmp.w	r1, #1048576	; 0x100000
 8000242:	d31b      	bcc.n	800027c <__adddf3+0x124>
 8000244:	f5b1 1f00 	cmp.w	r1, #2097152	; 0x200000
 8000248:	d30c      	bcc.n	8000264 <__adddf3+0x10c>
 800024a:	0849      	lsrs	r1, r1, #1
 800024c:	ea5f 0030 	movs.w	r0, r0, rrx
 8000250:	ea4f 0c3c 	mov.w	ip, ip, rrx
 8000254:	f104 0401 	add.w	r4, r4, #1
 8000258:	ea4f 5244 	mov.w	r2, r4, lsl #21
 800025c:	f512 0f80 	cmn.w	r2, #4194304	; 0x400000
 8000260:	f080 809a 	bcs.w	8000398 <__adddf3+0x240>
 8000264:	f1bc 4f00 	cmp.w	ip, #2147483648	; 0x80000000
 8000268:	bf08      	it	eq
 800026a:	ea5f 0c50 	movseq.w	ip, r0, lsr #1
 800026e:	f150 0000 	adcs.w	r0, r0, #0
 8000272:	eb41 5104 	adc.w	r1, r1, r4, lsl #20
 8000276:	ea41 0105 	orr.w	r1, r1, r5
 800027a:	bd30      	pop	{r4, r5, pc}
 800027c:	ea5f 0c4c 	movs.w	ip, ip, lsl #1
 8000280:	4140      	adcs	r0, r0
 8000282:	eb41 0101 	adc.w	r1, r1, r1
 8000286:	f411 1f80 	tst.w	r1, #1048576	; 0x100000
 800028a:	f1a4 0401 	sub.w	r4, r4, #1
 800028e:	d1e9      	bne.n	8000264 <__adddf3+0x10c>
 8000290:	f091 0f00 	teq	r1, #0
 8000294:	bf04      	itt	eq
 8000296:	4601      	moveq	r1, r0
 8000298:	2000      	moveq	r0, #0
 800029a:	fab1 f381 	clz	r3, r1
 800029e:	bf08      	it	eq
 80002a0:	3320      	addeq	r3, #32
 80002a2:	f1a3 030b 	sub.w	r3, r3, #11
 80002a6:	f1b3 0220 	subs.w	r2, r3, #32
 80002aa:	da0c      	bge.n	80002c6 <__adddf3+0x16e>
 80002ac:	320c      	adds	r2, #12
 80002ae:	dd08      	ble.n	80002c2 <__adddf3+0x16a>
 80002b0:	f102 0c14 	add.w	ip, r2, #20
 80002b4:	f1c2 020c 	rsb	r2, r2, #12
 80002b8:	fa01 f00c 	lsl.w	r0, r1, ip
 80002bc:	fa21 f102 	lsr.w	r1, r1, r2
 80002c0:	e00c      	b.n	80002dc <__adddf3+0x184>
 80002c2:	f102 0214 	add.w	r2, r2, #20
 80002c6:	bfd8      	it	le
 80002c8:	f1c2 0c20 	rsble	ip, r2, #32
 80002cc:	fa01 f102 	lsl.w	r1, r1, r2
 80002d0:	fa20 fc0c 	lsr.w	ip, r0, ip
 80002d4:	bfdc      	itt	le
 80002d6:	ea41 010c 	orrle.w	r1, r1, ip
 80002da:	4090      	lslle	r0, r2
 80002dc:	1ae4      	subs	r4, r4, r3
 80002de:	bfa2      	ittt	ge
 80002e0:	eb01 5104 	addge.w	r1, r1, r4, lsl #20
 80002e4:	4329      	orrge	r1, r5
 80002e6:	bd30      	popge	{r4, r5, pc}
 80002e8:	ea6f 0404 	mvn.w	r4, r4
 80002ec:	3c1f      	subs	r4, #31
 80002ee:	da1c      	bge.n	800032a <__adddf3+0x1d2>
 80002f0:	340c      	adds	r4, #12
 80002f2:	dc0e      	bgt.n	8000312 <__adddf3+0x1ba>
 80002f4:	f104 0414 	add.w	r4, r4, #20
 80002f8:	f1c4 0220 	rsb	r2, r4, #32
 80002fc:	fa20 f004 	lsr.w	r0, r0, r4
 8000300:	fa01 f302 	lsl.w	r3, r1, r2
 8000304:	ea40 0003 	orr.w	r0, r0, r3
 8000308:	fa21 f304 	lsr.w	r3, r1, r4
 800030c:	ea45 0103 	orr.w	r1, r5, r3
 8000310:	bd30      	pop	{r4, r5, pc}
 8000312:	f1c4 040c 	rsb	r4, r4, #12
 8000316:	f1c4 0220 	rsb	r2, r4, #32
 800031a:	fa20 f002 	lsr.w	r0, r0, r2
 800031e:	fa01 f304 	lsl.w	r3, r1, r4
 8000322:	ea40 0003 	orr.w	r0, r0, r3
 8000326:	4629      	mov	r1, r5
 8000328:	bd30      	pop	{r4, r5, pc}
 800032a:	fa21 f004 	lsr.w	r0, r1, r4
 800032e:	4629      	mov	r1, r5
 8000330:	bd30      	pop	{r4, r5, pc}
 8000332:	f094 0f00 	teq	r4, #0
 8000336:	f483 1380 	eor.w	r3, r3, #1048576	; 0x100000
 800033a:	bf06      	itte	eq
 800033c:	f481 1180 	eoreq.w	r1, r1, #1048576	; 0x100000
 8000340:	3401      	addeq	r4, #1
 8000342:	3d01      	subne	r5, #1
 8000344:	e74e      	b.n	80001e4 <__adddf3+0x8c>
 8000346:	ea7f 5c64 	mvns.w	ip, r4, asr #21
 800034a:	bf18      	it	ne
 800034c:	ea7f 5c65 	mvnsne.w	ip, r5, asr #21
 8000350:	d029      	beq.n	80003a6 <__adddf3+0x24e>
 8000352:	ea94 0f05 	teq	r4, r5
 8000356:	bf08      	it	eq
 8000358:	ea90 0f02 	teqeq	r0, r2
 800035c:	d005      	beq.n	800036a <__adddf3+0x212>
 800035e:	ea54 0c00 	orrs.w	ip, r4, r0
 8000362:	bf04      	itt	eq
 8000364:	4619      	moveq	r1, r3
 8000366:	4610      	moveq	r0, r2
 8000368:	bd30      	pop	{r4, r5, pc}
 800036a:	ea91 0f03 	teq	r1, r3
 800036e:	bf1e      	ittt	ne
 8000370:	2100      	movne	r1, #0
 8000372:	2000      	movne	r0, #0
 8000374:	bd30      	popne	{r4, r5, pc}
 8000376:	ea5f 5c54 	movs.w	ip, r4, lsr #21
 800037a:	d105      	bne.n	8000388 <__adddf3+0x230>
 800037c:	0040      	lsls	r0, r0, #1
 800037e:	4149      	adcs	r1, r1
 8000380:	bf28      	it	cs
 8000382:	f041 4100 	orrcs.w	r1, r1, #2147483648	; 0x80000000
 8000386:	bd30      	pop	{r4, r5, pc}
 8000388:	f514 0480 	adds.w	r4, r4, #4194304	; 0x400000
 800038c:	bf3c      	itt	cc
 800038e:	f501 1180 	addcc.w	r1, r1, #1048576	; 0x100000
 8000392:	bd30      	popcc	{r4, r5, pc}
 8000394:	f001 4500 	and.w	r5, r1, #2147483648	; 0x80000000
 8000398:	f045 41fe 	orr.w	r1, r5, #2130706432	; 0x7f000000
 800039c:	f441 0170 	orr.w	r1, r1, #15728640	; 0xf00000
 80003a0:	f04f 0000 	mov.w	r0, #0
 80003a4:	bd30      	pop	{r4, r5, pc}
 80003a6:	ea7f 5c64 	mvns.w	ip, r4, asr #21
 80003aa:	bf1a      	itte	ne
 80003ac:	4619      	movne	r1, r3
 80003ae:	4610      	movne	r0, r2
 80003b0:	ea7f 5c65 	mvnseq.w	ip, r5, asr #21
 80003b4:	bf1c      	itt	ne
 80003b6:	460b      	movne	r3, r1
 80003b8:	4602      	movne	r2, r0
 80003ba:	ea50 3401 	orrs.w	r4, r0, r1, lsl #12
 80003be:	bf06      	itte	eq
 80003c0:	ea52 3503 	orrseq.w	r5, r2, r3, lsl #12
 80003c4:	ea91 0f03 	teqeq	r1, r3
 80003c8:	f441 2100 	orrne.w	r1, r1, #524288	; 0x80000
 80003cc:	bd30      	pop	{r4, r5, pc}
 80003ce:	bf00      	nop

080003d0 <__aeabi_ui2d>:
 80003d0:	f090 0f00 	teq	r0, #0
 80003d4:	bf04      	itt	eq
 80003d6:	2100      	moveq	r1, #0
 80003d8:	4770      	bxeq	lr
 80003da:	b530      	push	{r4, r5, lr}
 80003dc:	f44f 6480 	mov.w	r4, #1024	; 0x400
 80003e0:	f104 0432 	add.w	r4, r4, #50	; 0x32
 80003e4:	f04f 0500 	mov.w	r5, #0
 80003e8:	f04f 0100 	mov.w	r1, #0
 80003ec:	e750      	b.n	8000290 <__adddf3+0x138>
 80003ee:	bf00      	nop

080003f0 <__aeabi_i2d>:
 80003f0:	f090 0f00 	teq	r0, #0
 80003f4:	bf04      	itt	eq
 80003f6:	2100      	moveq	r1, #0
 80003f8:	4770      	bxeq	lr
 80003fa:	b530      	push	{r4, r5, lr}
 80003fc:	f44f 6480 	mov.w	r4, #1024	; 0x400
 8000400:	f104 0432 	add.w	r4, r4, #50	; 0x32
 8000404:	f010 4500 	ands.w	r5, r0, #2147483648	; 0x80000000
 8000408:	bf48      	it	mi
 800040a:	4240      	negmi	r0, r0
 800040c:	f04f 0100 	mov.w	r1, #0
 8000410:	e73e      	b.n	8000290 <__adddf3+0x138>
 8000412:	bf00      	nop

08000414 <__aeabi_f2d>:
 8000414:	0042      	lsls	r2, r0, #1
 8000416:	ea4f 01e2 	mov.w	r1, r2, asr #3
 800041a:	ea4f 0131 	mov.w	r1, r1, rrx
 800041e:	ea4f 7002 	mov.w	r0, r2, lsl #28
 8000422:	bf1f      	itttt	ne
 8000424:	f012 437f 	andsne.w	r3, r2, #4278190080	; 0xff000000
 8000428:	f093 4f7f 	teqne	r3, #4278190080	; 0xff000000
 800042c:	f081 5160 	eorne.w	r1, r1, #939524096	; 0x38000000
 8000430:	4770      	bxne	lr
 8000432:	f032 427f 	bics.w	r2, r2, #4278190080	; 0xff000000
 8000436:	bf08      	it	eq
 8000438:	4770      	bxeq	lr
 800043a:	f093 4f7f 	teq	r3, #4278190080	; 0xff000000
 800043e:	bf04      	itt	eq
 8000440:	f441 2100 	orreq.w	r1, r1, #524288	; 0x80000
 8000444:	4770      	bxeq	lr
 8000446:	b530      	push	{r4, r5, lr}
 8000448:	f44f 7460 	mov.w	r4, #896	; 0x380
 800044c:	f001 4500 	and.w	r5, r1, #2147483648	; 0x80000000
 8000450:	f021 4100 	bic.w	r1, r1, #2147483648	; 0x80000000
 8000454:	e71c      	b.n	8000290 <__adddf3+0x138>
 8000456:	bf00      	nop

08000458 <__aeabi_ul2d>:
 8000458:	ea50 0201 	orrs.w	r2, r0, r1
 800045c:	bf08      	it	eq
 800045e:	4770      	bxeq	lr
 8000460:	b530      	push	{r4, r5, lr}
 8000462:	f04f 0500 	mov.w	r5, #0
 8000466:	e00a      	b.n	800047e <__aeabi_l2d+0x16>

08000468 <__aeabi_l2d>:
 8000468:	ea50 0201 	orrs.w	r2, r0, r1
 800046c:	bf08      	it	eq
 800046e:	4770      	bxeq	lr
 8000470:	b530      	push	{r4, r5, lr}
 8000472:	f011 4500 	ands.w	r5, r1, #2147483648	; 0x80000000
 8000476:	d502      	bpl.n	800047e <__aeabi_l2d+0x16>
 8000478:	4240      	negs	r0, r0
 800047a:	eb61 0141 	sbc.w	r1, r1, r1, lsl #1
 800047e:	f44f 6480 	mov.w	r4, #1024	; 0x400
 8000482:	f104 0432 	add.w	r4, r4, #50	; 0x32
 8000486:	ea5f 5c91 	movs.w	ip, r1, lsr #22
 800048a:	f43f aed8 	beq.w	800023e <__adddf3+0xe6>
 800048e:	f04f 0203 	mov.w	r2, #3
 8000492:	ea5f 0cdc 	movs.w	ip, ip, lsr #3
 8000496:	bf18      	it	ne
 8000498:	3203      	addne	r2, #3
 800049a:	ea5f 0cdc 	movs.w	ip, ip, lsr #3
 800049e:	bf18      	it	ne
 80004a0:	3203      	addne	r2, #3
 80004a2:	eb02 02dc 	add.w	r2, r2, ip, lsr #3
 80004a6:	f1c2 0320 	rsb	r3, r2, #32
 80004aa:	fa00 fc03 	lsl.w	ip, r0, r3
 80004ae:	fa20 f002 	lsr.w	r0, r0, r2
 80004b2:	fa01 fe03 	lsl.w	lr, r1, r3
 80004b6:	ea40 000e 	orr.w	r0, r0, lr
 80004ba:	fa21 f102 	lsr.w	r1, r1, r2
 80004be:	4414      	add	r4, r2
 80004c0:	e6bd      	b.n	800023e <__adddf3+0xe6>
 80004c2:	bf00      	nop

080004c4 <__gedf2>:
 80004c4:	f04f 3cff 	mov.w	ip, #4294967295
 80004c8:	e006      	b.n	80004d8 <__cmpdf2+0x4>
 80004ca:	bf00      	nop

080004cc <__ledf2>:
 80004cc:	f04f 0c01 	mov.w	ip, #1
 80004d0:	e002      	b.n	80004d8 <__cmpdf2+0x4>
 80004d2:	bf00      	nop

080004d4 <__cmpdf2>:
 80004d4:	f04f 0c01 	mov.w	ip, #1
 80004d8:	f84d cd04 	str.w	ip, [sp, #-4]!
 80004dc:	ea4f 0c41 	mov.w	ip, r1, lsl #1
 80004e0:	ea7f 5c6c 	mvns.w	ip, ip, asr #21
 80004e4:	ea4f 0c43 	mov.w	ip, r3, lsl #1
 80004e8:	bf18      	it	ne
 80004ea:	ea7f 5c6c 	mvnsne.w	ip, ip, asr #21
 80004ee:	d01b      	beq.n	8000528 <__cmpdf2+0x54>
 80004f0:	b001      	add	sp, #4
 80004f2:	ea50 0c41 	orrs.w	ip, r0, r1, lsl #1
 80004f6:	bf0c      	ite	eq
 80004f8:	ea52 0c43 	orrseq.w	ip, r2, r3, lsl #1
 80004fc:	ea91 0f03 	teqne	r1, r3
 8000500:	bf02      	ittt	eq
 8000502:	ea90 0f02 	teqeq	r0, r2
 8000506:	2000      	moveq	r0, #0
 8000508:	4770      	bxeq	lr
 800050a:	f110 0f00 	cmn.w	r0, #0
 800050e:	ea91 0f03 	teq	r1, r3
 8000512:	bf58      	it	pl
 8000514:	4299      	cmppl	r1, r3
 8000516:	bf08      	it	eq
 8000518:	4290      	cmpeq	r0, r2
 800051a:	bf2c      	ite	cs
 800051c:	17d8      	asrcs	r0, r3, #31
 800051e:	ea6f 70e3 	mvncc.w	r0, r3, asr #31
 8000522:	f040 0001 	orr.w	r0, r0, #1
 8000526:	4770      	bx	lr
 8000528:	ea4f 0c41 	mov.w	ip, r1, lsl #1
 800052c:	ea7f 5c6c 	mvns.w	ip, ip, asr #21
 8000530:	d102      	bne.n	8000538 <__cmpdf2+0x64>
 8000532:	ea50 3c01 	orrs.w	ip, r0, r1, lsl #12
 8000536:	d107      	bne.n	8000548 <__cmpdf2+0x74>
 8000538:	ea4f 0c43 	mov.w	ip, r3, lsl #1
 800053c:	ea7f 5c6c 	mvns.w	ip, ip, asr #21
 8000540:	d1d6      	bne.n	80004f0 <__cmpdf2+0x1c>
 8000542:	ea52 3c03 	orrs.w	ip, r2, r3, lsl #12
 8000546:	d0d3      	beq.n	80004f0 <__cmpdf2+0x1c>
 8000548:	f85d 0b04 	ldr.w	r0, [sp], #4
 800054c:	4770      	bx	lr
 800054e:	bf00      	nop

08000550 <__aeabi_cdrcmple>:
 8000550:	4684      	mov	ip, r0
 8000552:	4610      	mov	r0, r2
 8000554:	4662      	mov	r2, ip
 8000556:	468c      	mov	ip, r1
 8000558:	4619      	mov	r1, r3
 800055a:	4663      	mov	r3, ip
 800055c:	e000      	b.n	8000560 <__aeabi_cdcmpeq>
 800055e:	bf00      	nop

08000560 <__aeabi_cdcmpeq>:
 8000560:	b501      	push	{r0, lr}
 8000562:	f7ff ffb7 	bl	80004d4 <__cmpdf2>
 8000566:	2800      	cmp	r0, #0
 8000568:	bf48      	it	mi
 800056a:	f110 0f00 	cmnmi.w	r0, #0
 800056e:	bd01      	pop	{r0, pc}

08000570 <__aeabi_dcmpeq>:
 8000570:	f84d ed08 	str.w	lr, [sp, #-8]!
 8000574:	f7ff fff4 	bl	8000560 <__aeabi_cdcmpeq>
 8000578:	bf0c      	ite	eq
 800057a:	2001      	moveq	r0, #1
 800057c:	2000      	movne	r0, #0
 800057e:	f85d fb08 	ldr.w	pc, [sp], #8
 8000582:	bf00      	nop

08000584 <__aeabi_dcmplt>:
 8000584:	f84d ed08 	str.w	lr, [sp, #-8]!
 8000588:	f7ff ffea 	bl	8000560 <__aeabi_cdcmpeq>
 800058c:	bf34      	ite	cc
 800058e:	2001      	movcc	r0, #1
 8000590:	2000      	movcs	r0, #0
 8000592:	f85d fb08 	ldr.w	pc, [sp], #8
 8000596:	bf00      	nop

08000598 <__aeabi_dcmple>:
 8000598:	f84d ed08 	str.w	lr, [sp, #-8]!
 800059c:	f7ff ffe0 	bl	8000560 <__aeabi_cdcmpeq>
 80005a0:	bf94      	ite	ls
 80005a2:	2001      	movls	r0, #1
 80005a4:	2000      	movhi	r0, #0
 80005a6:	f85d fb08 	ldr.w	pc, [sp], #8
 80005aa:	bf00      	nop

080005ac <__aeabi_dcmpge>:
 80005ac:	f84d ed08 	str.w	lr, [sp, #-8]!
 80005b0:	f7ff ffce 	bl	8000550 <__aeabi_cdrcmple>
 80005b4:	bf94      	ite	ls
 80005b6:	2001      	movls	r0, #1
 80005b8:	2000      	movhi	r0, #0
 80005ba:	f85d fb08 	ldr.w	pc, [sp], #8
 80005be:	bf00      	nop

080005c0 <__aeabi_dcmpgt>:
 80005c0:	f84d ed08 	str.w	lr, [sp, #-8]!
 80005c4:	f7ff ffc4 	bl	8000550 <__aeabi_cdrcmple>
 80005c8:	bf34      	ite	cc
 80005ca:	2001      	movcc	r0, #1
 80005cc:	2000      	movcs	r0, #0
 80005ce:	f85d fb08 	ldr.w	pc, [sp], #8
 80005d2:	bf00      	nop

080005d4 <EXTI0_IRQHandler>:
 80005d4:	b580      	push	{r7, lr}
 80005d6:	af00      	add	r7, sp, #0
 80005d8:	4b05      	ldr	r3, [pc, #20]	; (80005f0 <EXTI0_IRQHandler+0x1c>)
 80005da:	681b      	ldr	r3, [r3, #0]
 80005dc:	4798      	blx	r3
 80005de:	4b05      	ldr	r3, [pc, #20]	; (80005f4 <EXTI0_IRQHandler+0x20>)
 80005e0:	695b      	ldr	r3, [r3, #20]
 80005e2:	4a04      	ldr	r2, [pc, #16]	; (80005f4 <EXTI0_IRQHandler+0x20>)
 80005e4:	f043 0301 	orr.w	r3, r3, #1
 80005e8:	6153      	str	r3, [r2, #20]
 80005ea:	bf00      	nop
 80005ec:	bd80      	pop	{r7, pc}
 80005ee:	bf00      	nop
 80005f0:	200000e8 	.word	0x200000e8
 80005f4:	40010400 	.word	0x40010400

080005f8 <GPIO_voidSetPinMode>:
 80005f8:	b480      	push	{r7}
 80005fa:	b085      	sub	sp, #20
 80005fc:	af00      	add	r7, sp, #0
 80005fe:	4603      	mov	r3, r0
 8000600:	71fb      	strb	r3, [r7, #7]
 8000602:	460b      	mov	r3, r1
 8000604:	71bb      	strb	r3, [r7, #6]
 8000606:	4613      	mov	r3, r2
 8000608:	717b      	strb	r3, [r7, #5]
 800060a:	2301      	movs	r3, #1
 800060c:	73fb      	strb	r3, [r7, #15]
 800060e:	79fb      	ldrb	r3, [r7, #7]
 8000610:	2b07      	cmp	r3, #7
 8000612:	f200 817a 	bhi.w	800090a <GPIO_voidSetPinMode+0x312>
 8000616:	79bb      	ldrb	r3, [r7, #6]
 8000618:	2b0f      	cmp	r3, #15
 800061a:	f200 8176 	bhi.w	800090a <GPIO_voidSetPinMode+0x312>
 800061e:	797b      	ldrb	r3, [r7, #5]
 8000620:	2b0f      	cmp	r3, #15
 8000622:	f200 8172 	bhi.w	800090a <GPIO_voidSetPinMode+0x312>
 8000626:	79fb      	ldrb	r3, [r7, #7]
 8000628:	3b01      	subs	r3, #1
 800062a:	2b06      	cmp	r3, #6
 800062c:	f200 816f 	bhi.w	800090e <GPIO_voidSetPinMode+0x316>
 8000630:	a201      	add	r2, pc, #4	; (adr r2, 8000638 <GPIO_voidSetPinMode+0x40>)
 8000632:	f852 f023 	ldr.w	pc, [r2, r3, lsl #2]
 8000636:	bf00      	nop
 8000638:	08000655 	.word	0x08000655
 800063c:	080006b5 	.word	0x080006b5
 8000640:	08000715 	.word	0x08000715
 8000644:	08000775 	.word	0x08000775
 8000648:	080007d5 	.word	0x080007d5
 800064c:	08000833 	.word	0x08000833
 8000650:	08000891 	.word	0x08000891
 8000654:	79bb      	ldrb	r3, [r7, #6]
 8000656:	2b07      	cmp	r3, #7
 8000658:	d812      	bhi.n	8000680 <GPIO_voidSetPinMode+0x88>
 800065a:	4bb0      	ldr	r3, [pc, #704]	; (800091c <GPIO_voidSetPinMode+0x324>)
 800065c:	681b      	ldr	r3, [r3, #0]
 800065e:	79ba      	ldrb	r2, [r7, #6]
 8000660:	0092      	lsls	r2, r2, #2
 8000662:	210f      	movs	r1, #15
 8000664:	fa01 f202 	lsl.w	r2, r1, r2
 8000668:	43d2      	mvns	r2, r2
 800066a:	4013      	ands	r3, r2
 800066c:	7979      	ldrb	r1, [r7, #5]
 800066e:	79ba      	ldrb	r2, [r7, #6]
 8000670:	0092      	lsls	r2, r2, #2
 8000672:	fa01 f202 	lsl.w	r2, r1, r2
 8000676:	4611      	mov	r1, r2
 8000678:	4aa8      	ldr	r2, [pc, #672]	; (800091c <GPIO_voidSetPinMode+0x324>)
 800067a:	430b      	orrs	r3, r1
 800067c:	6013      	str	r3, [r2, #0]
 800067e:	e136      	b.n	80008ee <GPIO_voidSetPinMode+0x2f6>
 8000680:	79bb      	ldrb	r3, [r7, #6]
 8000682:	2b0f      	cmp	r3, #15
 8000684:	f200 8133 	bhi.w	80008ee <GPIO_voidSetPinMode+0x2f6>
 8000688:	79bb      	ldrb	r3, [r7, #6]
 800068a:	3b08      	subs	r3, #8
 800068c:	71bb      	strb	r3, [r7, #6]
 800068e:	4ba3      	ldr	r3, [pc, #652]	; (800091c <GPIO_voidSetPinMode+0x324>)
 8000690:	685b      	ldr	r3, [r3, #4]
 8000692:	79ba      	ldrb	r2, [r7, #6]
 8000694:	0092      	lsls	r2, r2, #2
 8000696:	210f      	movs	r1, #15
 8000698:	fa01 f202 	lsl.w	r2, r1, r2
 800069c:	43d2      	mvns	r2, r2
 800069e:	4013      	ands	r3, r2
 80006a0:	7979      	ldrb	r1, [r7, #5]
 80006a2:	79ba      	ldrb	r2, [r7, #6]
 80006a4:	0092      	lsls	r2, r2, #2
 80006a6:	fa01 f202 	lsl.w	r2, r1, r2
 80006aa:	4611      	mov	r1, r2
 80006ac:	4a9b      	ldr	r2, [pc, #620]	; (800091c <GPIO_voidSetPinMode+0x324>)
 80006ae:	430b      	orrs	r3, r1
 80006b0:	6053      	str	r3, [r2, #4]
 80006b2:	e11c      	b.n	80008ee <GPIO_voidSetPinMode+0x2f6>
 80006b4:	79bb      	ldrb	r3, [r7, #6]
 80006b6:	2b07      	cmp	r3, #7
 80006b8:	d812      	bhi.n	80006e0 <GPIO_voidSetPinMode+0xe8>
 80006ba:	4b99      	ldr	r3, [pc, #612]	; (8000920 <GPIO_voidSetPinMode+0x328>)
 80006bc:	681b      	ldr	r3, [r3, #0]
 80006be:	79ba      	ldrb	r2, [r7, #6]
 80006c0:	0092      	lsls	r2, r2, #2
 80006c2:	210f      	movs	r1, #15
 80006c4:	fa01 f202 	lsl.w	r2, r1, r2
 80006c8:	43d2      	mvns	r2, r2
 80006ca:	4013      	ands	r3, r2
 80006cc:	7979      	ldrb	r1, [r7, #5]
 80006ce:	79ba      	ldrb	r2, [r7, #6]
 80006d0:	0092      	lsls	r2, r2, #2
 80006d2:	fa01 f202 	lsl.w	r2, r1, r2
 80006d6:	4611      	mov	r1, r2
 80006d8:	4a91      	ldr	r2, [pc, #580]	; (8000920 <GPIO_voidSetPinMode+0x328>)
 80006da:	430b      	orrs	r3, r1
 80006dc:	6013      	str	r3, [r2, #0]
 80006de:	e108      	b.n	80008f2 <GPIO_voidSetPinMode+0x2fa>
 80006e0:	79bb      	ldrb	r3, [r7, #6]
 80006e2:	2b0f      	cmp	r3, #15
 80006e4:	f200 8105 	bhi.w	80008f2 <GPIO_voidSetPinMode+0x2fa>
 80006e8:	79bb      	ldrb	r3, [r7, #6]
 80006ea:	3b08      	subs	r3, #8
 80006ec:	71bb      	strb	r3, [r7, #6]
 80006ee:	4b8c      	ldr	r3, [pc, #560]	; (8000920 <GPIO_voidSetPinMode+0x328>)
 80006f0:	685b      	ldr	r3, [r3, #4]
 80006f2:	79ba      	ldrb	r2, [r7, #6]
 80006f4:	0092      	lsls	r2, r2, #2
 80006f6:	210f      	movs	r1, #15
 80006f8:	fa01 f202 	lsl.w	r2, r1, r2
 80006fc:	43d2      	mvns	r2, r2
 80006fe:	4013      	ands	r3, r2
 8000700:	7979      	ldrb	r1, [r7, #5]
 8000702:	79ba      	ldrb	r2, [r7, #6]
 8000704:	0092      	lsls	r2, r2, #2
 8000706:	fa01 f202 	lsl.w	r2, r1, r2
 800070a:	4611      	mov	r1, r2
 800070c:	4a84      	ldr	r2, [pc, #528]	; (8000920 <GPIO_voidSetPinMode+0x328>)
 800070e:	430b      	orrs	r3, r1
 8000710:	6053      	str	r3, [r2, #4]
 8000712:	e0ee      	b.n	80008f2 <GPIO_voidSetPinMode+0x2fa>
 8000714:	79bb      	ldrb	r3, [r7, #6]
 8000716:	2b07      	cmp	r3, #7
 8000718:	d812      	bhi.n	8000740 <GPIO_voidSetPinMode+0x148>
 800071a:	4b82      	ldr	r3, [pc, #520]	; (8000924 <GPIO_voidSetPinMode+0x32c>)
 800071c:	681b      	ldr	r3, [r3, #0]
 800071e:	79ba      	ldrb	r2, [r7, #6]
 8000720:	0092      	lsls	r2, r2, #2
 8000722:	210f      	movs	r1, #15
 8000724:	fa01 f202 	lsl.w	r2, r1, r2
 8000728:	43d2      	mvns	r2, r2
 800072a:	4013      	ands	r3, r2
 800072c:	7979      	ldrb	r1, [r7, #5]
 800072e:	79ba      	ldrb	r2, [r7, #6]
 8000730:	0092      	lsls	r2, r2, #2
 8000732:	fa01 f202 	lsl.w	r2, r1, r2
 8000736:	4611      	mov	r1, r2
 8000738:	4a7a      	ldr	r2, [pc, #488]	; (8000924 <GPIO_voidSetPinMode+0x32c>)
 800073a:	430b      	orrs	r3, r1
 800073c:	6013      	str	r3, [r2, #0]
 800073e:	e0da      	b.n	80008f6 <GPIO_voidSetPinMode+0x2fe>
 8000740:	79bb      	ldrb	r3, [r7, #6]
 8000742:	2b0f      	cmp	r3, #15
 8000744:	f200 80d7 	bhi.w	80008f6 <GPIO_voidSetPinMode+0x2fe>
 8000748:	79bb      	ldrb	r3, [r7, #6]
 800074a:	3b08      	subs	r3, #8
 800074c:	71bb      	strb	r3, [r7, #6]
 800074e:	4b75      	ldr	r3, [pc, #468]	; (8000924 <GPIO_voidSetPinMode+0x32c>)
 8000750:	685b      	ldr	r3, [r3, #4]
 8000752:	79ba      	ldrb	r2, [r7, #6]
 8000754:	0092      	lsls	r2, r2, #2
 8000756:	210f      	movs	r1, #15
 8000758:	fa01 f202 	lsl.w	r2, r1, r2
 800075c:	43d2      	mvns	r2, r2
 800075e:	4013      	ands	r3, r2
 8000760:	7979      	ldrb	r1, [r7, #5]
 8000762:	79ba      	ldrb	r2, [r7, #6]
 8000764:	0092      	lsls	r2, r2, #2
 8000766:	fa01 f202 	lsl.w	r2, r1, r2
 800076a:	4611      	mov	r1, r2
 800076c:	4a6d      	ldr	r2, [pc, #436]	; (8000924 <GPIO_voidSetPinMode+0x32c>)
 800076e:	430b      	orrs	r3, r1
 8000770:	6053      	str	r3, [r2, #4]
 8000772:	e0c0      	b.n	80008f6 <GPIO_voidSetPinMode+0x2fe>
 8000774:	79bb      	ldrb	r3, [r7, #6]
 8000776:	2b07      	cmp	r3, #7
 8000778:	d812      	bhi.n	80007a0 <GPIO_voidSetPinMode+0x1a8>
 800077a:	4b6b      	ldr	r3, [pc, #428]	; (8000928 <GPIO_voidSetPinMode+0x330>)
 800077c:	681b      	ldr	r3, [r3, #0]
 800077e:	79ba      	ldrb	r2, [r7, #6]
 8000780:	0092      	lsls	r2, r2, #2
 8000782:	210f      	movs	r1, #15
 8000784:	fa01 f202 	lsl.w	r2, r1, r2
 8000788:	43d2      	mvns	r2, r2
 800078a:	4013      	ands	r3, r2
 800078c:	7979      	ldrb	r1, [r7, #5]
 800078e:	79ba      	ldrb	r2, [r7, #6]
 8000790:	0092      	lsls	r2, r2, #2
 8000792:	fa01 f202 	lsl.w	r2, r1, r2
 8000796:	4611      	mov	r1, r2
 8000798:	4a63      	ldr	r2, [pc, #396]	; (8000928 <GPIO_voidSetPinMode+0x330>)
 800079a:	430b      	orrs	r3, r1
 800079c:	6013      	str	r3, [r2, #0]
 800079e:	e0ac      	b.n	80008fa <GPIO_voidSetPinMode+0x302>
 80007a0:	79bb      	ldrb	r3, [r7, #6]
 80007a2:	2b0f      	cmp	r3, #15
 80007a4:	f200 80a9 	bhi.w	80008fa <GPIO_voidSetPinMode+0x302>
 80007a8:	79bb      	ldrb	r3, [r7, #6]
 80007aa:	3b08      	subs	r3, #8
 80007ac:	71bb      	strb	r3, [r7, #6]
 80007ae:	4b5e      	ldr	r3, [pc, #376]	; (8000928 <GPIO_voidSetPinMode+0x330>)
 80007b0:	685b      	ldr	r3, [r3, #4]
 80007b2:	79ba      	ldrb	r2, [r7, #6]
 80007b4:	0092      	lsls	r2, r2, #2
 80007b6:	210f      	movs	r1, #15
 80007b8:	fa01 f202 	lsl.w	r2, r1, r2
 80007bc:	43d2      	mvns	r2, r2
 80007be:	4013      	ands	r3, r2
 80007c0:	7979      	ldrb	r1, [r7, #5]
 80007c2:	79ba      	ldrb	r2, [r7, #6]
 80007c4:	0092      	lsls	r2, r2, #2
 80007c6:	fa01 f202 	lsl.w	r2, r1, r2
 80007ca:	4611      	mov	r1, r2
 80007cc:	4a56      	ldr	r2, [pc, #344]	; (8000928 <GPIO_voidSetPinMode+0x330>)
 80007ce:	430b      	orrs	r3, r1
 80007d0:	6053      	str	r3, [r2, #4]
 80007d2:	e092      	b.n	80008fa <GPIO_voidSetPinMode+0x302>
 80007d4:	79bb      	ldrb	r3, [r7, #6]
 80007d6:	2b07      	cmp	r3, #7
 80007d8:	d812      	bhi.n	8000800 <GPIO_voidSetPinMode+0x208>
 80007da:	4b54      	ldr	r3, [pc, #336]	; (800092c <GPIO_voidSetPinMode+0x334>)
 80007dc:	681b      	ldr	r3, [r3, #0]
 80007de:	79ba      	ldrb	r2, [r7, #6]
 80007e0:	0092      	lsls	r2, r2, #2
 80007e2:	210f      	movs	r1, #15
 80007e4:	fa01 f202 	lsl.w	r2, r1, r2
 80007e8:	43d2      	mvns	r2, r2
 80007ea:	4013      	ands	r3, r2
 80007ec:	7979      	ldrb	r1, [r7, #5]
 80007ee:	79ba      	ldrb	r2, [r7, #6]
 80007f0:	0092      	lsls	r2, r2, #2
 80007f2:	fa01 f202 	lsl.w	r2, r1, r2
 80007f6:	4611      	mov	r1, r2
 80007f8:	4a4c      	ldr	r2, [pc, #304]	; (800092c <GPIO_voidSetPinMode+0x334>)
 80007fa:	430b      	orrs	r3, r1
 80007fc:	6013      	str	r3, [r2, #0]
 80007fe:	e07e      	b.n	80008fe <GPIO_voidSetPinMode+0x306>
 8000800:	79bb      	ldrb	r3, [r7, #6]
 8000802:	2b0f      	cmp	r3, #15
 8000804:	d87b      	bhi.n	80008fe <GPIO_voidSetPinMode+0x306>
 8000806:	79bb      	ldrb	r3, [r7, #6]
 8000808:	3b08      	subs	r3, #8
 800080a:	71bb      	strb	r3, [r7, #6]
 800080c:	4b47      	ldr	r3, [pc, #284]	; (800092c <GPIO_voidSetPinMode+0x334>)
 800080e:	685b      	ldr	r3, [r3, #4]
 8000810:	79ba      	ldrb	r2, [r7, #6]
 8000812:	0092      	lsls	r2, r2, #2
 8000814:	210f      	movs	r1, #15
 8000816:	fa01 f202 	lsl.w	r2, r1, r2
 800081a:	43d2      	mvns	r2, r2
 800081c:	4013      	ands	r3, r2
 800081e:	7979      	ldrb	r1, [r7, #5]
 8000820:	79ba      	ldrb	r2, [r7, #6]
 8000822:	0092      	lsls	r2, r2, #2
 8000824:	fa01 f202 	lsl.w	r2, r1, r2
 8000828:	4611      	mov	r1, r2
 800082a:	4a40      	ldr	r2, [pc, #256]	; (800092c <GPIO_voidSetPinMode+0x334>)
 800082c:	430b      	orrs	r3, r1
 800082e:	6053      	str	r3, [r2, #4]
 8000830:	e065      	b.n	80008fe <GPIO_voidSetPinMode+0x306>
 8000832:	79bb      	ldrb	r3, [r7, #6]
 8000834:	2b07      	cmp	r3, #7
 8000836:	d812      	bhi.n	800085e <GPIO_voidSetPinMode+0x266>
 8000838:	4b3d      	ldr	r3, [pc, #244]	; (8000930 <GPIO_voidSetPinMode+0x338>)
 800083a:	681b      	ldr	r3, [r3, #0]
 800083c:	79ba      	ldrb	r2, [r7, #6]
 800083e:	0092      	lsls	r2, r2, #2
 8000840:	210f      	movs	r1, #15
 8000842:	fa01 f202 	lsl.w	r2, r1, r2
 8000846:	43d2      	mvns	r2, r2
 8000848:	4013      	ands	r3, r2
 800084a:	7979      	ldrb	r1, [r7, #5]
 800084c:	79ba      	ldrb	r2, [r7, #6]
 800084e:	0092      	lsls	r2, r2, #2
 8000850:	fa01 f202 	lsl.w	r2, r1, r2
 8000854:	4611      	mov	r1, r2
 8000856:	4a36      	ldr	r2, [pc, #216]	; (8000930 <GPIO_voidSetPinMode+0x338>)
 8000858:	430b      	orrs	r3, r1
 800085a:	6013      	str	r3, [r2, #0]
 800085c:	e051      	b.n	8000902 <GPIO_voidSetPinMode+0x30a>
 800085e:	79bb      	ldrb	r3, [r7, #6]
 8000860:	2b0f      	cmp	r3, #15
 8000862:	d84e      	bhi.n	8000902 <GPIO_voidSetPinMode+0x30a>
 8000864:	79bb      	ldrb	r3, [r7, #6]
 8000866:	3b08      	subs	r3, #8
 8000868:	71bb      	strb	r3, [r7, #6]
 800086a:	4b31      	ldr	r3, [pc, #196]	; (8000930 <GPIO_voidSetPinMode+0x338>)
 800086c:	685b      	ldr	r3, [r3, #4]
 800086e:	79ba      	ldrb	r2, [r7, #6]
 8000870:	0092      	lsls	r2, r2, #2
 8000872:	210f      	movs	r1, #15
 8000874:	fa01 f202 	lsl.w	r2, r1, r2
 8000878:	43d2      	mvns	r2, r2
 800087a:	4013      	ands	r3, r2
 800087c:	7979      	ldrb	r1, [r7, #5]
 800087e:	79ba      	ldrb	r2, [r7, #6]
 8000880:	0092      	lsls	r2, r2, #2
 8000882:	fa01 f202 	lsl.w	r2, r1, r2
 8000886:	4611      	mov	r1, r2
 8000888:	4a29      	ldr	r2, [pc, #164]	; (8000930 <GPIO_voidSetPinMode+0x338>)
 800088a:	430b      	orrs	r3, r1
 800088c:	6053      	str	r3, [r2, #4]
 800088e:	e038      	b.n	8000902 <GPIO_voidSetPinMode+0x30a>
 8000890:	79bb      	ldrb	r3, [r7, #6]
 8000892:	2b07      	cmp	r3, #7
 8000894:	d812      	bhi.n	80008bc <GPIO_voidSetPinMode+0x2c4>
 8000896:	4b27      	ldr	r3, [pc, #156]	; (8000934 <GPIO_voidSetPinMode+0x33c>)
 8000898:	681b      	ldr	r3, [r3, #0]
 800089a:	79ba      	ldrb	r2, [r7, #6]
 800089c:	0092      	lsls	r2, r2, #2
 800089e:	210f      	movs	r1, #15
 80008a0:	fa01 f202 	lsl.w	r2, r1, r2
 80008a4:	43d2      	mvns	r2, r2
 80008a6:	4013      	ands	r3, r2
 80008a8:	7979      	ldrb	r1, [r7, #5]
 80008aa:	79ba      	ldrb	r2, [r7, #6]
 80008ac:	0092      	lsls	r2, r2, #2
 80008ae:	fa01 f202 	lsl.w	r2, r1, r2
 80008b2:	4611      	mov	r1, r2
 80008b4:	4a1f      	ldr	r2, [pc, #124]	; (8000934 <GPIO_voidSetPinMode+0x33c>)
 80008b6:	430b      	orrs	r3, r1
 80008b8:	6013      	str	r3, [r2, #0]
 80008ba:	e024      	b.n	8000906 <GPIO_voidSetPinMode+0x30e>
 80008bc:	79bb      	ldrb	r3, [r7, #6]
 80008be:	2b0f      	cmp	r3, #15
 80008c0:	d821      	bhi.n	8000906 <GPIO_voidSetPinMode+0x30e>
 80008c2:	79bb      	ldrb	r3, [r7, #6]
 80008c4:	3b08      	subs	r3, #8
 80008c6:	71bb      	strb	r3, [r7, #6]
 80008c8:	4b1a      	ldr	r3, [pc, #104]	; (8000934 <GPIO_voidSetPinMode+0x33c>)
 80008ca:	685b      	ldr	r3, [r3, #4]
 80008cc:	79ba      	ldrb	r2, [r7, #6]
 80008ce:	0092      	lsls	r2, r2, #2
 80008d0:	210f      	movs	r1, #15
 80008d2:	fa01 f202 	lsl.w	r2, r1, r2
 80008d6:	43d2      	mvns	r2, r2
 80008d8:	4013      	ands	r3, r2
 80008da:	7979      	ldrb	r1, [r7, #5]
 80008dc:	79ba      	ldrb	r2, [r7, #6]
 80008de:	0092      	lsls	r2, r2, #2
 80008e0:	fa01 f202 	lsl.w	r2, r1, r2
 80008e4:	4611      	mov	r1, r2
 80008e6:	4a13      	ldr	r2, [pc, #76]	; (8000934 <GPIO_voidSetPinMode+0x33c>)
 80008e8:	430b      	orrs	r3, r1
 80008ea:	6053      	str	r3, [r2, #4]
 80008ec:	e00b      	b.n	8000906 <GPIO_voidSetPinMode+0x30e>
 80008ee:	bf00      	nop
 80008f0:	e00d      	b.n	800090e <GPIO_voidSetPinMode+0x316>
 80008f2:	bf00      	nop
 80008f4:	e00b      	b.n	800090e <GPIO_voidSetPinMode+0x316>
 80008f6:	bf00      	nop
 80008f8:	e009      	b.n	800090e <GPIO_voidSetPinMode+0x316>
 80008fa:	bf00      	nop
 80008fc:	e007      	b.n	800090e <GPIO_voidSetPinMode+0x316>
 80008fe:	bf00      	nop
 8000900:	e005      	b.n	800090e <GPIO_voidSetPinMode+0x316>
 8000902:	bf00      	nop
 8000904:	e003      	b.n	800090e <GPIO_voidSetPinMode+0x316>
 8000906:	bf00      	nop
 8000908:	e001      	b.n	800090e <GPIO_voidSetPinMode+0x316>
 800090a:	2300      	movs	r3, #0
 800090c:	73fb      	strb	r3, [r7, #15]
 800090e:	7bfb      	ldrb	r3, [r7, #15]
 8000910:	4618      	mov	r0, r3
 8000912:	3714      	adds	r7, #20
 8000914:	46bd      	mov	sp, r7
 8000916:	bc80      	pop	{r7}
 8000918:	4770      	bx	lr
 800091a:	bf00      	nop
 800091c:	40010800 	.word	0x40010800
 8000920:	40010c00 	.word	0x40010c00
 8000924:	40011000 	.word	0x40011000
 8000928:	40011400 	.word	0x40011400
 800092c:	40011800 	.word	0x40011800
 8000930:	40011c00 	.word	0x40011c00
 8000934:	40012000 	.word	0x40012000

08000938 <GPIO_voidSetPinValue>:
 8000938:	b480      	push	{r7}
 800093a:	b085      	sub	sp, #20
 800093c:	af00      	add	r7, sp, #0
 800093e:	4603      	mov	r3, r0
 8000940:	71fb      	strb	r3, [r7, #7]
 8000942:	460b      	mov	r3, r1
 8000944:	71bb      	strb	r3, [r7, #6]
 8000946:	4613      	mov	r3, r2
 8000948:	717b      	strb	r3, [r7, #5]
 800094a:	2301      	movs	r3, #1
 800094c:	73fb      	strb	r3, [r7, #15]
 800094e:	79fb      	ldrb	r3, [r7, #7]
 8000950:	2b07      	cmp	r3, #7
 8000952:	f200 80a7 	bhi.w	8000aa4 <GPIO_voidSetPinValue+0x16c>
 8000956:	79bb      	ldrb	r3, [r7, #6]
 8000958:	2b0f      	cmp	r3, #15
 800095a:	f200 80a3 	bhi.w	8000aa4 <GPIO_voidSetPinValue+0x16c>
 800095e:	797b      	ldrb	r3, [r7, #5]
 8000960:	2b01      	cmp	r3, #1
 8000962:	d003      	beq.n	800096c <GPIO_voidSetPinValue+0x34>
 8000964:	797b      	ldrb	r3, [r7, #5]
 8000966:	2b00      	cmp	r3, #0
 8000968:	f040 809c 	bne.w	8000aa4 <GPIO_voidSetPinValue+0x16c>
 800096c:	79fb      	ldrb	r3, [r7, #7]
 800096e:	3b01      	subs	r3, #1
 8000970:	2b06      	cmp	r3, #6
 8000972:	f200 8099 	bhi.w	8000aa8 <GPIO_voidSetPinValue+0x170>
 8000976:	a201      	add	r2, pc, #4	; (adr r2, 800097c <GPIO_voidSetPinValue+0x44>)
 8000978:	f852 f023 	ldr.w	pc, [r2, r3, lsl #2]
 800097c:	08000999 	.word	0x08000999
 8000980:	080009bf 	.word	0x080009bf
 8000984:	080009e5 	.word	0x080009e5
 8000988:	08000a0b 	.word	0x08000a0b
 800098c:	08000a31 	.word	0x08000a31
 8000990:	08000a57 	.word	0x08000a57
 8000994:	08000a7d 	.word	0x08000a7d
 8000998:	797b      	ldrb	r3, [r7, #5]
 800099a:	2b00      	cmp	r3, #0
 800099c:	d002      	beq.n	80009a4 <GPIO_voidSetPinValue+0x6c>
 800099e:	2b01      	cmp	r3, #1
 80009a0:	d006      	beq.n	80009b0 <GPIO_voidSetPinValue+0x78>
 80009a2:	e07e      	b.n	8000aa2 <GPIO_voidSetPinValue+0x16a>
 80009a4:	79bb      	ldrb	r3, [r7, #6]
 80009a6:	2201      	movs	r2, #1
 80009a8:	409a      	lsls	r2, r3
 80009aa:	4b42      	ldr	r3, [pc, #264]	; (8000ab4 <GPIO_voidSetPinValue+0x17c>)
 80009ac:	615a      	str	r2, [r3, #20]
 80009ae:	e005      	b.n	80009bc <GPIO_voidSetPinValue+0x84>
 80009b0:	79bb      	ldrb	r3, [r7, #6]
 80009b2:	2201      	movs	r2, #1
 80009b4:	409a      	lsls	r2, r3
 80009b6:	4b3f      	ldr	r3, [pc, #252]	; (8000ab4 <GPIO_voidSetPinValue+0x17c>)
 80009b8:	611a      	str	r2, [r3, #16]
 80009ba:	bf00      	nop
 80009bc:	e071      	b.n	8000aa2 <GPIO_voidSetPinValue+0x16a>
 80009be:	797b      	ldrb	r3, [r7, #5]
 80009c0:	2b00      	cmp	r3, #0
 80009c2:	d002      	beq.n	80009ca <GPIO_voidSetPinValue+0x92>
 80009c4:	2b01      	cmp	r3, #1
 80009c6:	d006      	beq.n	80009d6 <GPIO_voidSetPinValue+0x9e>
 80009c8:	e06b      	b.n	8000aa2 <GPIO_voidSetPinValue+0x16a>
 80009ca:	79bb      	ldrb	r3, [r7, #6]
 80009cc:	2201      	movs	r2, #1
 80009ce:	409a      	lsls	r2, r3
 80009d0:	4b39      	ldr	r3, [pc, #228]	; (8000ab8 <GPIO_voidSetPinValue+0x180>)
 80009d2:	615a      	str	r2, [r3, #20]
 80009d4:	e005      	b.n	80009e2 <GPIO_voidSetPinValue+0xaa>
 80009d6:	79bb      	ldrb	r3, [r7, #6]
 80009d8:	2201      	movs	r2, #1
 80009da:	409a      	lsls	r2, r3
 80009dc:	4b36      	ldr	r3, [pc, #216]	; (8000ab8 <GPIO_voidSetPinValue+0x180>)
 80009de:	611a      	str	r2, [r3, #16]
 80009e0:	bf00      	nop
 80009e2:	e05e      	b.n	8000aa2 <GPIO_voidSetPinValue+0x16a>
 80009e4:	797b      	ldrb	r3, [r7, #5]
 80009e6:	2b00      	cmp	r3, #0
 80009e8:	d002      	beq.n	80009f0 <GPIO_voidSetPinValue+0xb8>
 80009ea:	2b01      	cmp	r3, #1
 80009ec:	d006      	beq.n	80009fc <GPIO_voidSetPinValue+0xc4>
 80009ee:	e058      	b.n	8000aa2 <GPIO_voidSetPinValue+0x16a>
 80009f0:	79bb      	ldrb	r3, [r7, #6]
 80009f2:	2201      	movs	r2, #1
 80009f4:	409a      	lsls	r2, r3
 80009f6:	4b31      	ldr	r3, [pc, #196]	; (8000abc <GPIO_voidSetPinValue+0x184>)
 80009f8:	615a      	str	r2, [r3, #20]
 80009fa:	e005      	b.n	8000a08 <GPIO_voidSetPinValue+0xd0>
 80009fc:	79bb      	ldrb	r3, [r7, #6]
 80009fe:	2201      	movs	r2, #1
 8000a00:	409a      	lsls	r2, r3
 8000a02:	4b2e      	ldr	r3, [pc, #184]	; (8000abc <GPIO_voidSetPinValue+0x184>)
 8000a04:	611a      	str	r2, [r3, #16]
 8000a06:	bf00      	nop
 8000a08:	e04b      	b.n	8000aa2 <GPIO_voidSetPinValue+0x16a>
 8000a0a:	797b      	ldrb	r3, [r7, #5]
 8000a0c:	2b00      	cmp	r3, #0
 8000a0e:	d002      	beq.n	8000a16 <GPIO_voidSetPinValue+0xde>
 8000a10:	2b01      	cmp	r3, #1
 8000a12:	d006      	beq.n	8000a22 <GPIO_voidSetPinValue+0xea>
 8000a14:	e045      	b.n	8000aa2 <GPIO_voidSetPinValue+0x16a>
 8000a16:	79bb      	ldrb	r3, [r7, #6]
 8000a18:	2201      	movs	r2, #1
 8000a1a:	409a      	lsls	r2, r3
 8000a1c:	4b28      	ldr	r3, [pc, #160]	; (8000ac0 <GPIO_voidSetPinValue+0x188>)
 8000a1e:	615a      	str	r2, [r3, #20]
 8000a20:	e005      	b.n	8000a2e <GPIO_voidSetPinValue+0xf6>
 8000a22:	79bb      	ldrb	r3, [r7, #6]
 8000a24:	2201      	movs	r2, #1
 8000a26:	409a      	lsls	r2, r3
 8000a28:	4b25      	ldr	r3, [pc, #148]	; (8000ac0 <GPIO_voidSetPinValue+0x188>)
 8000a2a:	611a      	str	r2, [r3, #16]
 8000a2c:	bf00      	nop
 8000a2e:	e038      	b.n	8000aa2 <GPIO_voidSetPinValue+0x16a>
 8000a30:	797b      	ldrb	r3, [r7, #5]
 8000a32:	2b00      	cmp	r3, #0
 8000a34:	d002      	beq.n	8000a3c <GPIO_voidSetPinValue+0x104>
 8000a36:	2b01      	cmp	r3, #1
 8000a38:	d006      	beq.n	8000a48 <GPIO_voidSetPinValue+0x110>
 8000a3a:	e032      	b.n	8000aa2 <GPIO_voidSetPinValue+0x16a>
 8000a3c:	79bb      	ldrb	r3, [r7, #6]
 8000a3e:	2201      	movs	r2, #1
 8000a40:	409a      	lsls	r2, r3
 8000a42:	4b20      	ldr	r3, [pc, #128]	; (8000ac4 <GPIO_voidSetPinValue+0x18c>)
 8000a44:	615a      	str	r2, [r3, #20]
 8000a46:	e005      	b.n	8000a54 <GPIO_voidSetPinValue+0x11c>
 8000a48:	79bb      	ldrb	r3, [r7, #6]
 8000a4a:	2201      	movs	r2, #1
 8000a4c:	409a      	lsls	r2, r3
 8000a4e:	4b1d      	ldr	r3, [pc, #116]	; (8000ac4 <GPIO_voidSetPinValue+0x18c>)
 8000a50:	611a      	str	r2, [r3, #16]
 8000a52:	bf00      	nop
 8000a54:	e025      	b.n	8000aa2 <GPIO_voidSetPinValue+0x16a>
 8000a56:	797b      	ldrb	r3, [r7, #5]
 8000a58:	2b00      	cmp	r3, #0
 8000a5a:	d002      	beq.n	8000a62 <GPIO_voidSetPinValue+0x12a>
 8000a5c:	2b01      	cmp	r3, #1
 8000a5e:	d006      	beq.n	8000a6e <GPIO_voidSetPinValue+0x136>
 8000a60:	e01f      	b.n	8000aa2 <GPIO_voidSetPinValue+0x16a>
 8000a62:	79bb      	ldrb	r3, [r7, #6]
 8000a64:	2201      	movs	r2, #1
 8000a66:	409a      	lsls	r2, r3
 8000a68:	4b17      	ldr	r3, [pc, #92]	; (8000ac8 <GPIO_voidSetPinValue+0x190>)
 8000a6a:	615a      	str	r2, [r3, #20]
 8000a6c:	e005      	b.n	8000a7a <GPIO_voidSetPinValue+0x142>
 8000a6e:	79bb      	ldrb	r3, [r7, #6]
 8000a70:	2201      	movs	r2, #1
 8000a72:	409a      	lsls	r2, r3
 8000a74:	4b14      	ldr	r3, [pc, #80]	; (8000ac8 <GPIO_voidSetPinValue+0x190>)
 8000a76:	611a      	str	r2, [r3, #16]
 8000a78:	bf00      	nop
 8000a7a:	e012      	b.n	8000aa2 <GPIO_voidSetPinValue+0x16a>
 8000a7c:	797b      	ldrb	r3, [r7, #5]
 8000a7e:	2b00      	cmp	r3, #0
 8000a80:	d002      	beq.n	8000a88 <GPIO_voidSetPinValue+0x150>
 8000a82:	2b01      	cmp	r3, #1
 8000a84:	d006      	beq.n	8000a94 <GPIO_voidSetPinValue+0x15c>
 8000a86:	e00b      	b.n	8000aa0 <GPIO_voidSetPinValue+0x168>
 8000a88:	79bb      	ldrb	r3, [r7, #6]
 8000a8a:	2201      	movs	r2, #1
 8000a8c:	409a      	lsls	r2, r3
 8000a8e:	4b0f      	ldr	r3, [pc, #60]	; (8000acc <GPIO_voidSetPinValue+0x194>)
 8000a90:	615a      	str	r2, [r3, #20]
 8000a92:	e005      	b.n	8000aa0 <GPIO_voidSetPinValue+0x168>
 8000a94:	79bb      	ldrb	r3, [r7, #6]
 8000a96:	2201      	movs	r2, #1
 8000a98:	409a      	lsls	r2, r3
 8000a9a:	4b0c      	ldr	r3, [pc, #48]	; (8000acc <GPIO_voidSetPinValue+0x194>)
 8000a9c:	611a      	str	r2, [r3, #16]
 8000a9e:	bf00      	nop
 8000aa0:	bf00      	nop
 8000aa2:	e001      	b.n	8000aa8 <GPIO_voidSetPinValue+0x170>
 8000aa4:	2300      	movs	r3, #0
 8000aa6:	73fb      	strb	r3, [r7, #15]
 8000aa8:	7bfb      	ldrb	r3, [r7, #15]
 8000aaa:	4618      	mov	r0, r3
 8000aac:	3714      	adds	r7, #20
 8000aae:	46bd      	mov	sp, r7
 8000ab0:	bc80      	pop	{r7}
 8000ab2:	4770      	bx	lr
 8000ab4:	40010800 	.word	0x40010800
 8000ab8:	40010c00 	.word	0x40010c00
 8000abc:	40011000 	.word	0x40011000
 8000ac0:	40011400 	.word	0x40011400
 8000ac4:	40011800 	.word	0x40011800
 8000ac8:	40011c00 	.word	0x40011c00
 8000acc:	40012000 	.word	0x40012000

08000ad0 <MOTOR_init>:
 8000ad0:	b580      	push	{r7, lr}
 8000ad2:	b082      	sub	sp, #8
 8000ad4:	af00      	add	r7, sp, #0
 8000ad6:	4603      	mov	r3, r0
 8000ad8:	71fb      	strb	r3, [r7, #7]
 8000ada:	79fb      	ldrb	r3, [r7, #7]
 8000adc:	2b00      	cmp	r3, #0
 8000ade:	d021      	beq.n	8000b24 <MOTOR_init+0x54>
 8000ae0:	79fb      	ldrb	r3, [r7, #7]
 8000ae2:	2b01      	cmp	r3, #1
 8000ae4:	d002      	beq.n	8000aec <MOTOR_init+0x1c>
 8000ae6:	2b02      	cmp	r3, #2
 8000ae8:	d00e      	beq.n	8000b08 <MOTOR_init+0x38>
 8000aea:	e01b      	b.n	8000b24 <MOTOR_init+0x54>
 8000aec:	2001      	movs	r0, #1
 8000aee:	f000 f9a5 	bl	8000e3c <MTimer_voidInit>
 8000af2:	2201      	movs	r2, #1
 8000af4:	2103      	movs	r1, #3
 8000af6:	2002      	movs	r0, #2
 8000af8:	f7ff fd7e 	bl	80005f8 <GPIO_voidSetPinMode>
 8000afc:	2201      	movs	r2, #1
 8000afe:	2104      	movs	r1, #4
 8000b00:	2002      	movs	r0, #2
 8000b02:	f7ff fd79 	bl	80005f8 <GPIO_voidSetPinMode>
 8000b06:	e00d      	b.n	8000b24 <MOTOR_init+0x54>
 8000b08:	2001      	movs	r0, #1
 8000b0a:	f000 f997 	bl	8000e3c <MTimer_voidInit>
 8000b0e:	2201      	movs	r2, #1
 8000b10:	2105      	movs	r1, #5
 8000b12:	2002      	movs	r0, #2
 8000b14:	f7ff fd70 	bl	80005f8 <GPIO_voidSetPinMode>
 8000b18:	2201      	movs	r2, #1
 8000b1a:	2106      	movs	r1, #6
 8000b1c:	2002      	movs	r0, #2
 8000b1e:	f7ff fd6b 	bl	80005f8 <GPIO_voidSetPinMode>
 8000b22:	bf00      	nop
 8000b24:	bf00      	nop
 8000b26:	3708      	adds	r7, #8
 8000b28:	46bd      	mov	sp, r7
 8000b2a:	bd80      	pop	{r7, pc}

08000b2c <MOTOR_CounterClockWise>:
 8000b2c:	b580      	push	{r7, lr}
 8000b2e:	b082      	sub	sp, #8
 8000b30:	af00      	add	r7, sp, #0
 8000b32:	4603      	mov	r3, r0
 8000b34:	460a      	mov	r2, r1
 8000b36:	71fb      	strb	r3, [r7, #7]
 8000b38:	4613      	mov	r3, r2
 8000b3a:	80bb      	strh	r3, [r7, #4]
 8000b3c:	79fb      	ldrb	r3, [r7, #7]
 8000b3e:	2b00      	cmp	r3, #0
 8000b40:	d02a      	beq.n	8000b98 <MOTOR_CounterClockWise+0x6c>
 8000b42:	79fb      	ldrb	r3, [r7, #7]
 8000b44:	2b02      	cmp	r3, #2
 8000b46:	d827      	bhi.n	8000b98 <MOTOR_CounterClockWise+0x6c>
 8000b48:	79fb      	ldrb	r3, [r7, #7]
 8000b4a:	2b01      	cmp	r3, #1
 8000b4c:	d002      	beq.n	8000b54 <MOTOR_CounterClockWise+0x28>
 8000b4e:	2b02      	cmp	r3, #2
 8000b50:	d011      	beq.n	8000b76 <MOTOR_CounterClockWise+0x4a>
 8000b52:	e021      	b.n	8000b98 <MOTOR_CounterClockWise+0x6c>
 8000b54:	88bb      	ldrh	r3, [r7, #4]
 8000b56:	461a      	mov	r2, r3
 8000b58:	2101      	movs	r1, #1
 8000b5a:	2001      	movs	r0, #1
 8000b5c:	f000 fa88 	bl	8001070 <MTimer_voidPWM>
 8000b60:	2201      	movs	r2, #1
 8000b62:	2103      	movs	r1, #3
 8000b64:	2002      	movs	r0, #2
 8000b66:	f7ff fee7 	bl	8000938 <GPIO_voidSetPinValue>
 8000b6a:	2200      	movs	r2, #0
 8000b6c:	2104      	movs	r1, #4
 8000b6e:	2002      	movs	r0, #2
 8000b70:	f7ff fee2 	bl	8000938 <GPIO_voidSetPinValue>
 8000b74:	e010      	b.n	8000b98 <MOTOR_CounterClockWise+0x6c>
 8000b76:	88bb      	ldrh	r3, [r7, #4]
 8000b78:	461a      	mov	r2, r3
 8000b7a:	2102      	movs	r1, #2
 8000b7c:	2001      	movs	r0, #1
 8000b7e:	f000 fa77 	bl	8001070 <MTimer_voidPWM>
 8000b82:	2201      	movs	r2, #1
 8000b84:	2105      	movs	r1, #5
 8000b86:	2002      	movs	r0, #2
 8000b88:	f7ff fed6 	bl	8000938 <GPIO_voidSetPinValue>
 8000b8c:	2200      	movs	r2, #0
 8000b8e:	2106      	movs	r1, #6
 8000b90:	2002      	movs	r0, #2
 8000b92:	f7ff fed1 	bl	8000938 <GPIO_voidSetPinValue>
 8000b96:	bf00      	nop
 8000b98:	bf00      	nop
 8000b9a:	3708      	adds	r7, #8
 8000b9c:	46bd      	mov	sp, r7
 8000b9e:	bd80      	pop	{r7, pc}

08000ba0 <MOTOR_ClockWise>:
 8000ba0:	b580      	push	{r7, lr}
 8000ba2:	b082      	sub	sp, #8
 8000ba4:	af00      	add	r7, sp, #0
 8000ba6:	4603      	mov	r3, r0
 8000ba8:	460a      	mov	r2, r1
 8000baa:	71fb      	strb	r3, [r7, #7]
 8000bac:	4613      	mov	r3, r2
 8000bae:	80bb      	strh	r3, [r7, #4]
 8000bb0:	79fb      	ldrb	r3, [r7, #7]
 8000bb2:	2b00      	cmp	r3, #0
 8000bb4:	d028      	beq.n	8000c08 <MOTOR_ClockWise+0x68>
 8000bb6:	79fb      	ldrb	r3, [r7, #7]
 8000bb8:	2b02      	cmp	r3, #2
 8000bba:	d825      	bhi.n	8000c08 <MOTOR_ClockWise+0x68>
 8000bbc:	79fb      	ldrb	r3, [r7, #7]
 8000bbe:	2b01      	cmp	r3, #1
 8000bc0:	d002      	beq.n	8000bc8 <MOTOR_ClockWise+0x28>
 8000bc2:	2b02      	cmp	r3, #2
 8000bc4:	d010      	beq.n	8000be8 <MOTOR_ClockWise+0x48>
 8000bc6:	e01f      	b.n	8000c08 <MOTOR_ClockWise+0x68>
 8000bc8:	2200      	movs	r2, #0
 8000bca:	2101      	movs	r1, #1
 8000bcc:	2001      	movs	r0, #1
 8000bce:	f000 fa4f 	bl	8001070 <MTimer_voidPWM>
 8000bd2:	2200      	movs	r2, #0
 8000bd4:	2103      	movs	r1, #3
 8000bd6:	2002      	movs	r0, #2
 8000bd8:	f7ff feae 	bl	8000938 <GPIO_voidSetPinValue>
 8000bdc:	2201      	movs	r2, #1
 8000bde:	2104      	movs	r1, #4
 8000be0:	2002      	movs	r0, #2
 8000be2:	f7ff fea9 	bl	8000938 <GPIO_voidSetPinValue>
 8000be6:	e00f      	b.n	8000c08 <MOTOR_ClockWise+0x68>
 8000be8:	2200      	movs	r2, #0
 8000bea:	2102      	movs	r1, #2
 8000bec:	2001      	movs	r0, #1
 8000bee:	f000 fa3f 	bl	8001070 <MTimer_voidPWM>
 8000bf2:	2200      	movs	r2, #0
 8000bf4:	2105      	movs	r1, #5
 8000bf6:	2002      	movs	r0, #2
 8000bf8:	f7ff fe9e 	bl	8000938 <GPIO_voidSetPinValue>
 8000bfc:	2201      	movs	r2, #1
 8000bfe:	2106      	movs	r1, #6
 8000c00:	2002      	movs	r0, #2
 8000c02:	f7ff fe99 	bl	8000938 <GPIO_voidSetPinValue>
 8000c06:	bf00      	nop
 8000c08:	bf00      	nop
 8000c0a:	3708      	adds	r7, #8
 8000c0c:	46bd      	mov	sp, r7
 8000c0e:	bd80      	pop	{r7, pc}

08000c10 <MOTOR_Stop>:
 8000c10:	b580      	push	{r7, lr}
 8000c12:	b082      	sub	sp, #8
 8000c14:	af00      	add	r7, sp, #0
 8000c16:	4603      	mov	r3, r0
 8000c18:	71fb      	strb	r3, [r7, #7]
 8000c1a:	79fb      	ldrb	r3, [r7, #7]
 8000c1c:	2b00      	cmp	r3, #0
 8000c1e:	d014      	beq.n	8000c4a <MOTOR_Stop+0x3a>
 8000c20:	79fb      	ldrb	r3, [r7, #7]
 8000c22:	2b02      	cmp	r3, #2
 8000c24:	d811      	bhi.n	8000c4a <MOTOR_Stop+0x3a>
 8000c26:	79fb      	ldrb	r3, [r7, #7]
 8000c28:	2b01      	cmp	r3, #1
 8000c2a:	d002      	beq.n	8000c32 <MOTOR_Stop+0x22>
 8000c2c:	2b02      	cmp	r3, #2
 8000c2e:	d006      	beq.n	8000c3e <MOTOR_Stop+0x2e>
 8000c30:	e00b      	b.n	8000c4a <MOTOR_Stop+0x3a>
 8000c32:	2200      	movs	r2, #0
 8000c34:	2101      	movs	r1, #1
 8000c36:	2001      	movs	r0, #1
 8000c38:	f000 fa1a 	bl	8001070 <MTimer_voidPWM>
 8000c3c:	e005      	b.n	8000c4a <MOTOR_Stop+0x3a>
 8000c3e:	2200      	movs	r2, #0
 8000c40:	2102      	movs	r1, #2
 8000c42:	2001      	movs	r0, #1
 8000c44:	f000 fa14 	bl	8001070 <MTimer_voidPWM>
 8000c48:	bf00      	nop
 8000c4a:	bf00      	nop
 8000c4c:	3708      	adds	r7, #8
 8000c4e:	46bd      	mov	sp, r7
 8000c50:	bd80      	pop	{r7, pc}
	...

08000c54 <RCC_voidInitSysClock>:
 8000c54:	b480      	push	{r7}
 8000c56:	af00      	add	r7, sp, #0
 8000c58:	4b16      	ldr	r3, [pc, #88]	; (8000cb4 <RCC_voidInitSysClock+0x60>)
 8000c5a:	681b      	ldr	r3, [r3, #0]
 8000c5c:	4a15      	ldr	r2, [pc, #84]	; (8000cb4 <RCC_voidInitSysClock+0x60>)
 8000c5e:	f443 3380 	orr.w	r3, r3, #65536	; 0x10000
 8000c62:	6013      	str	r3, [r2, #0]
 8000c64:	4b13      	ldr	r3, [pc, #76]	; (8000cb4 <RCC_voidInitSysClock+0x60>)
 8000c66:	681b      	ldr	r3, [r3, #0]
 8000c68:	4a12      	ldr	r2, [pc, #72]	; (8000cb4 <RCC_voidInitSysClock+0x60>)
 8000c6a:	f443 2380 	orr.w	r3, r3, #262144	; 0x40000
 8000c6e:	6013      	str	r3, [r2, #0]
 8000c70:	4b10      	ldr	r3, [pc, #64]	; (8000cb4 <RCC_voidInitSysClock+0x60>)
 8000c72:	685b      	ldr	r3, [r3, #4]
 8000c74:	4a0f      	ldr	r2, [pc, #60]	; (8000cb4 <RCC_voidInitSysClock+0x60>)
 8000c76:	f043 0301 	orr.w	r3, r3, #1
 8000c7a:	6053      	str	r3, [r2, #4]
 8000c7c:	4b0d      	ldr	r3, [pc, #52]	; (8000cb4 <RCC_voidInitSysClock+0x60>)
 8000c7e:	685b      	ldr	r3, [r3, #4]
 8000c80:	4a0c      	ldr	r2, [pc, #48]	; (8000cb4 <RCC_voidInitSysClock+0x60>)
 8000c82:	f023 0302 	bic.w	r3, r3, #2
 8000c86:	6053      	str	r3, [r2, #4]
 8000c88:	4b0a      	ldr	r3, [pc, #40]	; (8000cb4 <RCC_voidInitSysClock+0x60>)
 8000c8a:	685b      	ldr	r3, [r3, #4]
 8000c8c:	4a09      	ldr	r2, [pc, #36]	; (8000cb4 <RCC_voidInitSysClock+0x60>)
 8000c8e:	f023 0380 	bic.w	r3, r3, #128	; 0x80
 8000c92:	6053      	str	r3, [r2, #4]
 8000c94:	4b07      	ldr	r3, [pc, #28]	; (8000cb4 <RCC_voidInitSysClock+0x60>)
 8000c96:	685b      	ldr	r3, [r3, #4]
 8000c98:	4a06      	ldr	r2, [pc, #24]	; (8000cb4 <RCC_voidInitSysClock+0x60>)
 8000c9a:	f423 7380 	bic.w	r3, r3, #256	; 0x100
 8000c9e:	6053      	str	r3, [r2, #4]
 8000ca0:	4b04      	ldr	r3, [pc, #16]	; (8000cb4 <RCC_voidInitSysClock+0x60>)
 8000ca2:	685b      	ldr	r3, [r3, #4]
 8000ca4:	4a03      	ldr	r2, [pc, #12]	; (8000cb4 <RCC_voidInitSysClock+0x60>)
 8000ca6:	f423 6300 	bic.w	r3, r3, #2048	; 0x800
 8000caa:	6053      	str	r3, [r2, #4]
 8000cac:	bf00      	nop
 8000cae:	46bd      	mov	sp, r7
 8000cb0:	bc80      	pop	{r7}
 8000cb2:	4770      	bx	lr
 8000cb4:	40021000 	.word	0x40021000

08000cb8 <RCC_voidEnablePeripheral>:
 8000cb8:	b480      	push	{r7}
 8000cba:	b083      	sub	sp, #12
 8000cbc:	af00      	add	r7, sp, #0
 8000cbe:	4603      	mov	r3, r0
 8000cc0:	460a      	mov	r2, r1
 8000cc2:	71fb      	strb	r3, [r7, #7]
 8000cc4:	4613      	mov	r3, r2
 8000cc6:	71bb      	strb	r3, [r7, #6]
 8000cc8:	79fb      	ldrb	r3, [r7, #7]
 8000cca:	2b02      	cmp	r3, #2
 8000ccc:	d01c      	beq.n	8000d08 <RCC_voidEnablePeripheral+0x50>
 8000cce:	2b02      	cmp	r3, #2
 8000cd0:	dc25      	bgt.n	8000d1e <RCC_voidEnablePeripheral+0x66>
 8000cd2:	2b00      	cmp	r3, #0
 8000cd4:	d002      	beq.n	8000cdc <RCC_voidEnablePeripheral+0x24>
 8000cd6:	2b01      	cmp	r3, #1
 8000cd8:	d00b      	beq.n	8000cf2 <RCC_voidEnablePeripheral+0x3a>
 8000cda:	e020      	b.n	8000d1e <RCC_voidEnablePeripheral+0x66>
 8000cdc:	4b12      	ldr	r3, [pc, #72]	; (8000d28 <RCC_voidEnablePeripheral+0x70>)
 8000cde:	695b      	ldr	r3, [r3, #20]
 8000ce0:	79ba      	ldrb	r2, [r7, #6]
 8000ce2:	2101      	movs	r1, #1
 8000ce4:	fa01 f202 	lsl.w	r2, r1, r2
 8000ce8:	4611      	mov	r1, r2
 8000cea:	4a0f      	ldr	r2, [pc, #60]	; (8000d28 <RCC_voidEnablePeripheral+0x70>)
 8000cec:	430b      	orrs	r3, r1
 8000cee:	6153      	str	r3, [r2, #20]
 8000cf0:	e015      	b.n	8000d1e <RCC_voidEnablePeripheral+0x66>
 8000cf2:	4b0d      	ldr	r3, [pc, #52]	; (8000d28 <RCC_voidEnablePeripheral+0x70>)
 8000cf4:	69db      	ldr	r3, [r3, #28]
 8000cf6:	79ba      	ldrb	r2, [r7, #6]
 8000cf8:	2101      	movs	r1, #1
 8000cfa:	fa01 f202 	lsl.w	r2, r1, r2
 8000cfe:	4611      	mov	r1, r2
 8000d00:	4a09      	ldr	r2, [pc, #36]	; (8000d28 <RCC_voidEnablePeripheral+0x70>)
 8000d02:	430b      	orrs	r3, r1
 8000d04:	61d3      	str	r3, [r2, #28]
 8000d06:	e00a      	b.n	8000d1e <RCC_voidEnablePeripheral+0x66>
 8000d08:	4b07      	ldr	r3, [pc, #28]	; (8000d28 <RCC_voidEnablePeripheral+0x70>)
 8000d0a:	699b      	ldr	r3, [r3, #24]
 8000d0c:	79ba      	ldrb	r2, [r7, #6]
 8000d0e:	2101      	movs	r1, #1
 8000d10:	fa01 f202 	lsl.w	r2, r1, r2
 8000d14:	4611      	mov	r1, r2
 8000d16:	4a04      	ldr	r2, [pc, #16]	; (8000d28 <RCC_voidEnablePeripheral+0x70>)
 8000d18:	430b      	orrs	r3, r1
 8000d1a:	6193      	str	r3, [r2, #24]
 8000d1c:	bf00      	nop
 8000d1e:	bf00      	nop
 8000d20:	370c      	adds	r7, #12
 8000d22:	46bd      	mov	sp, r7
 8000d24:	bc80      	pop	{r7}
 8000d26:	4770      	bx	lr
 8000d28:	40021000 	.word	0x40021000

08000d2c <truncate_queue>:
 8000d2c:	b480      	push	{r7}
 8000d2e:	b083      	sub	sp, #12
 8000d30:	af00      	add	r7, sp, #0
 8000d32:	2300      	movs	r3, #0
 8000d34:	71fb      	strb	r3, [r7, #7]
 8000d36:	4b19      	ldr	r3, [pc, #100]	; (8000d9c <truncate_queue+0x70>)
 8000d38:	f993 20c8 	ldrsb.w	r2, [r3, #200]	; 0xc8
 8000d3c:	4b17      	ldr	r3, [pc, #92]	; (8000d9c <truncate_queue+0x70>)
 8000d3e:	f993 30c9 	ldrsb.w	r3, [r3, #201]	; 0xc9
 8000d42:	429a      	cmp	r2, r3
 8000d44:	dc05      	bgt.n	8000d52 <truncate_queue+0x26>
 8000d46:	4b15      	ldr	r3, [pc, #84]	; (8000d9c <truncate_queue+0x70>)
 8000d48:	f993 30c8 	ldrsb.w	r3, [r3, #200]	; 0xc8
 8000d4c:	f1b3 3fff 	cmp.w	r3, #4294967295
 8000d50:	d10a      	bne.n	8000d68 <truncate_queue+0x3c>
 8000d52:	4b12      	ldr	r3, [pc, #72]	; (8000d9c <truncate_queue+0x70>)
 8000d54:	22ff      	movs	r2, #255	; 0xff
 8000d56:	f883 20c8 	strb.w	r2, [r3, #200]	; 0xc8
 8000d5a:	4b10      	ldr	r3, [pc, #64]	; (8000d9c <truncate_queue+0x70>)
 8000d5c:	22ff      	movs	r2, #255	; 0xff
 8000d5e:	f883 20c9 	strb.w	r2, [r3, #201]	; 0xc9
 8000d62:	2302      	movs	r3, #2
 8000d64:	71fb      	strb	r3, [r7, #7]
 8000d66:	e012      	b.n	8000d8e <truncate_queue+0x62>
 8000d68:	4b0c      	ldr	r3, [pc, #48]	; (8000d9c <truncate_queue+0x70>)
 8000d6a:	f993 30c8 	ldrsb.w	r3, [r3, #200]	; 0xc8
 8000d6e:	461a      	mov	r2, r3
 8000d70:	4b0a      	ldr	r3, [pc, #40]	; (8000d9c <truncate_queue+0x70>)
 8000d72:	f833 2012 	ldrh.w	r2, [r3, r2, lsl #1]
 8000d76:	4b0a      	ldr	r3, [pc, #40]	; (8000da0 <truncate_queue+0x74>)
 8000d78:	60da      	str	r2, [r3, #12]
 8000d7a:	4b08      	ldr	r3, [pc, #32]	; (8000d9c <truncate_queue+0x70>)
 8000d7c:	f993 30c8 	ldrsb.w	r3, [r3, #200]	; 0xc8
 8000d80:	b2db      	uxtb	r3, r3
 8000d82:	3301      	adds	r3, #1
 8000d84:	b2db      	uxtb	r3, r3
 8000d86:	b25a      	sxtb	r2, r3
 8000d88:	4b04      	ldr	r3, [pc, #16]	; (8000d9c <truncate_queue+0x70>)
 8000d8a:	f883 20c8 	strb.w	r2, [r3, #200]	; 0xc8
 8000d8e:	79fb      	ldrb	r3, [r7, #7]
 8000d90:	4618      	mov	r0, r3
 8000d92:	370c      	adds	r7, #12
 8000d94:	46bd      	mov	sp, r7
 8000d96:	bc80      	pop	{r7}
 8000d98:	4770      	bx	lr
 8000d9a:	bf00      	nop
 8000d9c:	20000000 	.word	0x20000000
 8000da0:	40013000 	.word	0x40013000

08000da4 <SPI1_IRQHandler>:
 8000da4:	b580      	push	{r7, lr}
 8000da6:	af00      	add	r7, sp, #0
 8000da8:	f7ff ffc0 	bl	8000d2c <truncate_queue>
 8000dac:	4603      	mov	r3, r0
 8000dae:	2b02      	cmp	r3, #2
 8000db0:	d106      	bne.n	8000dc0 <SPI1_IRQHandler+0x1c>
 8000db2:	4b04      	ldr	r3, [pc, #16]	; (8000dc4 <SPI1_IRQHandler+0x20>)
 8000db4:	681b      	ldr	r3, [r3, #0]
 8000db6:	2b00      	cmp	r3, #0
 8000db8:	d002      	beq.n	8000dc0 <SPI1_IRQHandler+0x1c>
 8000dba:	4b02      	ldr	r3, [pc, #8]	; (8000dc4 <SPI1_IRQHandler+0x20>)
 8000dbc:	681b      	ldr	r3, [r3, #0]
 8000dbe:	4798      	blx	r3
 8000dc0:	bf00      	nop
 8000dc2:	bd80      	pop	{r7, pc}
 8000dc4:	200000ec 	.word	0x200000ec

08000dc8 <MSTK_voidInit>:
 8000dc8:	b480      	push	{r7}
 8000dca:	af00      	add	r7, sp, #0
 8000dcc:	4b03      	ldr	r3, [pc, #12]	; (8000ddc <MSTK_voidInit+0x14>)
 8000dce:	2200      	movs	r2, #0
 8000dd0:	601a      	str	r2, [r3, #0]
 8000dd2:	bf00      	nop
 8000dd4:	46bd      	mov	sp, r7
 8000dd6:	bc80      	pop	{r7}
 8000dd8:	4770      	bx	lr
 8000dda:	bf00      	nop
 8000ddc:	e000e010 	.word	0xe000e010

08000de0 <SysTick_Handler>:
 8000de0:	b580      	push	{r7, lr}
 8000de2:	b082      	sub	sp, #8
 8000de4:	af00      	add	r7, sp, #0
 8000de6:	4b12      	ldr	r3, [pc, #72]	; (8000e30 <SysTick_Handler+0x50>)
 8000de8:	781b      	ldrb	r3, [r3, #0]
 8000dea:	2b00      	cmp	r3, #0
 8000dec:	d111      	bne.n	8000e12 <SysTick_Handler+0x32>
 8000dee:	4b11      	ldr	r3, [pc, #68]	; (8000e34 <SysTick_Handler+0x54>)
 8000df0:	681b      	ldr	r3, [r3, #0]
 8000df2:	4a10      	ldr	r2, [pc, #64]	; (8000e34 <SysTick_Handler+0x54>)
 8000df4:	f023 0302 	bic.w	r3, r3, #2
 8000df8:	6013      	str	r3, [r2, #0]
 8000dfa:	4b0e      	ldr	r3, [pc, #56]	; (8000e34 <SysTick_Handler+0x54>)
 8000dfc:	681b      	ldr	r3, [r3, #0]
 8000dfe:	4a0d      	ldr	r2, [pc, #52]	; (8000e34 <SysTick_Handler+0x54>)
 8000e00:	f043 0301 	orr.w	r3, r3, #1
 8000e04:	6013      	str	r3, [r2, #0]
 8000e06:	4b0b      	ldr	r3, [pc, #44]	; (8000e34 <SysTick_Handler+0x54>)
 8000e08:	2200      	movs	r2, #0
 8000e0a:	605a      	str	r2, [r3, #4]
 8000e0c:	4b09      	ldr	r3, [pc, #36]	; (8000e34 <SysTick_Handler+0x54>)
 8000e0e:	2200      	movs	r2, #0
 8000e10:	609a      	str	r2, [r3, #8]
 8000e12:	4b09      	ldr	r3, [pc, #36]	; (8000e38 <SysTick_Handler+0x58>)
 8000e14:	681b      	ldr	r3, [r3, #0]
 8000e16:	4798      	blx	r3
 8000e18:	4b06      	ldr	r3, [pc, #24]	; (8000e34 <SysTick_Handler+0x54>)
 8000e1a:	681b      	ldr	r3, [r3, #0]
 8000e1c:	0c1b      	lsrs	r3, r3, #16
 8000e1e:	b2db      	uxtb	r3, r3
 8000e20:	f003 0301 	and.w	r3, r3, #1
 8000e24:	71fb      	strb	r3, [r7, #7]
 8000e26:	bf00      	nop
 8000e28:	3708      	adds	r7, #8
 8000e2a:	46bd      	mov	sp, r7
 8000e2c:	bd80      	pop	{r7, pc}
 8000e2e:	bf00      	nop
 8000e30:	200000f4 	.word	0x200000f4
 8000e34:	e000e010 	.word	0xe000e010
 8000e38:	200000f0 	.word	0x200000f0

08000e3c <MTimer_voidInit>:
 8000e3c:	b480      	push	{r7}
 8000e3e:	b083      	sub	sp, #12
 8000e40:	af00      	add	r7, sp, #0
 8000e42:	4603      	mov	r3, r0
 8000e44:	71fb      	strb	r3, [r7, #7]
 8000e46:	79fb      	ldrb	r3, [r7, #7]
 8000e48:	3b01      	subs	r3, #1
 8000e4a:	2b03      	cmp	r3, #3
 8000e4c:	f200 8107 	bhi.w	800105e <MTimer_voidInit+0x222>
 8000e50:	a201      	add	r2, pc, #4	; (adr r2, 8000e58 <MTimer_voidInit+0x1c>)
 8000e52:	f852 f023 	ldr.w	pc, [r2, r3, lsl #2]
 8000e56:	bf00      	nop
 8000e58:	08000e69 	.word	0x08000e69
 8000e5c:	08000ecd 	.word	0x08000ecd
 8000e60:	08000f5f 	.word	0x08000f5f
 8000e64:	08000ff1 	.word	0x08000ff1
 8000e68:	4b7f      	ldr	r3, [pc, #508]	; (8001068 <MTimer_voidInit+0x22c>)
 8000e6a:	681b      	ldr	r3, [r3, #0]
 8000e6c:	4a7e      	ldr	r2, [pc, #504]	; (8001068 <MTimer_voidInit+0x22c>)
 8000e6e:	f023 0310 	bic.w	r3, r3, #16
 8000e72:	6013      	str	r3, [r2, #0]
 8000e74:	4b7c      	ldr	r3, [pc, #496]	; (8001068 <MTimer_voidInit+0x22c>)
 8000e76:	681b      	ldr	r3, [r3, #0]
 8000e78:	4a7b      	ldr	r2, [pc, #492]	; (8001068 <MTimer_voidInit+0x22c>)
 8000e7a:	f023 0320 	bic.w	r3, r3, #32
 8000e7e:	6013      	str	r3, [r2, #0]
 8000e80:	4b79      	ldr	r3, [pc, #484]	; (8001068 <MTimer_voidInit+0x22c>)
 8000e82:	681b      	ldr	r3, [r3, #0]
 8000e84:	4a78      	ldr	r2, [pc, #480]	; (8001068 <MTimer_voidInit+0x22c>)
 8000e86:	f023 0340 	bic.w	r3, r3, #64	; 0x40
 8000e8a:	6013      	str	r3, [r2, #0]
 8000e8c:	4b76      	ldr	r3, [pc, #472]	; (8001068 <MTimer_voidInit+0x22c>)
 8000e8e:	681b      	ldr	r3, [r3, #0]
 8000e90:	4a75      	ldr	r2, [pc, #468]	; (8001068 <MTimer_voidInit+0x22c>)
 8000e92:	f423 7380 	bic.w	r3, r3, #256	; 0x100
 8000e96:	6013      	str	r3, [r2, #0]
 8000e98:	4b73      	ldr	r3, [pc, #460]	; (8001068 <MTimer_voidInit+0x22c>)
 8000e9a:	681b      	ldr	r3, [r3, #0]
 8000e9c:	4a72      	ldr	r2, [pc, #456]	; (8001068 <MTimer_voidInit+0x22c>)
 8000e9e:	f423 7300 	bic.w	r3, r3, #512	; 0x200
 8000ea2:	6013      	str	r3, [r2, #0]
 8000ea4:	4b70      	ldr	r3, [pc, #448]	; (8001068 <MTimer_voidInit+0x22c>)
 8000ea6:	2208      	movs	r2, #8
 8000ea8:	629a      	str	r2, [r3, #40]	; 0x28
 8000eaa:	4b6f      	ldr	r3, [pc, #444]	; (8001068 <MTimer_voidInit+0x22c>)
 8000eac:	681b      	ldr	r3, [r3, #0]
 8000eae:	4a6e      	ldr	r2, [pc, #440]	; (8001068 <MTimer_voidInit+0x22c>)
 8000eb0:	f043 0380 	orr.w	r3, r3, #128	; 0x80
 8000eb4:	6013      	str	r3, [r2, #0]
 8000eb6:	4b6c      	ldr	r3, [pc, #432]	; (8001068 <MTimer_voidInit+0x22c>)
 8000eb8:	f64f 72ff 	movw	r2, #65535	; 0xffff
 8000ebc:	62da      	str	r2, [r3, #44]	; 0x2c
 8000ebe:	4b6a      	ldr	r3, [pc, #424]	; (8001068 <MTimer_voidInit+0x22c>)
 8000ec0:	695b      	ldr	r3, [r3, #20]
 8000ec2:	4a69      	ldr	r2, [pc, #420]	; (8001068 <MTimer_voidInit+0x22c>)
 8000ec4:	f043 0301 	orr.w	r3, r3, #1
 8000ec8:	6153      	str	r3, [r2, #20]
 8000eca:	e0c8      	b.n	800105e <MTimer_voidInit+0x222>
 8000ecc:	f04f 4380 	mov.w	r3, #1073741824	; 0x40000000
 8000ed0:	689b      	ldr	r3, [r3, #8]
 8000ed2:	f04f 4280 	mov.w	r2, #1073741824	; 0x40000000
 8000ed6:	f043 0380 	orr.w	r3, r3, #128	; 0x80
 8000eda:	6093      	str	r3, [r2, #8]
 8000edc:	f04f 4380 	mov.w	r3, #1073741824	; 0x40000000
 8000ee0:	681b      	ldr	r3, [r3, #0]
 8000ee2:	f04f 4280 	mov.w	r2, #1073741824	; 0x40000000
 8000ee6:	f023 0310 	bic.w	r3, r3, #16
 8000eea:	6013      	str	r3, [r2, #0]
 8000eec:	f04f 4380 	mov.w	r3, #1073741824	; 0x40000000
 8000ef0:	681b      	ldr	r3, [r3, #0]
 8000ef2:	f04f 4280 	mov.w	r2, #1073741824	; 0x40000000
 8000ef6:	f023 0320 	bic.w	r3, r3, #32
 8000efa:	6013      	str	r3, [r2, #0]
 8000efc:	f04f 4380 	mov.w	r3, #1073741824	; 0x40000000
 8000f00:	681b      	ldr	r3, [r3, #0]
 8000f02:	f04f 4280 	mov.w	r2, #1073741824	; 0x40000000
 8000f06:	f023 0340 	bic.w	r3, r3, #64	; 0x40
 8000f0a:	6013      	str	r3, [r2, #0]
 8000f0c:	f04f 4380 	mov.w	r3, #1073741824	; 0x40000000
 8000f10:	681b      	ldr	r3, [r3, #0]
 8000f12:	f04f 4280 	mov.w	r2, #1073741824	; 0x40000000
 8000f16:	f423 7380 	bic.w	r3, r3, #256	; 0x100
 8000f1a:	6013      	str	r3, [r2, #0]
 8000f1c:	f04f 4380 	mov.w	r3, #1073741824	; 0x40000000
 8000f20:	681b      	ldr	r3, [r3, #0]
 8000f22:	f04f 4280 	mov.w	r2, #1073741824	; 0x40000000
 8000f26:	f423 7300 	bic.w	r3, r3, #512	; 0x200
 8000f2a:	6013      	str	r3, [r2, #0]
 8000f2c:	f04f 4380 	mov.w	r3, #1073741824	; 0x40000000
 8000f30:	2208      	movs	r2, #8
 8000f32:	629a      	str	r2, [r3, #40]	; 0x28
 8000f34:	f04f 4380 	mov.w	r3, #1073741824	; 0x40000000
 8000f38:	681b      	ldr	r3, [r3, #0]
 8000f3a:	f04f 4280 	mov.w	r2, #1073741824	; 0x40000000
 8000f3e:	f043 0380 	orr.w	r3, r3, #128	; 0x80
 8000f42:	6013      	str	r3, [r2, #0]
 8000f44:	f04f 4380 	mov.w	r3, #1073741824	; 0x40000000
 8000f48:	220f      	movs	r2, #15
 8000f4a:	62da      	str	r2, [r3, #44]	; 0x2c
 8000f4c:	f04f 4380 	mov.w	r3, #1073741824	; 0x40000000
 8000f50:	695b      	ldr	r3, [r3, #20]
 8000f52:	f04f 4280 	mov.w	r2, #1073741824	; 0x40000000
 8000f56:	f043 0301 	orr.w	r3, r3, #1
 8000f5a:	6153      	str	r3, [r2, #20]
 8000f5c:	e07f      	b.n	800105e <MTimer_voidInit+0x222>
 8000f5e:	f04f 2340 	mov.w	r3, #1073758208	; 0x40004000
 8000f62:	689b      	ldr	r3, [r3, #8]
 8000f64:	f04f 2240 	mov.w	r2, #1073758208	; 0x40004000
 8000f68:	f043 0380 	orr.w	r3, r3, #128	; 0x80
 8000f6c:	6093      	str	r3, [r2, #8]
 8000f6e:	f04f 2340 	mov.w	r3, #1073758208	; 0x40004000
 8000f72:	681b      	ldr	r3, [r3, #0]
 8000f74:	f04f 2240 	mov.w	r2, #1073758208	; 0x40004000
 8000f78:	f023 0310 	bic.w	r3, r3, #16
 8000f7c:	6013      	str	r3, [r2, #0]
 8000f7e:	f04f 2340 	mov.w	r3, #1073758208	; 0x40004000
 8000f82:	681b      	ldr	r3, [r3, #0]
 8000f84:	f04f 2240 	mov.w	r2, #1073758208	; 0x40004000
 8000f88:	f023 0320 	bic.w	r3, r3, #32
 8000f8c:	6013      	str	r3, [r2, #0]
 8000f8e:	f04f 2340 	mov.w	r3, #1073758208	; 0x40004000
 8000f92:	681b      	ldr	r3, [r3, #0]
 8000f94:	f04f 2240 	mov.w	r2, #1073758208	; 0x40004000
 8000f98:	f023 0340 	bic.w	r3, r3, #64	; 0x40
 8000f9c:	6013      	str	r3, [r2, #0]
 8000f9e:	f04f 2340 	mov.w	r3, #1073758208	; 0x40004000
 8000fa2:	681b      	ldr	r3, [r3, #0]
 8000fa4:	f04f 2240 	mov.w	r2, #1073758208	; 0x40004000
 8000fa8:	f423 7380 	bic.w	r3, r3, #256	; 0x100
 8000fac:	6013      	str	r3, [r2, #0]
 8000fae:	f04f 2340 	mov.w	r3, #1073758208	; 0x40004000
 8000fb2:	681b      	ldr	r3, [r3, #0]
 8000fb4:	f04f 2240 	mov.w	r2, #1073758208	; 0x40004000
 8000fb8:	f423 7300 	bic.w	r3, r3, #512	; 0x200
 8000fbc:	6013      	str	r3, [r2, #0]
 8000fbe:	f04f 2340 	mov.w	r3, #1073758208	; 0x40004000
 8000fc2:	2208      	movs	r2, #8
 8000fc4:	629a      	str	r2, [r3, #40]	; 0x28
 8000fc6:	f04f 2340 	mov.w	r3, #1073758208	; 0x40004000
 8000fca:	681b      	ldr	r3, [r3, #0]
 8000fcc:	f04f 2240 	mov.w	r2, #1073758208	; 0x40004000
 8000fd0:	f043 0380 	orr.w	r3, r3, #128	; 0x80
 8000fd4:	6013      	str	r3, [r2, #0]
 8000fd6:	f04f 2340 	mov.w	r3, #1073758208	; 0x40004000
 8000fda:	220f      	movs	r2, #15
 8000fdc:	62da      	str	r2, [r3, #44]	; 0x2c
 8000fde:	f04f 2340 	mov.w	r3, #1073758208	; 0x40004000
 8000fe2:	695b      	ldr	r3, [r3, #20]
 8000fe4:	f04f 2240 	mov.w	r2, #1073758208	; 0x40004000
 8000fe8:	f043 0301 	orr.w	r3, r3, #1
 8000fec:	6153      	str	r3, [r2, #20]
 8000fee:	e036      	b.n	800105e <MTimer_voidInit+0x222>
 8000ff0:	4b1e      	ldr	r3, [pc, #120]	; (800106c <MTimer_voidInit+0x230>)
 8000ff2:	689b      	ldr	r3, [r3, #8]
 8000ff4:	4a1d      	ldr	r2, [pc, #116]	; (800106c <MTimer_voidInit+0x230>)
 8000ff6:	f043 0380 	orr.w	r3, r3, #128	; 0x80
 8000ffa:	6093      	str	r3, [r2, #8]
 8000ffc:	4b1b      	ldr	r3, [pc, #108]	; (800106c <MTimer_voidInit+0x230>)
 8000ffe:	681b      	ldr	r3, [r3, #0]
 8001000:	4a1a      	ldr	r2, [pc, #104]	; (800106c <MTimer_voidInit+0x230>)
 8001002:	f023 0310 	bic.w	r3, r3, #16
 8001006:	6013      	str	r3, [r2, #0]
 8001008:	4b18      	ldr	r3, [pc, #96]	; (800106c <MTimer_voidInit+0x230>)
 800100a:	681b      	ldr	r3, [r3, #0]
 800100c:	4a17      	ldr	r2, [pc, #92]	; (800106c <MTimer_voidInit+0x230>)
 800100e:	f023 0320 	bic.w	r3, r3, #32
 8001012:	6013      	str	r3, [r2, #0]
 8001014:	4b15      	ldr	r3, [pc, #84]	; (800106c <MTimer_voidInit+0x230>)
 8001016:	681b      	ldr	r3, [r3, #0]
 8001018:	4a14      	ldr	r2, [pc, #80]	; (800106c <MTimer_voidInit+0x230>)
 800101a:	f023 0340 	bic.w	r3, r3, #64	; 0x40
 800101e:	6013      	str	r3, [r2, #0]
 8001020:	4b12      	ldr	r3, [pc, #72]	; (800106c <MTimer_voidInit+0x230>)
 8001022:	681b      	ldr	r3, [r3, #0]
 8001024:	4a11      	ldr	r2, [pc, #68]	; (800106c <MTimer_voidInit+0x230>)
 8001026:	f423 7380 	bic.w	r3, r3, #256	; 0x100
 800102a:	6013      	str	r3, [r2, #0]
 800102c:	4b0f      	ldr	r3, [pc, #60]	; (800106c <MTimer_voidInit+0x230>)
 800102e:	681b      	ldr	r3, [r3, #0]
 8001030:	4a0e      	ldr	r2, [pc, #56]	; (800106c <MTimer_voidInit+0x230>)
 8001032:	f423 7300 	bic.w	r3, r3, #512	; 0x200
 8001036:	6013      	str	r3, [r2, #0]
 8001038:	4b0c      	ldr	r3, [pc, #48]	; (800106c <MTimer_voidInit+0x230>)
 800103a:	2208      	movs	r2, #8
 800103c:	629a      	str	r2, [r3, #40]	; 0x28
 800103e:	4b0b      	ldr	r3, [pc, #44]	; (800106c <MTimer_voidInit+0x230>)
 8001040:	681b      	ldr	r3, [r3, #0]
 8001042:	4a0a      	ldr	r2, [pc, #40]	; (800106c <MTimer_voidInit+0x230>)
 8001044:	f043 0380 	orr.w	r3, r3, #128	; 0x80
 8001048:	6013      	str	r3, [r2, #0]
 800104a:	4b08      	ldr	r3, [pc, #32]	; (800106c <MTimer_voidInit+0x230>)
 800104c:	220f      	movs	r2, #15
 800104e:	62da      	str	r2, [r3, #44]	; 0x2c
 8001050:	4b06      	ldr	r3, [pc, #24]	; (800106c <MTimer_voidInit+0x230>)
 8001052:	695b      	ldr	r3, [r3, #20]
 8001054:	4a05      	ldr	r2, [pc, #20]	; (800106c <MTimer_voidInit+0x230>)
 8001056:	f043 0301 	orr.w	r3, r3, #1
 800105a:	6153      	str	r3, [r2, #20]
 800105c:	bf00      	nop
 800105e:	bf00      	nop
 8001060:	370c      	adds	r7, #12
 8001062:	46bd      	mov	sp, r7
 8001064:	bc80      	pop	{r7}
 8001066:	4770      	bx	lr
 8001068:	40012c00 	.word	0x40012c00
 800106c:	40008000 	.word	0x40008000

08001070 <MTimer_voidPWM>:
 8001070:	b580      	push	{r7, lr}
 8001072:	b0b2      	sub	sp, #200	; 0xc8
 8001074:	af00      	add	r7, sp, #0
 8001076:	4603      	mov	r3, r0
 8001078:	71fb      	strb	r3, [r7, #7]
 800107a:	460b      	mov	r3, r1
 800107c:	71bb      	strb	r3, [r7, #6]
 800107e:	4613      	mov	r3, r2
 8001080:	80bb      	strh	r3, [r7, #4]
 8001082:	79fb      	ldrb	r3, [r7, #7]
 8001084:	2b01      	cmp	r3, #1
 8001086:	f040 81d0 	bne.w	800142a <MTimer_voidPWM+0x3ba>
 800108a:	79bb      	ldrb	r3, [r7, #6]
 800108c:	2b01      	cmp	r3, #1
 800108e:	d178      	bne.n	8001182 <MTimer_voidPWM+0x112>
 8001090:	4b7a      	ldr	r3, [pc, #488]	; (800127c <MTimer_voidPWM+0x20c>)
 8001092:	781b      	ldrb	r3, [r3, #0]
 8001094:	2b00      	cmp	r3, #0
 8001096:	d107      	bne.n	80010a8 <MTimer_voidPWM+0x38>
 8001098:	2209      	movs	r2, #9
 800109a:	2108      	movs	r1, #8
 800109c:	2001      	movs	r0, #1
 800109e:	f7ff faab 	bl	80005f8 <GPIO_voidSetPinMode>
 80010a2:	4b76      	ldr	r3, [pc, #472]	; (800127c <MTimer_voidPWM+0x20c>)
 80010a4:	2201      	movs	r2, #1
 80010a6:	701a      	strb	r2, [r3, #0]
 80010a8:	2300      	movs	r3, #0
 80010aa:	613b      	str	r3, [r7, #16]
 80010ac:	2300      	movs	r3, #0
 80010ae:	60fb      	str	r3, [r7, #12]
 80010b0:	2300      	movs	r3, #0
 80010b2:	60bb      	str	r3, [r7, #8]
 80010b4:	4b72      	ldr	r3, [pc, #456]	; (8001280 <MTimer_voidPWM+0x210>)
 80010b6:	6a1b      	ldr	r3, [r3, #32]
 80010b8:	4a71      	ldr	r2, [pc, #452]	; (8001280 <MTimer_voidPWM+0x210>)
 80010ba:	f023 0301 	bic.w	r3, r3, #1
 80010be:	6213      	str	r3, [r2, #32]
 80010c0:	4b6f      	ldr	r3, [pc, #444]	; (8001280 <MTimer_voidPWM+0x210>)
 80010c2:	6a1b      	ldr	r3, [r3, #32]
 80010c4:	613b      	str	r3, [r7, #16]
 80010c6:	4b6e      	ldr	r3, [pc, #440]	; (8001280 <MTimer_voidPWM+0x210>)
 80010c8:	685b      	ldr	r3, [r3, #4]
 80010ca:	60bb      	str	r3, [r7, #8]
 80010cc:	4b6c      	ldr	r3, [pc, #432]	; (8001280 <MTimer_voidPWM+0x210>)
 80010ce:	699b      	ldr	r3, [r3, #24]
 80010d0:	613b      	str	r3, [r7, #16]
 80010d2:	693b      	ldr	r3, [r7, #16]
 80010d4:	f023 0310 	bic.w	r3, r3, #16
 80010d8:	613b      	str	r3, [r7, #16]
 80010da:	693b      	ldr	r3, [r7, #16]
 80010dc:	f023 0320 	bic.w	r3, r3, #32
 80010e0:	613b      	str	r3, [r7, #16]
 80010e2:	693b      	ldr	r3, [r7, #16]
 80010e4:	f023 0340 	bic.w	r3, r3, #64	; 0x40
 80010e8:	613b      	str	r3, [r7, #16]
 80010ea:	693b      	ldr	r3, [r7, #16]
 80010ec:	f023 0301 	bic.w	r3, r3, #1
 80010f0:	613b      	str	r3, [r7, #16]
 80010f2:	693b      	ldr	r3, [r7, #16]
 80010f4:	f023 0302 	bic.w	r3, r3, #2
 80010f8:	613b      	str	r3, [r7, #16]
 80010fa:	693b      	ldr	r3, [r7, #16]
 80010fc:	f043 0360 	orr.w	r3, r3, #96	; 0x60
 8001100:	613b      	str	r3, [r7, #16]
 8001102:	68fb      	ldr	r3, [r7, #12]
 8001104:	f023 0302 	bic.w	r3, r3, #2
 8001108:	60fb      	str	r3, [r7, #12]
 800110a:	68fb      	ldr	r3, [r7, #12]
 800110c:	f023 0308 	bic.w	r3, r3, #8
 8001110:	60fb      	str	r3, [r7, #12]
 8001112:	68fb      	ldr	r3, [r7, #12]
 8001114:	f023 0304 	bic.w	r3, r3, #4
 8001118:	60fb      	str	r3, [r7, #12]
 800111a:	68bb      	ldr	r3, [r7, #8]
 800111c:	f423 7300 	bic.w	r3, r3, #512	; 0x200
 8001120:	60bb      	str	r3, [r7, #8]
 8001122:	68bb      	ldr	r3, [r7, #8]
 8001124:	f423 7300 	bic.w	r3, r3, #512	; 0x200
 8001128:	60bb      	str	r3, [r7, #8]
 800112a:	4a55      	ldr	r2, [pc, #340]	; (8001280 <MTimer_voidPWM+0x210>)
 800112c:	68bb      	ldr	r3, [r7, #8]
 800112e:	6053      	str	r3, [r2, #4]
 8001130:	4a53      	ldr	r2, [pc, #332]	; (8001280 <MTimer_voidPWM+0x210>)
 8001132:	693b      	ldr	r3, [r7, #16]
 8001134:	6193      	str	r3, [r2, #24]
 8001136:	4a52      	ldr	r2, [pc, #328]	; (8001280 <MTimer_voidPWM+0x210>)
 8001138:	88bb      	ldrh	r3, [r7, #4]
 800113a:	6353      	str	r3, [r2, #52]	; 0x34
 800113c:	4a50      	ldr	r2, [pc, #320]	; (8001280 <MTimer_voidPWM+0x210>)
 800113e:	68fb      	ldr	r3, [r7, #12]
 8001140:	6213      	str	r3, [r2, #32]
 8001142:	4b4f      	ldr	r3, [pc, #316]	; (8001280 <MTimer_voidPWM+0x210>)
 8001144:	699b      	ldr	r3, [r3, #24]
 8001146:	4a4e      	ldr	r2, [pc, #312]	; (8001280 <MTimer_voidPWM+0x210>)
 8001148:	f043 0308 	orr.w	r3, r3, #8
 800114c:	6193      	str	r3, [r2, #24]
 800114e:	4b4c      	ldr	r3, [pc, #304]	; (8001280 <MTimer_voidPWM+0x210>)
 8001150:	699b      	ldr	r3, [r3, #24]
 8001152:	4a4b      	ldr	r2, [pc, #300]	; (8001280 <MTimer_voidPWM+0x210>)
 8001154:	f043 0304 	orr.w	r3, r3, #4
 8001158:	6193      	str	r3, [r2, #24]
 800115a:	4b49      	ldr	r3, [pc, #292]	; (8001280 <MTimer_voidPWM+0x210>)
 800115c:	6a1b      	ldr	r3, [r3, #32]
 800115e:	4a48      	ldr	r2, [pc, #288]	; (8001280 <MTimer_voidPWM+0x210>)
 8001160:	f043 0301 	orr.w	r3, r3, #1
 8001164:	6213      	str	r3, [r2, #32]
 8001166:	4b46      	ldr	r3, [pc, #280]	; (8001280 <MTimer_voidPWM+0x210>)
 8001168:	6c5b      	ldr	r3, [r3, #68]	; 0x44
 800116a:	4a45      	ldr	r2, [pc, #276]	; (8001280 <MTimer_voidPWM+0x210>)
 800116c:	f443 4300 	orr.w	r3, r3, #32768	; 0x8000
 8001170:	6453      	str	r3, [r2, #68]	; 0x44
 8001172:	4b43      	ldr	r3, [pc, #268]	; (8001280 <MTimer_voidPWM+0x210>)
 8001174:	681b      	ldr	r3, [r3, #0]
 8001176:	4a42      	ldr	r2, [pc, #264]	; (8001280 <MTimer_voidPWM+0x210>)
 8001178:	f043 0301 	orr.w	r3, r3, #1
 800117c:	6013      	str	r3, [r2, #0]
 800117e:	f000 be96 	b.w	8001eae <MTimer_voidPWM+0xe3e>
 8001182:	79bb      	ldrb	r3, [r7, #6]
 8001184:	2b02      	cmp	r3, #2
 8001186:	d17f      	bne.n	8001288 <MTimer_voidPWM+0x218>
 8001188:	4b3e      	ldr	r3, [pc, #248]	; (8001284 <MTimer_voidPWM+0x214>)
 800118a:	781b      	ldrb	r3, [r3, #0]
 800118c:	2b00      	cmp	r3, #0
 800118e:	d107      	bne.n	80011a0 <MTimer_voidPWM+0x130>
 8001190:	2209      	movs	r2, #9
 8001192:	2109      	movs	r1, #9
 8001194:	2001      	movs	r0, #1
 8001196:	f7ff fa2f 	bl	80005f8 <GPIO_voidSetPinMode>
 800119a:	4b3a      	ldr	r3, [pc, #232]	; (8001284 <MTimer_voidPWM+0x214>)
 800119c:	2201      	movs	r2, #1
 800119e:	701a      	strb	r2, [r3, #0]
 80011a0:	2300      	movs	r3, #0
 80011a2:	61fb      	str	r3, [r7, #28]
 80011a4:	2300      	movs	r3, #0
 80011a6:	61bb      	str	r3, [r7, #24]
 80011a8:	2300      	movs	r3, #0
 80011aa:	617b      	str	r3, [r7, #20]
 80011ac:	4b34      	ldr	r3, [pc, #208]	; (8001280 <MTimer_voidPWM+0x210>)
 80011ae:	6a1b      	ldr	r3, [r3, #32]
 80011b0:	4a33      	ldr	r2, [pc, #204]	; (8001280 <MTimer_voidPWM+0x210>)
 80011b2:	f023 0310 	bic.w	r3, r3, #16
 80011b6:	6213      	str	r3, [r2, #32]
 80011b8:	4b31      	ldr	r3, [pc, #196]	; (8001280 <MTimer_voidPWM+0x210>)
 80011ba:	6a1b      	ldr	r3, [r3, #32]
 80011bc:	61bb      	str	r3, [r7, #24]
 80011be:	4b30      	ldr	r3, [pc, #192]	; (8001280 <MTimer_voidPWM+0x210>)
 80011c0:	685b      	ldr	r3, [r3, #4]
 80011c2:	617b      	str	r3, [r7, #20]
 80011c4:	4b2e      	ldr	r3, [pc, #184]	; (8001280 <MTimer_voidPWM+0x210>)
 80011c6:	699b      	ldr	r3, [r3, #24]
 80011c8:	61fb      	str	r3, [r7, #28]
 80011ca:	69fb      	ldr	r3, [r7, #28]
 80011cc:	f423 5380 	bic.w	r3, r3, #4096	; 0x1000
 80011d0:	61fb      	str	r3, [r7, #28]
 80011d2:	69fb      	ldr	r3, [r7, #28]
 80011d4:	f423 5300 	bic.w	r3, r3, #8192	; 0x2000
 80011d8:	61fb      	str	r3, [r7, #28]
 80011da:	69fb      	ldr	r3, [r7, #28]
 80011dc:	f423 7380 	bic.w	r3, r3, #256	; 0x100
 80011e0:	61fb      	str	r3, [r7, #28]
 80011e2:	69fb      	ldr	r3, [r7, #28]
 80011e4:	f423 7300 	bic.w	r3, r3, #512	; 0x200
 80011e8:	61fb      	str	r3, [r7, #28]
 80011ea:	69fb      	ldr	r3, [r7, #28]
 80011ec:	f443 43c0 	orr.w	r3, r3, #24576	; 0x6000
 80011f0:	61fb      	str	r3, [r7, #28]
 80011f2:	69bb      	ldr	r3, [r7, #24]
 80011f4:	f023 0320 	bic.w	r3, r3, #32
 80011f8:	61bb      	str	r3, [r7, #24]
 80011fa:	69bb      	ldr	r3, [r7, #24]
 80011fc:	f023 0380 	bic.w	r3, r3, #128	; 0x80
 8001200:	61bb      	str	r3, [r7, #24]
 8001202:	69bb      	ldr	r3, [r7, #24]
 8001204:	f023 0380 	bic.w	r3, r3, #128	; 0x80
 8001208:	61bb      	str	r3, [r7, #24]
 800120a:	69bb      	ldr	r3, [r7, #24]
 800120c:	f023 0340 	bic.w	r3, r3, #64	; 0x40
 8001210:	61bb      	str	r3, [r7, #24]
 8001212:	697b      	ldr	r3, [r7, #20]
 8001214:	f423 6380 	bic.w	r3, r3, #1024	; 0x400
 8001218:	617b      	str	r3, [r7, #20]
 800121a:	697b      	ldr	r3, [r7, #20]
 800121c:	f423 6300 	bic.w	r3, r3, #2048	; 0x800
 8001220:	617b      	str	r3, [r7, #20]
 8001222:	4a17      	ldr	r2, [pc, #92]	; (8001280 <MTimer_voidPWM+0x210>)
 8001224:	697b      	ldr	r3, [r7, #20]
 8001226:	6053      	str	r3, [r2, #4]
 8001228:	4a15      	ldr	r2, [pc, #84]	; (8001280 <MTimer_voidPWM+0x210>)
 800122a:	69fb      	ldr	r3, [r7, #28]
 800122c:	6193      	str	r3, [r2, #24]
 800122e:	4a14      	ldr	r2, [pc, #80]	; (8001280 <MTimer_voidPWM+0x210>)
 8001230:	88bb      	ldrh	r3, [r7, #4]
 8001232:	6393      	str	r3, [r2, #56]	; 0x38
 8001234:	4a12      	ldr	r2, [pc, #72]	; (8001280 <MTimer_voidPWM+0x210>)
 8001236:	69bb      	ldr	r3, [r7, #24]
 8001238:	6213      	str	r3, [r2, #32]
 800123a:	4b11      	ldr	r3, [pc, #68]	; (8001280 <MTimer_voidPWM+0x210>)
 800123c:	699b      	ldr	r3, [r3, #24]
 800123e:	4a10      	ldr	r2, [pc, #64]	; (8001280 <MTimer_voidPWM+0x210>)
 8001240:	f443 6300 	orr.w	r3, r3, #2048	; 0x800
 8001244:	6193      	str	r3, [r2, #24]
 8001246:	4b0e      	ldr	r3, [pc, #56]	; (8001280 <MTimer_voidPWM+0x210>)
 8001248:	699b      	ldr	r3, [r3, #24]
 800124a:	4a0d      	ldr	r2, [pc, #52]	; (8001280 <MTimer_voidPWM+0x210>)
 800124c:	f443 6380 	orr.w	r3, r3, #1024	; 0x400
 8001250:	6193      	str	r3, [r2, #24]
 8001252:	4b0b      	ldr	r3, [pc, #44]	; (8001280 <MTimer_voidPWM+0x210>)
 8001254:	6a1b      	ldr	r3, [r3, #32]
 8001256:	4a0a      	ldr	r2, [pc, #40]	; (8001280 <MTimer_voidPWM+0x210>)
 8001258:	f043 0310 	orr.w	r3, r3, #16
 800125c:	6213      	str	r3, [r2, #32]
 800125e:	4b08      	ldr	r3, [pc, #32]	; (8001280 <MTimer_voidPWM+0x210>)
 8001260:	6c5b      	ldr	r3, [r3, #68]	; 0x44
 8001262:	4a07      	ldr	r2, [pc, #28]	; (8001280 <MTimer_voidPWM+0x210>)
 8001264:	f443 4300 	orr.w	r3, r3, #32768	; 0x8000
 8001268:	6453      	str	r3, [r2, #68]	; 0x44
 800126a:	4b05      	ldr	r3, [pc, #20]	; (8001280 <MTimer_voidPWM+0x210>)
 800126c:	681b      	ldr	r3, [r3, #0]
 800126e:	4a04      	ldr	r2, [pc, #16]	; (8001280 <MTimer_voidPWM+0x210>)
 8001270:	f043 0301 	orr.w	r3, r3, #1
 8001274:	6013      	str	r3, [r2, #0]
 8001276:	f000 be1a 	b.w	8001eae <MTimer_voidPWM+0xe3e>
 800127a:	bf00      	nop
 800127c:	200000f5 	.word	0x200000f5
 8001280:	40012c00 	.word	0x40012c00
 8001284:	200000f6 	.word	0x200000f6
 8001288:	79bb      	ldrb	r3, [r7, #6]
 800128a:	2b03      	cmp	r3, #3
 800128c:	d16c      	bne.n	8001368 <MTimer_voidPWM+0x2f8>
 800128e:	2300      	movs	r3, #0
 8001290:	62bb      	str	r3, [r7, #40]	; 0x28
 8001292:	2300      	movs	r3, #0
 8001294:	627b      	str	r3, [r7, #36]	; 0x24
 8001296:	2300      	movs	r3, #0
 8001298:	623b      	str	r3, [r7, #32]
 800129a:	4b9b      	ldr	r3, [pc, #620]	; (8001508 <MTimer_voidPWM+0x498>)
 800129c:	6a1b      	ldr	r3, [r3, #32]
 800129e:	4a9a      	ldr	r2, [pc, #616]	; (8001508 <MTimer_voidPWM+0x498>)
 80012a0:	f423 7380 	bic.w	r3, r3, #256	; 0x100
 80012a4:	6213      	str	r3, [r2, #32]
 80012a6:	4b98      	ldr	r3, [pc, #608]	; (8001508 <MTimer_voidPWM+0x498>)
 80012a8:	6a1b      	ldr	r3, [r3, #32]
 80012aa:	627b      	str	r3, [r7, #36]	; 0x24
 80012ac:	4b96      	ldr	r3, [pc, #600]	; (8001508 <MTimer_voidPWM+0x498>)
 80012ae:	685b      	ldr	r3, [r3, #4]
 80012b0:	623b      	str	r3, [r7, #32]
 80012b2:	4b95      	ldr	r3, [pc, #596]	; (8001508 <MTimer_voidPWM+0x498>)
 80012b4:	69db      	ldr	r3, [r3, #28]
 80012b6:	62bb      	str	r3, [r7, #40]	; 0x28
 80012b8:	6abb      	ldr	r3, [r7, #40]	; 0x28
 80012ba:	f023 0310 	bic.w	r3, r3, #16
 80012be:	62bb      	str	r3, [r7, #40]	; 0x28
 80012c0:	6abb      	ldr	r3, [r7, #40]	; 0x28
 80012c2:	f023 0320 	bic.w	r3, r3, #32
 80012c6:	62bb      	str	r3, [r7, #40]	; 0x28
 80012c8:	6abb      	ldr	r3, [r7, #40]	; 0x28
 80012ca:	f023 0301 	bic.w	r3, r3, #1
 80012ce:	62bb      	str	r3, [r7, #40]	; 0x28
 80012d0:	6abb      	ldr	r3, [r7, #40]	; 0x28
 80012d2:	f023 0302 	bic.w	r3, r3, #2
 80012d6:	62bb      	str	r3, [r7, #40]	; 0x28
 80012d8:	6abb      	ldr	r3, [r7, #40]	; 0x28
 80012da:	f043 0360 	orr.w	r3, r3, #96	; 0x60
 80012de:	62bb      	str	r3, [r7, #40]	; 0x28
 80012e0:	6a7b      	ldr	r3, [r7, #36]	; 0x24
 80012e2:	f423 7300 	bic.w	r3, r3, #512	; 0x200
 80012e6:	627b      	str	r3, [r7, #36]	; 0x24
 80012e8:	6a7b      	ldr	r3, [r7, #36]	; 0x24
 80012ea:	f423 6300 	bic.w	r3, r3, #2048	; 0x800
 80012ee:	627b      	str	r3, [r7, #36]	; 0x24
 80012f0:	6a7b      	ldr	r3, [r7, #36]	; 0x24
 80012f2:	f423 6300 	bic.w	r3, r3, #2048	; 0x800
 80012f6:	627b      	str	r3, [r7, #36]	; 0x24
 80012f8:	6a7b      	ldr	r3, [r7, #36]	; 0x24
 80012fa:	f423 6380 	bic.w	r3, r3, #1024	; 0x400
 80012fe:	627b      	str	r3, [r7, #36]	; 0x24
 8001300:	6a3b      	ldr	r3, [r7, #32]
 8001302:	f423 5380 	bic.w	r3, r3, #4096	; 0x1000
 8001306:	623b      	str	r3, [r7, #32]
 8001308:	6a3b      	ldr	r3, [r7, #32]
 800130a:	f423 5300 	bic.w	r3, r3, #8192	; 0x2000
 800130e:	623b      	str	r3, [r7, #32]
 8001310:	4a7d      	ldr	r2, [pc, #500]	; (8001508 <MTimer_voidPWM+0x498>)
 8001312:	6a3b      	ldr	r3, [r7, #32]
 8001314:	6053      	str	r3, [r2, #4]
 8001316:	4a7c      	ldr	r2, [pc, #496]	; (8001508 <MTimer_voidPWM+0x498>)
 8001318:	6abb      	ldr	r3, [r7, #40]	; 0x28
 800131a:	61d3      	str	r3, [r2, #28]
 800131c:	4a7a      	ldr	r2, [pc, #488]	; (8001508 <MTimer_voidPWM+0x498>)
 800131e:	88bb      	ldrh	r3, [r7, #4]
 8001320:	63d3      	str	r3, [r2, #60]	; 0x3c
 8001322:	4a79      	ldr	r2, [pc, #484]	; (8001508 <MTimer_voidPWM+0x498>)
 8001324:	6a7b      	ldr	r3, [r7, #36]	; 0x24
 8001326:	6213      	str	r3, [r2, #32]
 8001328:	4b77      	ldr	r3, [pc, #476]	; (8001508 <MTimer_voidPWM+0x498>)
 800132a:	69db      	ldr	r3, [r3, #28]
 800132c:	4a76      	ldr	r2, [pc, #472]	; (8001508 <MTimer_voidPWM+0x498>)
 800132e:	f043 0308 	orr.w	r3, r3, #8
 8001332:	61d3      	str	r3, [r2, #28]
 8001334:	4b74      	ldr	r3, [pc, #464]	; (8001508 <MTimer_voidPWM+0x498>)
 8001336:	69db      	ldr	r3, [r3, #28]
 8001338:	4a73      	ldr	r2, [pc, #460]	; (8001508 <MTimer_voidPWM+0x498>)
 800133a:	f043 0304 	orr.w	r3, r3, #4
 800133e:	61d3      	str	r3, [r2, #28]
 8001340:	4b71      	ldr	r3, [pc, #452]	; (8001508 <MTimer_voidPWM+0x498>)
 8001342:	6a1b      	ldr	r3, [r3, #32]
 8001344:	4a70      	ldr	r2, [pc, #448]	; (8001508 <MTimer_voidPWM+0x498>)
 8001346:	f443 7380 	orr.w	r3, r3, #256	; 0x100
 800134a:	6213      	str	r3, [r2, #32]
 800134c:	4b6e      	ldr	r3, [pc, #440]	; (8001508 <MTimer_voidPWM+0x498>)
 800134e:	6c5b      	ldr	r3, [r3, #68]	; 0x44
 8001350:	4a6d      	ldr	r2, [pc, #436]	; (8001508 <MTimer_voidPWM+0x498>)
 8001352:	f443 4300 	orr.w	r3, r3, #32768	; 0x8000
 8001356:	6453      	str	r3, [r2, #68]	; 0x44
 8001358:	4b6b      	ldr	r3, [pc, #428]	; (8001508 <MTimer_voidPWM+0x498>)
 800135a:	681b      	ldr	r3, [r3, #0]
 800135c:	4a6a      	ldr	r2, [pc, #424]	; (8001508 <MTimer_voidPWM+0x498>)
 800135e:	f043 0301 	orr.w	r3, r3, #1
 8001362:	6013      	str	r3, [r2, #0]
 8001364:	f000 bda3 	b.w	8001eae <MTimer_voidPWM+0xe3e>
 8001368:	79bb      	ldrb	r3, [r7, #6]
 800136a:	2b04      	cmp	r3, #4
 800136c:	f040 859f 	bne.w	8001eae <MTimer_voidPWM+0xe3e>
 8001370:	2300      	movs	r3, #0
 8001372:	637b      	str	r3, [r7, #52]	; 0x34
 8001374:	2300      	movs	r3, #0
 8001376:	633b      	str	r3, [r7, #48]	; 0x30
 8001378:	2300      	movs	r3, #0
 800137a:	62fb      	str	r3, [r7, #44]	; 0x2c
 800137c:	4b62      	ldr	r3, [pc, #392]	; (8001508 <MTimer_voidPWM+0x498>)
 800137e:	6a1b      	ldr	r3, [r3, #32]
 8001380:	4a61      	ldr	r2, [pc, #388]	; (8001508 <MTimer_voidPWM+0x498>)
 8001382:	f423 5380 	bic.w	r3, r3, #4096	; 0x1000
 8001386:	6213      	str	r3, [r2, #32]
 8001388:	4b5f      	ldr	r3, [pc, #380]	; (8001508 <MTimer_voidPWM+0x498>)
 800138a:	6a1b      	ldr	r3, [r3, #32]
 800138c:	633b      	str	r3, [r7, #48]	; 0x30
 800138e:	4b5e      	ldr	r3, [pc, #376]	; (8001508 <MTimer_voidPWM+0x498>)
 8001390:	685b      	ldr	r3, [r3, #4]
 8001392:	62fb      	str	r3, [r7, #44]	; 0x2c
 8001394:	4b5c      	ldr	r3, [pc, #368]	; (8001508 <MTimer_voidPWM+0x498>)
 8001396:	69db      	ldr	r3, [r3, #28]
 8001398:	637b      	str	r3, [r7, #52]	; 0x34
 800139a:	6b7b      	ldr	r3, [r7, #52]	; 0x34
 800139c:	f423 5380 	bic.w	r3, r3, #4096	; 0x1000
 80013a0:	637b      	str	r3, [r7, #52]	; 0x34
 80013a2:	6b7b      	ldr	r3, [r7, #52]	; 0x34
 80013a4:	f423 5300 	bic.w	r3, r3, #8192	; 0x2000
 80013a8:	637b      	str	r3, [r7, #52]	; 0x34
 80013aa:	6b7b      	ldr	r3, [r7, #52]	; 0x34
 80013ac:	f423 7380 	bic.w	r3, r3, #256	; 0x100
 80013b0:	637b      	str	r3, [r7, #52]	; 0x34
 80013b2:	6b7b      	ldr	r3, [r7, #52]	; 0x34
 80013b4:	f423 7300 	bic.w	r3, r3, #512	; 0x200
 80013b8:	637b      	str	r3, [r7, #52]	; 0x34
 80013ba:	6b7b      	ldr	r3, [r7, #52]	; 0x34
 80013bc:	f443 43c0 	orr.w	r3, r3, #24576	; 0x6000
 80013c0:	637b      	str	r3, [r7, #52]	; 0x34
 80013c2:	6b3b      	ldr	r3, [r7, #48]	; 0x30
 80013c4:	f423 5300 	bic.w	r3, r3, #8192	; 0x2000
 80013c8:	633b      	str	r3, [r7, #48]	; 0x30
 80013ca:	6afb      	ldr	r3, [r7, #44]	; 0x2c
 80013cc:	f423 4380 	bic.w	r3, r3, #16384	; 0x4000
 80013d0:	62fb      	str	r3, [r7, #44]	; 0x2c
 80013d2:	4a4d      	ldr	r2, [pc, #308]	; (8001508 <MTimer_voidPWM+0x498>)
 80013d4:	6afb      	ldr	r3, [r7, #44]	; 0x2c
 80013d6:	6053      	str	r3, [r2, #4]
 80013d8:	4a4b      	ldr	r2, [pc, #300]	; (8001508 <MTimer_voidPWM+0x498>)
 80013da:	6b7b      	ldr	r3, [r7, #52]	; 0x34
 80013dc:	61d3      	str	r3, [r2, #28]
 80013de:	4a4a      	ldr	r2, [pc, #296]	; (8001508 <MTimer_voidPWM+0x498>)
 80013e0:	88bb      	ldrh	r3, [r7, #4]
 80013e2:	6413      	str	r3, [r2, #64]	; 0x40
 80013e4:	4a48      	ldr	r2, [pc, #288]	; (8001508 <MTimer_voidPWM+0x498>)
 80013e6:	6b3b      	ldr	r3, [r7, #48]	; 0x30
 80013e8:	6213      	str	r3, [r2, #32]
 80013ea:	4b47      	ldr	r3, [pc, #284]	; (8001508 <MTimer_voidPWM+0x498>)
 80013ec:	69db      	ldr	r3, [r3, #28]
 80013ee:	4a46      	ldr	r2, [pc, #280]	; (8001508 <MTimer_voidPWM+0x498>)
 80013f0:	f443 6300 	orr.w	r3, r3, #2048	; 0x800
 80013f4:	61d3      	str	r3, [r2, #28]
 80013f6:	4b44      	ldr	r3, [pc, #272]	; (8001508 <MTimer_voidPWM+0x498>)
 80013f8:	69db      	ldr	r3, [r3, #28]
 80013fa:	4a43      	ldr	r2, [pc, #268]	; (8001508 <MTimer_voidPWM+0x498>)
 80013fc:	f443 6380 	orr.w	r3, r3, #1024	; 0x400
 8001400:	61d3      	str	r3, [r2, #28]
 8001402:	4b41      	ldr	r3, [pc, #260]	; (8001508 <MTimer_voidPWM+0x498>)
 8001404:	6a1b      	ldr	r3, [r3, #32]
 8001406:	4a40      	ldr	r2, [pc, #256]	; (8001508 <MTimer_voidPWM+0x498>)
 8001408:	f443 5380 	orr.w	r3, r3, #4096	; 0x1000
 800140c:	6213      	str	r3, [r2, #32]
 800140e:	4b3e      	ldr	r3, [pc, #248]	; (8001508 <MTimer_voidPWM+0x498>)
 8001410:	6c5b      	ldr	r3, [r3, #68]	; 0x44
 8001412:	4a3d      	ldr	r2, [pc, #244]	; (8001508 <MTimer_voidPWM+0x498>)
 8001414:	f443 4300 	orr.w	r3, r3, #32768	; 0x8000
 8001418:	6453      	str	r3, [r2, #68]	; 0x44
 800141a:	4b3b      	ldr	r3, [pc, #236]	; (8001508 <MTimer_voidPWM+0x498>)
 800141c:	681b      	ldr	r3, [r3, #0]
 800141e:	4a3a      	ldr	r2, [pc, #232]	; (8001508 <MTimer_voidPWM+0x498>)
 8001420:	f043 0301 	orr.w	r3, r3, #1
 8001424:	6013      	str	r3, [r2, #0]
 8001426:	f000 bd42 	b.w	8001eae <MTimer_voidPWM+0xe3e>
 800142a:	79fb      	ldrb	r3, [r7, #7]
 800142c:	2b02      	cmp	r3, #2
 800142e:	f040 81a9 	bne.w	8001784 <MTimer_voidPWM+0x714>
 8001432:	79bb      	ldrb	r3, [r7, #6]
 8001434:	2b01      	cmp	r3, #1
 8001436:	d169      	bne.n	800150c <MTimer_voidPWM+0x49c>
 8001438:	2300      	movs	r3, #0
 800143a:	643b      	str	r3, [r7, #64]	; 0x40
 800143c:	2300      	movs	r3, #0
 800143e:	63fb      	str	r3, [r7, #60]	; 0x3c
 8001440:	2300      	movs	r3, #0
 8001442:	63bb      	str	r3, [r7, #56]	; 0x38
 8001444:	f04f 4380 	mov.w	r3, #1073741824	; 0x40000000
 8001448:	6a1b      	ldr	r3, [r3, #32]
 800144a:	f04f 4280 	mov.w	r2, #1073741824	; 0x40000000
 800144e:	f023 0301 	bic.w	r3, r3, #1
 8001452:	6213      	str	r3, [r2, #32]
 8001454:	f04f 4380 	mov.w	r3, #1073741824	; 0x40000000
 8001458:	6a1b      	ldr	r3, [r3, #32]
 800145a:	643b      	str	r3, [r7, #64]	; 0x40
 800145c:	f04f 4380 	mov.w	r3, #1073741824	; 0x40000000
 8001460:	685b      	ldr	r3, [r3, #4]
 8001462:	63bb      	str	r3, [r7, #56]	; 0x38
 8001464:	f04f 4380 	mov.w	r3, #1073741824	; 0x40000000
 8001468:	699b      	ldr	r3, [r3, #24]
 800146a:	643b      	str	r3, [r7, #64]	; 0x40
 800146c:	6c3b      	ldr	r3, [r7, #64]	; 0x40
 800146e:	f023 0310 	bic.w	r3, r3, #16
 8001472:	643b      	str	r3, [r7, #64]	; 0x40
 8001474:	6c3b      	ldr	r3, [r7, #64]	; 0x40
 8001476:	f023 0320 	bic.w	r3, r3, #32
 800147a:	643b      	str	r3, [r7, #64]	; 0x40
 800147c:	6c3b      	ldr	r3, [r7, #64]	; 0x40
 800147e:	f023 0340 	bic.w	r3, r3, #64	; 0x40
 8001482:	643b      	str	r3, [r7, #64]	; 0x40
 8001484:	6c3b      	ldr	r3, [r7, #64]	; 0x40
 8001486:	f023 0301 	bic.w	r3, r3, #1
 800148a:	643b      	str	r3, [r7, #64]	; 0x40
 800148c:	6c3b      	ldr	r3, [r7, #64]	; 0x40
 800148e:	f023 0302 	bic.w	r3, r3, #2
 8001492:	643b      	str	r3, [r7, #64]	; 0x40
 8001494:	6c3b      	ldr	r3, [r7, #64]	; 0x40
 8001496:	f043 0360 	orr.w	r3, r3, #96	; 0x60
 800149a:	643b      	str	r3, [r7, #64]	; 0x40
 800149c:	6bfb      	ldr	r3, [r7, #60]	; 0x3c
 800149e:	f023 0302 	bic.w	r3, r3, #2
 80014a2:	63fb      	str	r3, [r7, #60]	; 0x3c
 80014a4:	f04f 4280 	mov.w	r2, #1073741824	; 0x40000000
 80014a8:	6bbb      	ldr	r3, [r7, #56]	; 0x38
 80014aa:	6053      	str	r3, [r2, #4]
 80014ac:	f04f 4280 	mov.w	r2, #1073741824	; 0x40000000
 80014b0:	6c3b      	ldr	r3, [r7, #64]	; 0x40
 80014b2:	6193      	str	r3, [r2, #24]
 80014b4:	f04f 4280 	mov.w	r2, #1073741824	; 0x40000000
 80014b8:	88bb      	ldrh	r3, [r7, #4]
 80014ba:	6353      	str	r3, [r2, #52]	; 0x34
 80014bc:	f04f 4280 	mov.w	r2, #1073741824	; 0x40000000
 80014c0:	6bfb      	ldr	r3, [r7, #60]	; 0x3c
 80014c2:	6213      	str	r3, [r2, #32]
 80014c4:	f04f 4380 	mov.w	r3, #1073741824	; 0x40000000
 80014c8:	699b      	ldr	r3, [r3, #24]
 80014ca:	f04f 4280 	mov.w	r2, #1073741824	; 0x40000000
 80014ce:	f043 0308 	orr.w	r3, r3, #8
 80014d2:	6193      	str	r3, [r2, #24]
 80014d4:	f04f 4380 	mov.w	r3, #1073741824	; 0x40000000
 80014d8:	699b      	ldr	r3, [r3, #24]
 80014da:	f04f 4280 	mov.w	r2, #1073741824	; 0x40000000
 80014de:	f043 0304 	orr.w	r3, r3, #4
 80014e2:	6193      	str	r3, [r2, #24]
 80014e4:	f04f 4380 	mov.w	r3, #1073741824	; 0x40000000
 80014e8:	6a1b      	ldr	r3, [r3, #32]
 80014ea:	f04f 4280 	mov.w	r2, #1073741824	; 0x40000000
 80014ee:	f043 0301 	orr.w	r3, r3, #1
 80014f2:	6213      	str	r3, [r2, #32]
 80014f4:	f04f 4380 	mov.w	r3, #1073741824	; 0x40000000
 80014f8:	681b      	ldr	r3, [r3, #0]
 80014fa:	f04f 4280 	mov.w	r2, #1073741824	; 0x40000000
 80014fe:	f043 0301 	orr.w	r3, r3, #1
 8001502:	6013      	str	r3, [r2, #0]
 8001504:	f000 bcd3 	b.w	8001eae <MTimer_voidPWM+0xe3e>
 8001508:	40012c00 	.word	0x40012c00
 800150c:	79bb      	ldrb	r3, [r7, #6]
 800150e:	2b02      	cmp	r3, #2
 8001510:	d167      	bne.n	80015e2 <MTimer_voidPWM+0x572>
 8001512:	2300      	movs	r3, #0
 8001514:	64fb      	str	r3, [r7, #76]	; 0x4c
 8001516:	2300      	movs	r3, #0
 8001518:	64bb      	str	r3, [r7, #72]	; 0x48
 800151a:	2300      	movs	r3, #0
 800151c:	647b      	str	r3, [r7, #68]	; 0x44
 800151e:	f04f 4380 	mov.w	r3, #1073741824	; 0x40000000
 8001522:	6a1b      	ldr	r3, [r3, #32]
 8001524:	f04f 4280 	mov.w	r2, #1073741824	; 0x40000000
 8001528:	f023 0310 	bic.w	r3, r3, #16
 800152c:	6213      	str	r3, [r2, #32]
 800152e:	f04f 4380 	mov.w	r3, #1073741824	; 0x40000000
 8001532:	6a1b      	ldr	r3, [r3, #32]
 8001534:	64bb      	str	r3, [r7, #72]	; 0x48
 8001536:	f04f 4380 	mov.w	r3, #1073741824	; 0x40000000
 800153a:	685b      	ldr	r3, [r3, #4]
 800153c:	647b      	str	r3, [r7, #68]	; 0x44
 800153e:	f04f 4380 	mov.w	r3, #1073741824	; 0x40000000
 8001542:	699b      	ldr	r3, [r3, #24]
 8001544:	64fb      	str	r3, [r7, #76]	; 0x4c
 8001546:	6cfb      	ldr	r3, [r7, #76]	; 0x4c
 8001548:	f423 5380 	bic.w	r3, r3, #4096	; 0x1000
 800154c:	64fb      	str	r3, [r7, #76]	; 0x4c
 800154e:	6cfb      	ldr	r3, [r7, #76]	; 0x4c
 8001550:	f423 5300 	bic.w	r3, r3, #8192	; 0x2000
 8001554:	64fb      	str	r3, [r7, #76]	; 0x4c
 8001556:	6cfb      	ldr	r3, [r7, #76]	; 0x4c
 8001558:	f423 7380 	bic.w	r3, r3, #256	; 0x100
 800155c:	64fb      	str	r3, [r7, #76]	; 0x4c
 800155e:	6cfb      	ldr	r3, [r7, #76]	; 0x4c
 8001560:	f423 7300 	bic.w	r3, r3, #512	; 0x200
 8001564:	64fb      	str	r3, [r7, #76]	; 0x4c
 8001566:	6cfb      	ldr	r3, [r7, #76]	; 0x4c
 8001568:	f443 43c0 	orr.w	r3, r3, #24576	; 0x6000
 800156c:	64fb      	str	r3, [r7, #76]	; 0x4c
 800156e:	6cbb      	ldr	r3, [r7, #72]	; 0x48
 8001570:	f023 0320 	bic.w	r3, r3, #32
 8001574:	64bb      	str	r3, [r7, #72]	; 0x48
 8001576:	6cbb      	ldr	r3, [r7, #72]	; 0x48
 8001578:	f023 0380 	bic.w	r3, r3, #128	; 0x80
 800157c:	64bb      	str	r3, [r7, #72]	; 0x48
 800157e:	f04f 4280 	mov.w	r2, #1073741824	; 0x40000000
 8001582:	6c7b      	ldr	r3, [r7, #68]	; 0x44
 8001584:	6053      	str	r3, [r2, #4]
 8001586:	f04f 4280 	mov.w	r2, #1073741824	; 0x40000000
 800158a:	6cfb      	ldr	r3, [r7, #76]	; 0x4c
 800158c:	6193      	str	r3, [r2, #24]
 800158e:	f04f 4280 	mov.w	r2, #1073741824	; 0x40000000
 8001592:	88bb      	ldrh	r3, [r7, #4]
 8001594:	6393      	str	r3, [r2, #56]	; 0x38
 8001596:	f04f 4280 	mov.w	r2, #1073741824	; 0x40000000
 800159a:	6cbb      	ldr	r3, [r7, #72]	; 0x48
 800159c:	6213      	str	r3, [r2, #32]
 800159e:	f04f 4380 	mov.w	r3, #1073741824	; 0x40000000
 80015a2:	699b      	ldr	r3, [r3, #24]
 80015a4:	f04f 4280 	mov.w	r2, #1073741824	; 0x40000000
 80015a8:	f443 6300 	orr.w	r3, r3, #2048	; 0x800
 80015ac:	6193      	str	r3, [r2, #24]
 80015ae:	f04f 4380 	mov.w	r3, #1073741824	; 0x40000000
 80015b2:	699b      	ldr	r3, [r3, #24]
 80015b4:	f04f 4280 	mov.w	r2, #1073741824	; 0x40000000
 80015b8:	f443 6380 	orr.w	r3, r3, #1024	; 0x400
 80015bc:	6193      	str	r3, [r2, #24]
 80015be:	f04f 4380 	mov.w	r3, #1073741824	; 0x40000000
 80015c2:	6a1b      	ldr	r3, [r3, #32]
 80015c4:	f04f 4280 	mov.w	r2, #1073741824	; 0x40000000
 80015c8:	f043 0310 	orr.w	r3, r3, #16
 80015cc:	6213      	str	r3, [r2, #32]
 80015ce:	f04f 4380 	mov.w	r3, #1073741824	; 0x40000000
 80015d2:	681b      	ldr	r3, [r3, #0]
 80015d4:	f04f 4280 	mov.w	r2, #1073741824	; 0x40000000
 80015d8:	f043 0301 	orr.w	r3, r3, #1
 80015dc:	6013      	str	r3, [r2, #0]
 80015de:	f000 bc66 	b.w	8001eae <MTimer_voidPWM+0xe3e>
 80015e2:	79bb      	ldrb	r3, [r7, #6]
 80015e4:	2b03      	cmp	r3, #3
 80015e6:	d166      	bne.n	80016b6 <MTimer_voidPWM+0x646>
 80015e8:	2300      	movs	r3, #0
 80015ea:	65bb      	str	r3, [r7, #88]	; 0x58
 80015ec:	2300      	movs	r3, #0
 80015ee:	657b      	str	r3, [r7, #84]	; 0x54
 80015f0:	2300      	movs	r3, #0
 80015f2:	653b      	str	r3, [r7, #80]	; 0x50
 80015f4:	f04f 4380 	mov.w	r3, #1073741824	; 0x40000000
 80015f8:	6a1b      	ldr	r3, [r3, #32]
 80015fa:	f04f 4280 	mov.w	r2, #1073741824	; 0x40000000
 80015fe:	f423 7380 	bic.w	r3, r3, #256	; 0x100
 8001602:	6213      	str	r3, [r2, #32]
 8001604:	f04f 4380 	mov.w	r3, #1073741824	; 0x40000000
 8001608:	6a1b      	ldr	r3, [r3, #32]
 800160a:	657b      	str	r3, [r7, #84]	; 0x54
 800160c:	f04f 4380 	mov.w	r3, #1073741824	; 0x40000000
 8001610:	685b      	ldr	r3, [r3, #4]
 8001612:	653b      	str	r3, [r7, #80]	; 0x50
 8001614:	f04f 4380 	mov.w	r3, #1073741824	; 0x40000000
 8001618:	69db      	ldr	r3, [r3, #28]
 800161a:	65bb      	str	r3, [r7, #88]	; 0x58
 800161c:	6dbb      	ldr	r3, [r7, #88]	; 0x58
 800161e:	f023 0310 	bic.w	r3, r3, #16
 8001622:	65bb      	str	r3, [r7, #88]	; 0x58
 8001624:	6dbb      	ldr	r3, [r7, #88]	; 0x58
 8001626:	f023 0320 	bic.w	r3, r3, #32
 800162a:	65bb      	str	r3, [r7, #88]	; 0x58
 800162c:	6dbb      	ldr	r3, [r7, #88]	; 0x58
 800162e:	f023 0301 	bic.w	r3, r3, #1
 8001632:	65bb      	str	r3, [r7, #88]	; 0x58
 8001634:	6dbb      	ldr	r3, [r7, #88]	; 0x58
 8001636:	f023 0302 	bic.w	r3, r3, #2
 800163a:	65bb      	str	r3, [r7, #88]	; 0x58
 800163c:	6dbb      	ldr	r3, [r7, #88]	; 0x58
 800163e:	f043 0360 	orr.w	r3, r3, #96	; 0x60
 8001642:	65bb      	str	r3, [r7, #88]	; 0x58
 8001644:	6d7b      	ldr	r3, [r7, #84]	; 0x54
 8001646:	f423 7300 	bic.w	r3, r3, #512	; 0x200
 800164a:	657b      	str	r3, [r7, #84]	; 0x54
 800164c:	6d7b      	ldr	r3, [r7, #84]	; 0x54
 800164e:	f423 6300 	bic.w	r3, r3, #2048	; 0x800
 8001652:	657b      	str	r3, [r7, #84]	; 0x54
 8001654:	f04f 4280 	mov.w	r2, #1073741824	; 0x40000000
 8001658:	6d3b      	ldr	r3, [r7, #80]	; 0x50
 800165a:	6053      	str	r3, [r2, #4]
 800165c:	f04f 4280 	mov.w	r2, #1073741824	; 0x40000000
 8001660:	6dbb      	ldr	r3, [r7, #88]	; 0x58
 8001662:	61d3      	str	r3, [r2, #28]
 8001664:	f04f 4280 	mov.w	r2, #1073741824	; 0x40000000
 8001668:	88bb      	ldrh	r3, [r7, #4]
 800166a:	63d3      	str	r3, [r2, #60]	; 0x3c
 800166c:	f04f 4280 	mov.w	r2, #1073741824	; 0x40000000
 8001670:	6d7b      	ldr	r3, [r7, #84]	; 0x54
 8001672:	6213      	str	r3, [r2, #32]
 8001674:	f04f 4380 	mov.w	r3, #1073741824	; 0x40000000
 8001678:	69db      	ldr	r3, [r3, #28]
 800167a:	f04f 4280 	mov.w	r2, #1073741824	; 0x40000000
 800167e:	f043 0308 	orr.w	r3, r3, #8
 8001682:	61d3      	str	r3, [r2, #28]
 8001684:	f04f 4380 	mov.w	r3, #1073741824	; 0x40000000
 8001688:	69db      	ldr	r3, [r3, #28]
 800168a:	f04f 4280 	mov.w	r2, #1073741824	; 0x40000000
 800168e:	f043 0304 	orr.w	r3, r3, #4
 8001692:	61d3      	str	r3, [r2, #28]
 8001694:	f04f 4380 	mov.w	r3, #1073741824	; 0x40000000
 8001698:	6a1b      	ldr	r3, [r3, #32]
 800169a:	f04f 4280 	mov.w	r2, #1073741824	; 0x40000000
 800169e:	f443 7380 	orr.w	r3, r3, #256	; 0x100
 80016a2:	6213      	str	r3, [r2, #32]
 80016a4:	f04f 4380 	mov.w	r3, #1073741824	; 0x40000000
 80016a8:	681b      	ldr	r3, [r3, #0]
 80016aa:	f04f 4280 	mov.w	r2, #1073741824	; 0x40000000
 80016ae:	f043 0301 	orr.w	r3, r3, #1
 80016b2:	6013      	str	r3, [r2, #0]
 80016b4:	e3fb      	b.n	8001eae <MTimer_voidPWM+0xe3e>
 80016b6:	79bb      	ldrb	r3, [r7, #6]
 80016b8:	2b04      	cmp	r3, #4
 80016ba:	f040 83f8 	bne.w	8001eae <MTimer_voidPWM+0xe3e>
 80016be:	2300      	movs	r3, #0
 80016c0:	667b      	str	r3, [r7, #100]	; 0x64
 80016c2:	2300      	movs	r3, #0
 80016c4:	663b      	str	r3, [r7, #96]	; 0x60
 80016c6:	2300      	movs	r3, #0
 80016c8:	65fb      	str	r3, [r7, #92]	; 0x5c
 80016ca:	f04f 4380 	mov.w	r3, #1073741824	; 0x40000000
 80016ce:	6a1b      	ldr	r3, [r3, #32]
 80016d0:	f04f 4280 	mov.w	r2, #1073741824	; 0x40000000
 80016d4:	f423 5380 	bic.w	r3, r3, #4096	; 0x1000
 80016d8:	6213      	str	r3, [r2, #32]
 80016da:	f04f 4380 	mov.w	r3, #1073741824	; 0x40000000
 80016de:	6a1b      	ldr	r3, [r3, #32]
 80016e0:	663b      	str	r3, [r7, #96]	; 0x60
 80016e2:	f04f 4380 	mov.w	r3, #1073741824	; 0x40000000
 80016e6:	685b      	ldr	r3, [r3, #4]
 80016e8:	65fb      	str	r3, [r7, #92]	; 0x5c
 80016ea:	f04f 4380 	mov.w	r3, #1073741824	; 0x40000000
 80016ee:	69db      	ldr	r3, [r3, #28]
 80016f0:	667b      	str	r3, [r7, #100]	; 0x64
 80016f2:	6e7b      	ldr	r3, [r7, #100]	; 0x64
 80016f4:	f423 5380 	bic.w	r3, r3, #4096	; 0x1000
 80016f8:	667b      	str	r3, [r7, #100]	; 0x64
 80016fa:	6e7b      	ldr	r3, [r7, #100]	; 0x64
 80016fc:	f423 5300 	bic.w	r3, r3, #8192	; 0x2000
 8001700:	667b      	str	r3, [r7, #100]	; 0x64
 8001702:	6e7b      	ldr	r3, [r7, #100]	; 0x64
 8001704:	f423 7380 	bic.w	r3, r3, #256	; 0x100
 8001708:	667b      	str	r3, [r7, #100]	; 0x64
 800170a:	6e7b      	ldr	r3, [r7, #100]	; 0x64
 800170c:	f423 7300 	bic.w	r3, r3, #512	; 0x200
 8001710:	667b      	str	r3, [r7, #100]	; 0x64
 8001712:	6e7b      	ldr	r3, [r7, #100]	; 0x64
 8001714:	f443 43c0 	orr.w	r3, r3, #24576	; 0x6000
 8001718:	667b      	str	r3, [r7, #100]	; 0x64
 800171a:	6e3b      	ldr	r3, [r7, #96]	; 0x60
 800171c:	f423 5300 	bic.w	r3, r3, #8192	; 0x2000
 8001720:	663b      	str	r3, [r7, #96]	; 0x60
 8001722:	f04f 4280 	mov.w	r2, #1073741824	; 0x40000000
 8001726:	6dfb      	ldr	r3, [r7, #92]	; 0x5c
 8001728:	6053      	str	r3, [r2, #4]
 800172a:	f04f 4280 	mov.w	r2, #1073741824	; 0x40000000
 800172e:	6e7b      	ldr	r3, [r7, #100]	; 0x64
 8001730:	61d3      	str	r3, [r2, #28]
 8001732:	f04f 4280 	mov.w	r2, #1073741824	; 0x40000000
 8001736:	88bb      	ldrh	r3, [r7, #4]
 8001738:	6413      	str	r3, [r2, #64]	; 0x40
 800173a:	f04f 4280 	mov.w	r2, #1073741824	; 0x40000000
 800173e:	6e3b      	ldr	r3, [r7, #96]	; 0x60
 8001740:	6213      	str	r3, [r2, #32]
 8001742:	f04f 4380 	mov.w	r3, #1073741824	; 0x40000000
 8001746:	69db      	ldr	r3, [r3, #28]
 8001748:	f04f 4280 	mov.w	r2, #1073741824	; 0x40000000
 800174c:	f443 6300 	orr.w	r3, r3, #2048	; 0x800
 8001750:	61d3      	str	r3, [r2, #28]
 8001752:	f04f 4380 	mov.w	r3, #1073741824	; 0x40000000
 8001756:	69db      	ldr	r3, [r3, #28]
 8001758:	f04f 4280 	mov.w	r2, #1073741824	; 0x40000000
 800175c:	f443 6380 	orr.w	r3, r3, #1024	; 0x400
 8001760:	61d3      	str	r3, [r2, #28]
 8001762:	f04f 4380 	mov.w	r3, #1073741824	; 0x40000000
 8001766:	6a1b      	ldr	r3, [r3, #32]
 8001768:	f04f 4280 	mov.w	r2, #1073741824	; 0x40000000
 800176c:	f443 5380 	orr.w	r3, r3, #4096	; 0x1000
 8001770:	6213      	str	r3, [r2, #32]
 8001772:	f04f 4380 	mov.w	r3, #1073741824	; 0x40000000
 8001776:	681b      	ldr	r3, [r3, #0]
 8001778:	f04f 4280 	mov.w	r2, #1073741824	; 0x40000000
 800177c:	f043 0301 	orr.w	r3, r3, #1
 8001780:	6013      	str	r3, [r2, #0]
 8001782:	e394      	b.n	8001eae <MTimer_voidPWM+0xe3e>
 8001784:	79fb      	ldrb	r3, [r7, #7]
 8001786:	2b03      	cmp	r3, #3
 8001788:	f040 81d1 	bne.w	8001b2e <MTimer_voidPWM+0xabe>
 800178c:	79bb      	ldrb	r3, [r7, #6]
 800178e:	2b01      	cmp	r3, #1
 8001790:	d166      	bne.n	8001860 <MTimer_voidPWM+0x7f0>
 8001792:	2300      	movs	r3, #0
 8001794:	673b      	str	r3, [r7, #112]	; 0x70
 8001796:	2300      	movs	r3, #0
 8001798:	66fb      	str	r3, [r7, #108]	; 0x6c
 800179a:	2300      	movs	r3, #0
 800179c:	66bb      	str	r3, [r7, #104]	; 0x68
 800179e:	f04f 2340 	mov.w	r3, #1073758208	; 0x40004000
 80017a2:	6a1b      	ldr	r3, [r3, #32]
 80017a4:	f04f 2240 	mov.w	r2, #1073758208	; 0x40004000
 80017a8:	f023 0301 	bic.w	r3, r3, #1
 80017ac:	6213      	str	r3, [r2, #32]
 80017ae:	f04f 2340 	mov.w	r3, #1073758208	; 0x40004000
 80017b2:	6a1b      	ldr	r3, [r3, #32]
 80017b4:	673b      	str	r3, [r7, #112]	; 0x70
 80017b6:	f04f 2340 	mov.w	r3, #1073758208	; 0x40004000
 80017ba:	685b      	ldr	r3, [r3, #4]
 80017bc:	66bb      	str	r3, [r7, #104]	; 0x68
 80017be:	f04f 2340 	mov.w	r3, #1073758208	; 0x40004000
 80017c2:	699b      	ldr	r3, [r3, #24]
 80017c4:	673b      	str	r3, [r7, #112]	; 0x70
 80017c6:	6f3b      	ldr	r3, [r7, #112]	; 0x70
 80017c8:	f023 0310 	bic.w	r3, r3, #16
 80017cc:	673b      	str	r3, [r7, #112]	; 0x70
 80017ce:	6f3b      	ldr	r3, [r7, #112]	; 0x70
 80017d0:	f023 0320 	bic.w	r3, r3, #32
 80017d4:	673b      	str	r3, [r7, #112]	; 0x70
 80017d6:	6f3b      	ldr	r3, [r7, #112]	; 0x70
 80017d8:	f023 0340 	bic.w	r3, r3, #64	; 0x40
 80017dc:	673b      	str	r3, [r7, #112]	; 0x70
 80017de:	6f3b      	ldr	r3, [r7, #112]	; 0x70
 80017e0:	f023 0301 	bic.w	r3, r3, #1
 80017e4:	673b      	str	r3, [r7, #112]	; 0x70
 80017e6:	6f3b      	ldr	r3, [r7, #112]	; 0x70
 80017e8:	f023 0302 	bic.w	r3, r3, #2
 80017ec:	673b      	str	r3, [r7, #112]	; 0x70
 80017ee:	6f3b      	ldr	r3, [r7, #112]	; 0x70
 80017f0:	f043 0360 	orr.w	r3, r3, #96	; 0x60
 80017f4:	673b      	str	r3, [r7, #112]	; 0x70
 80017f6:	6efb      	ldr	r3, [r7, #108]	; 0x6c
 80017f8:	f023 0302 	bic.w	r3, r3, #2
 80017fc:	66fb      	str	r3, [r7, #108]	; 0x6c
 80017fe:	f04f 2240 	mov.w	r2, #1073758208	; 0x40004000
 8001802:	6ebb      	ldr	r3, [r7, #104]	; 0x68
 8001804:	6053      	str	r3, [r2, #4]
 8001806:	f04f 2240 	mov.w	r2, #1073758208	; 0x40004000
 800180a:	6f3b      	ldr	r3, [r7, #112]	; 0x70
 800180c:	6193      	str	r3, [r2, #24]
 800180e:	f04f 2240 	mov.w	r2, #1073758208	; 0x40004000
 8001812:	88bb      	ldrh	r3, [r7, #4]
 8001814:	6353      	str	r3, [r2, #52]	; 0x34
 8001816:	f04f 2240 	mov.w	r2, #1073758208	; 0x40004000
 800181a:	6efb      	ldr	r3, [r7, #108]	; 0x6c
 800181c:	6213      	str	r3, [r2, #32]
 800181e:	f04f 2340 	mov.w	r3, #1073758208	; 0x40004000
 8001822:	699b      	ldr	r3, [r3, #24]
 8001824:	f04f 2240 	mov.w	r2, #1073758208	; 0x40004000
 8001828:	f043 0308 	orr.w	r3, r3, #8
 800182c:	6193      	str	r3, [r2, #24]
 800182e:	f04f 2340 	mov.w	r3, #1073758208	; 0x40004000
 8001832:	699b      	ldr	r3, [r3, #24]
 8001834:	f04f 2240 	mov.w	r2, #1073758208	; 0x40004000
 8001838:	f043 0304 	orr.w	r3, r3, #4
 800183c:	6193      	str	r3, [r2, #24]
 800183e:	f04f 2340 	mov.w	r3, #1073758208	; 0x40004000
 8001842:	6a1b      	ldr	r3, [r3, #32]
 8001844:	f04f 2240 	mov.w	r2, #1073758208	; 0x40004000
 8001848:	f043 0301 	orr.w	r3, r3, #1
 800184c:	6213      	str	r3, [r2, #32]
 800184e:	f04f 2340 	mov.w	r3, #1073758208	; 0x40004000
 8001852:	681b      	ldr	r3, [r3, #0]
 8001854:	f04f 2240 	mov.w	r2, #1073758208	; 0x40004000
 8001858:	f043 0301 	orr.w	r3, r3, #1
 800185c:	6013      	str	r3, [r2, #0]
 800185e:	e326      	b.n	8001eae <MTimer_voidPWM+0xe3e>
 8001860:	79bb      	ldrb	r3, [r7, #6]
 8001862:	2b02      	cmp	r3, #2
 8001864:	d166      	bne.n	8001934 <MTimer_voidPWM+0x8c4>
 8001866:	2300      	movs	r3, #0
 8001868:	67fb      	str	r3, [r7, #124]	; 0x7c
 800186a:	2300      	movs	r3, #0
 800186c:	67bb      	str	r3, [r7, #120]	; 0x78
 800186e:	2300      	movs	r3, #0
 8001870:	677b      	str	r3, [r7, #116]	; 0x74
 8001872:	f04f 2340 	mov.w	r3, #1073758208	; 0x40004000
 8001876:	6a1b      	ldr	r3, [r3, #32]
 8001878:	f04f 2240 	mov.w	r2, #1073758208	; 0x40004000
 800187c:	f023 0310 	bic.w	r3, r3, #16
 8001880:	6213      	str	r3, [r2, #32]
 8001882:	f04f 2340 	mov.w	r3, #1073758208	; 0x40004000
 8001886:	6a1b      	ldr	r3, [r3, #32]
 8001888:	67bb      	str	r3, [r7, #120]	; 0x78
 800188a:	f04f 2340 	mov.w	r3, #1073758208	; 0x40004000
 800188e:	685b      	ldr	r3, [r3, #4]
 8001890:	677b      	str	r3, [r7, #116]	; 0x74
 8001892:	f04f 2340 	mov.w	r3, #1073758208	; 0x40004000
 8001896:	699b      	ldr	r3, [r3, #24]
 8001898:	67fb      	str	r3, [r7, #124]	; 0x7c
 800189a:	6ffb      	ldr	r3, [r7, #124]	; 0x7c
 800189c:	f423 5380 	bic.w	r3, r3, #4096	; 0x1000
 80018a0:	67fb      	str	r3, [r7, #124]	; 0x7c
 80018a2:	6ffb      	ldr	r3, [r7, #124]	; 0x7c
 80018a4:	f423 5300 	bic.w	r3, r3, #8192	; 0x2000
 80018a8:	67fb      	str	r3, [r7, #124]	; 0x7c
 80018aa:	6ffb      	ldr	r3, [r7, #124]	; 0x7c
 80018ac:	f423 7380 	bic.w	r3, r3, #256	; 0x100
 80018b0:	67fb      	str	r3, [r7, #124]	; 0x7c
 80018b2:	6ffb      	ldr	r3, [r7, #124]	; 0x7c
 80018b4:	f423 7300 	bic.w	r3, r3, #512	; 0x200
 80018b8:	67fb      	str	r3, [r7, #124]	; 0x7c
 80018ba:	6ffb      	ldr	r3, [r7, #124]	; 0x7c
 80018bc:	f443 43c0 	orr.w	r3, r3, #24576	; 0x6000
 80018c0:	67fb      	str	r3, [r7, #124]	; 0x7c
 80018c2:	6fbb      	ldr	r3, [r7, #120]	; 0x78
 80018c4:	f023 0320 	bic.w	r3, r3, #32
 80018c8:	67bb      	str	r3, [r7, #120]	; 0x78
 80018ca:	6fbb      	ldr	r3, [r7, #120]	; 0x78
 80018cc:	f023 0380 	bic.w	r3, r3, #128	; 0x80
 80018d0:	67bb      	str	r3, [r7, #120]	; 0x78
 80018d2:	f04f 2240 	mov.w	r2, #1073758208	; 0x40004000
 80018d6:	6f7b      	ldr	r3, [r7, #116]	; 0x74
 80018d8:	6053      	str	r3, [r2, #4]
 80018da:	f04f 2240 	mov.w	r2, #1073758208	; 0x40004000
 80018de:	6ffb      	ldr	r3, [r7, #124]	; 0x7c
 80018e0:	6193      	str	r3, [r2, #24]
 80018e2:	f04f 2240 	mov.w	r2, #1073758208	; 0x40004000
 80018e6:	88bb      	ldrh	r3, [r7, #4]
 80018e8:	6393      	str	r3, [r2, #56]	; 0x38
 80018ea:	f04f 2240 	mov.w	r2, #1073758208	; 0x40004000
 80018ee:	6fbb      	ldr	r3, [r7, #120]	; 0x78
 80018f0:	6213      	str	r3, [r2, #32]
 80018f2:	f04f 2340 	mov.w	r3, #1073758208	; 0x40004000
 80018f6:	699b      	ldr	r3, [r3, #24]
 80018f8:	f04f 2240 	mov.w	r2, #1073758208	; 0x40004000
 80018fc:	f443 6300 	orr.w	r3, r3, #2048	; 0x800
 8001900:	6193      	str	r3, [r2, #24]
 8001902:	f04f 2340 	mov.w	r3, #1073758208	; 0x40004000
 8001906:	699b      	ldr	r3, [r3, #24]
 8001908:	f04f 2240 	mov.w	r2, #1073758208	; 0x40004000
 800190c:	f443 6380 	orr.w	r3, r3, #1024	; 0x400
 8001910:	6193      	str	r3, [r2, #24]
 8001912:	f04f 2340 	mov.w	r3, #1073758208	; 0x40004000
 8001916:	6a1b      	ldr	r3, [r3, #32]
 8001918:	f04f 2240 	mov.w	r2, #1073758208	; 0x40004000
 800191c:	f043 0310 	orr.w	r3, r3, #16
 8001920:	6213      	str	r3, [r2, #32]
 8001922:	f04f 2340 	mov.w	r3, #1073758208	; 0x40004000
 8001926:	681b      	ldr	r3, [r3, #0]
 8001928:	f04f 2240 	mov.w	r2, #1073758208	; 0x40004000
 800192c:	f043 0301 	orr.w	r3, r3, #1
 8001930:	6013      	str	r3, [r2, #0]
 8001932:	e2bc      	b.n	8001eae <MTimer_voidPWM+0xe3e>
 8001934:	79bb      	ldrb	r3, [r7, #6]
 8001936:	2b03      	cmp	r3, #3
 8001938:	d17d      	bne.n	8001a36 <MTimer_voidPWM+0x9c6>
 800193a:	2300      	movs	r3, #0
 800193c:	f8c7 3088 	str.w	r3, [r7, #136]	; 0x88
 8001940:	2300      	movs	r3, #0
 8001942:	f8c7 3084 	str.w	r3, [r7, #132]	; 0x84
 8001946:	2300      	movs	r3, #0
 8001948:	f8c7 3080 	str.w	r3, [r7, #128]	; 0x80
 800194c:	f04f 2340 	mov.w	r3, #1073758208	; 0x40004000
 8001950:	6a1b      	ldr	r3, [r3, #32]
 8001952:	f04f 2240 	mov.w	r2, #1073758208	; 0x40004000
 8001956:	f423 7380 	bic.w	r3, r3, #256	; 0x100
 800195a:	6213      	str	r3, [r2, #32]
 800195c:	f04f 2340 	mov.w	r3, #1073758208	; 0x40004000
 8001960:	6a1b      	ldr	r3, [r3, #32]
 8001962:	f8c7 3084 	str.w	r3, [r7, #132]	; 0x84
 8001966:	f04f 2340 	mov.w	r3, #1073758208	; 0x40004000
 800196a:	685b      	ldr	r3, [r3, #4]
 800196c:	f8c7 3080 	str.w	r3, [r7, #128]	; 0x80
 8001970:	f04f 2340 	mov.w	r3, #1073758208	; 0x40004000
 8001974:	69db      	ldr	r3, [r3, #28]
 8001976:	f8c7 3088 	str.w	r3, [r7, #136]	; 0x88
 800197a:	f8d7 3088 	ldr.w	r3, [r7, #136]	; 0x88
 800197e:	f023 0310 	bic.w	r3, r3, #16
 8001982:	f8c7 3088 	str.w	r3, [r7, #136]	; 0x88
 8001986:	f8d7 3088 	ldr.w	r3, [r7, #136]	; 0x88
 800198a:	f023 0320 	bic.w	r3, r3, #32
 800198e:	f8c7 3088 	str.w	r3, [r7, #136]	; 0x88
 8001992:	f8d7 3088 	ldr.w	r3, [r7, #136]	; 0x88
 8001996:	f023 0301 	bic.w	r3, r3, #1
 800199a:	f8c7 3088 	str.w	r3, [r7, #136]	; 0x88
 800199e:	f8d7 3088 	ldr.w	r3, [r7, #136]	; 0x88
 80019a2:	f023 0302 	bic.w	r3, r3, #2
 80019a6:	f8c7 3088 	str.w	r3, [r7, #136]	; 0x88
 80019aa:	f8d7 3088 	ldr.w	r3, [r7, #136]	; 0x88
 80019ae:	f043 0360 	orr.w	r3, r3, #96	; 0x60
 80019b2:	f8c7 3088 	str.w	r3, [r7, #136]	; 0x88
 80019b6:	f8d7 3084 	ldr.w	r3, [r7, #132]	; 0x84
 80019ba:	f423 7300 	bic.w	r3, r3, #512	; 0x200
 80019be:	f8c7 3084 	str.w	r3, [r7, #132]	; 0x84
 80019c2:	f8d7 3084 	ldr.w	r3, [r7, #132]	; 0x84
 80019c6:	f423 6300 	bic.w	r3, r3, #2048	; 0x800
 80019ca:	f8c7 3084 	str.w	r3, [r7, #132]	; 0x84
 80019ce:	f04f 2240 	mov.w	r2, #1073758208	; 0x40004000
 80019d2:	f8d7 3080 	ldr.w	r3, [r7, #128]	; 0x80
 80019d6:	6053      	str	r3, [r2, #4]
 80019d8:	f04f 2240 	mov.w	r2, #1073758208	; 0x40004000
 80019dc:	f8d7 3088 	ldr.w	r3, [r7, #136]	; 0x88
 80019e0:	61d3      	str	r3, [r2, #28]
 80019e2:	f04f 2240 	mov.w	r2, #1073758208	; 0x40004000
 80019e6:	88bb      	ldrh	r3, [r7, #4]
 80019e8:	63d3      	str	r3, [r2, #60]	; 0x3c
 80019ea:	f04f 2240 	mov.w	r2, #1073758208	; 0x40004000
 80019ee:	f8d7 3084 	ldr.w	r3, [r7, #132]	; 0x84
 80019f2:	6213      	str	r3, [r2, #32]
 80019f4:	f04f 2340 	mov.w	r3, #1073758208	; 0x40004000
 80019f8:	69db      	ldr	r3, [r3, #28]
 80019fa:	f04f 2240 	mov.w	r2, #1073758208	; 0x40004000
 80019fe:	f043 0308 	orr.w	r3, r3, #8
 8001a02:	61d3      	str	r3, [r2, #28]
 8001a04:	f04f 2340 	mov.w	r3, #1073758208	; 0x40004000
 8001a08:	69db      	ldr	r3, [r3, #28]
 8001a0a:	f04f 2240 	mov.w	r2, #1073758208	; 0x40004000
 8001a0e:	f043 0304 	orr.w	r3, r3, #4
 8001a12:	61d3      	str	r3, [r2, #28]
 8001a14:	f04f 2340 	mov.w	r3, #1073758208	; 0x40004000
 8001a18:	6a1b      	ldr	r3, [r3, #32]
 8001a1a:	f04f 2240 	mov.w	r2, #1073758208	; 0x40004000
 8001a1e:	f443 7380 	orr.w	r3, r3, #256	; 0x100
 8001a22:	6213      	str	r3, [r2, #32]
 8001a24:	f04f 2340 	mov.w	r3, #1073758208	; 0x40004000
 8001a28:	681b      	ldr	r3, [r3, #0]
 8001a2a:	f04f 2240 	mov.w	r2, #1073758208	; 0x40004000
 8001a2e:	f043 0301 	orr.w	r3, r3, #1
 8001a32:	6013      	str	r3, [r2, #0]
 8001a34:	e23b      	b.n	8001eae <MTimer_voidPWM+0xe3e>
 8001a36:	79bb      	ldrb	r3, [r7, #6]
 8001a38:	2b04      	cmp	r3, #4
 8001a3a:	f040 8238 	bne.w	8001eae <MTimer_voidPWM+0xe3e>
 8001a3e:	2300      	movs	r3, #0
 8001a40:	f8c7 3094 	str.w	r3, [r7, #148]	; 0x94
 8001a44:	2300      	movs	r3, #0
 8001a46:	f8c7 3090 	str.w	r3, [r7, #144]	; 0x90
 8001a4a:	2300      	movs	r3, #0
 8001a4c:	f8c7 308c 	str.w	r3, [r7, #140]	; 0x8c
 8001a50:	f04f 2340 	mov.w	r3, #1073758208	; 0x40004000
 8001a54:	6a1b      	ldr	r3, [r3, #32]
 8001a56:	f04f 2240 	mov.w	r2, #1073758208	; 0x40004000
 8001a5a:	f423 5380 	bic.w	r3, r3, #4096	; 0x1000
 8001a5e:	6213      	str	r3, [r2, #32]
 8001a60:	f04f 2340 	mov.w	r3, #1073758208	; 0x40004000
 8001a64:	6a1b      	ldr	r3, [r3, #32]
 8001a66:	f8c7 3090 	str.w	r3, [r7, #144]	; 0x90
 8001a6a:	f04f 2340 	mov.w	r3, #1073758208	; 0x40004000
 8001a6e:	685b      	ldr	r3, [r3, #4]
 8001a70:	f8c7 308c 	str.w	r3, [r7, #140]	; 0x8c
 8001a74:	f04f 2340 	mov.w	r3, #1073758208	; 0x40004000
 8001a78:	69db      	ldr	r3, [r3, #28]
 8001a7a:	f8c7 3094 	str.w	r3, [r7, #148]	; 0x94
 8001a7e:	f8d7 3094 	ldr.w	r3, [r7, #148]	; 0x94
 8001a82:	f423 5380 	bic.w	r3, r3, #4096	; 0x1000
 8001a86:	f8c7 3094 	str.w	r3, [r7, #148]	; 0x94
 8001a8a:	f8d7 3094 	ldr.w	r3, [r7, #148]	; 0x94
 8001a8e:	f423 5300 	bic.w	r3, r3, #8192	; 0x2000
 8001a92:	f8c7 3094 	str.w	r3, [r7, #148]	; 0x94
 8001a96:	f8d7 3094 	ldr.w	r3, [r7, #148]	; 0x94
 8001a9a:	f423 7380 	bic.w	r3, r3, #256	; 0x100
 8001a9e:	f8c7 3094 	str.w	r3, [r7, #148]	; 0x94
 8001aa2:	f8d7 3094 	ldr.w	r3, [r7, #148]	; 0x94
 8001aa6:	f423 7300 	bic.w	r3, r3, #512	; 0x200
 8001aaa:	f8c7 3094 	str.w	r3, [r7, #148]	; 0x94
 8001aae:	f8d7 3094 	ldr.w	r3, [r7, #148]	; 0x94
 8001ab2:	f443 43c0 	orr.w	r3, r3, #24576	; 0x6000
 8001ab6:	f8c7 3094 	str.w	r3, [r7, #148]	; 0x94
 8001aba:	f8d7 3090 	ldr.w	r3, [r7, #144]	; 0x90
 8001abe:	f423 5300 	bic.w	r3, r3, #8192	; 0x2000
 8001ac2:	f8c7 3090 	str.w	r3, [r7, #144]	; 0x90
 8001ac6:	f04f 2240 	mov.w	r2, #1073758208	; 0x40004000
 8001aca:	f8d7 308c 	ldr.w	r3, [r7, #140]	; 0x8c
 8001ace:	6053      	str	r3, [r2, #4]
 8001ad0:	f04f 2240 	mov.w	r2, #1073758208	; 0x40004000
 8001ad4:	f8d7 3094 	ldr.w	r3, [r7, #148]	; 0x94
 8001ad8:	61d3      	str	r3, [r2, #28]
 8001ada:	f04f 2240 	mov.w	r2, #1073758208	; 0x40004000
 8001ade:	88bb      	ldrh	r3, [r7, #4]
 8001ae0:	6413      	str	r3, [r2, #64]	; 0x40
 8001ae2:	f04f 2240 	mov.w	r2, #1073758208	; 0x40004000
 8001ae6:	f8d7 3090 	ldr.w	r3, [r7, #144]	; 0x90
 8001aea:	6213      	str	r3, [r2, #32]
 8001aec:	f04f 2340 	mov.w	r3, #1073758208	; 0x40004000
 8001af0:	69db      	ldr	r3, [r3, #28]
 8001af2:	f04f 2240 	mov.w	r2, #1073758208	; 0x40004000
 8001af6:	f443 6300 	orr.w	r3, r3, #2048	; 0x800
 8001afa:	61d3      	str	r3, [r2, #28]
 8001afc:	f04f 2340 	mov.w	r3, #1073758208	; 0x40004000
 8001b00:	69db      	ldr	r3, [r3, #28]
 8001b02:	f04f 2240 	mov.w	r2, #1073758208	; 0x40004000
 8001b06:	f443 6380 	orr.w	r3, r3, #1024	; 0x400
 8001b0a:	61d3      	str	r3, [r2, #28]
 8001b0c:	f04f 2340 	mov.w	r3, #1073758208	; 0x40004000
 8001b10:	6a1b      	ldr	r3, [r3, #32]
 8001b12:	f04f 2240 	mov.w	r2, #1073758208	; 0x40004000
 8001b16:	f443 5380 	orr.w	r3, r3, #4096	; 0x1000
 8001b1a:	6213      	str	r3, [r2, #32]
 8001b1c:	f04f 2340 	mov.w	r3, #1073758208	; 0x40004000
 8001b20:	681b      	ldr	r3, [r3, #0]
 8001b22:	f04f 2240 	mov.w	r2, #1073758208	; 0x40004000
 8001b26:	f043 0301 	orr.w	r3, r3, #1
 8001b2a:	6013      	str	r3, [r2, #0]
 8001b2c:	e1bf      	b.n	8001eae <MTimer_voidPWM+0xe3e>
 8001b2e:	79fb      	ldrb	r3, [r7, #7]
 8001b30:	2b04      	cmp	r3, #4
 8001b32:	f040 81bc 	bne.w	8001eae <MTimer_voidPWM+0xe3e>
 8001b36:	79bb      	ldrb	r3, [r7, #6]
 8001b38:	2b01      	cmp	r3, #1
 8001b3a:	d16c      	bne.n	8001c16 <MTimer_voidPWM+0xba6>
 8001b3c:	2300      	movs	r3, #0
 8001b3e:	f8c7 30a0 	str.w	r3, [r7, #160]	; 0xa0
 8001b42:	2300      	movs	r3, #0
 8001b44:	f8c7 309c 	str.w	r3, [r7, #156]	; 0x9c
 8001b48:	2300      	movs	r3, #0
 8001b4a:	f8c7 3098 	str.w	r3, [r7, #152]	; 0x98
 8001b4e:	4ba2      	ldr	r3, [pc, #648]	; (8001dd8 <MTimer_voidPWM+0xd68>)
 8001b50:	6a1b      	ldr	r3, [r3, #32]
 8001b52:	4aa1      	ldr	r2, [pc, #644]	; (8001dd8 <MTimer_voidPWM+0xd68>)
 8001b54:	f023 0301 	bic.w	r3, r3, #1
 8001b58:	6213      	str	r3, [r2, #32]
 8001b5a:	4b9f      	ldr	r3, [pc, #636]	; (8001dd8 <MTimer_voidPWM+0xd68>)
 8001b5c:	6a1b      	ldr	r3, [r3, #32]
 8001b5e:	f8c7 30a0 	str.w	r3, [r7, #160]	; 0xa0
 8001b62:	4b9d      	ldr	r3, [pc, #628]	; (8001dd8 <MTimer_voidPWM+0xd68>)
 8001b64:	685b      	ldr	r3, [r3, #4]
 8001b66:	f8c7 3098 	str.w	r3, [r7, #152]	; 0x98
 8001b6a:	4b9b      	ldr	r3, [pc, #620]	; (8001dd8 <MTimer_voidPWM+0xd68>)
 8001b6c:	699b      	ldr	r3, [r3, #24]
 8001b6e:	f8c7 30a0 	str.w	r3, [r7, #160]	; 0xa0
 8001b72:	f8d7 30a0 	ldr.w	r3, [r7, #160]	; 0xa0
 8001b76:	f023 0310 	bic.w	r3, r3, #16
 8001b7a:	f8c7 30a0 	str.w	r3, [r7, #160]	; 0xa0
 8001b7e:	f8d7 30a0 	ldr.w	r3, [r7, #160]	; 0xa0
 8001b82:	f023 0320 	bic.w	r3, r3, #32
 8001b86:	f8c7 30a0 	str.w	r3, [r7, #160]	; 0xa0
 8001b8a:	f8d7 30a0 	ldr.w	r3, [r7, #160]	; 0xa0
 8001b8e:	f023 0340 	bic.w	r3, r3, #64	; 0x40
 8001b92:	f8c7 30a0 	str.w	r3, [r7, #160]	; 0xa0
 8001b96:	f8d7 30a0 	ldr.w	r3, [r7, #160]	; 0xa0
 8001b9a:	f023 0301 	bic.w	r3, r3, #1
 8001b9e:	f8c7 30a0 	str.w	r3, [r7, #160]	; 0xa0
 8001ba2:	f8d7 30a0 	ldr.w	r3, [r7, #160]	; 0xa0
 8001ba6:	f023 0302 	bic.w	r3, r3, #2
 8001baa:	f8c7 30a0 	str.w	r3, [r7, #160]	; 0xa0
 8001bae:	f8d7 30a0 	ldr.w	r3, [r7, #160]	; 0xa0
 8001bb2:	f043 0360 	orr.w	r3, r3, #96	; 0x60
 8001bb6:	f8c7 30a0 	str.w	r3, [r7, #160]	; 0xa0
 8001bba:	f8d7 309c 	ldr.w	r3, [r7, #156]	; 0x9c
 8001bbe:	f023 0302 	bic.w	r3, r3, #2
 8001bc2:	f8c7 309c 	str.w	r3, [r7, #156]	; 0x9c
 8001bc6:	4a84      	ldr	r2, [pc, #528]	; (8001dd8 <MTimer_voidPWM+0xd68>)
 8001bc8:	f8d7 3098 	ldr.w	r3, [r7, #152]	; 0x98
 8001bcc:	6053      	str	r3, [r2, #4]
 8001bce:	4a82      	ldr	r2, [pc, #520]	; (8001dd8 <MTimer_voidPWM+0xd68>)
 8001bd0:	f8d7 30a0 	ldr.w	r3, [r7, #160]	; 0xa0
 8001bd4:	6193      	str	r3, [r2, #24]
 8001bd6:	4a80      	ldr	r2, [pc, #512]	; (8001dd8 <MTimer_voidPWM+0xd68>)
 8001bd8:	88bb      	ldrh	r3, [r7, #4]
 8001bda:	6353      	str	r3, [r2, #52]	; 0x34
 8001bdc:	4a7e      	ldr	r2, [pc, #504]	; (8001dd8 <MTimer_voidPWM+0xd68>)
 8001bde:	f8d7 309c 	ldr.w	r3, [r7, #156]	; 0x9c
 8001be2:	6213      	str	r3, [r2, #32]
 8001be4:	4b7c      	ldr	r3, [pc, #496]	; (8001dd8 <MTimer_voidPWM+0xd68>)
 8001be6:	699b      	ldr	r3, [r3, #24]
 8001be8:	4a7b      	ldr	r2, [pc, #492]	; (8001dd8 <MTimer_voidPWM+0xd68>)
 8001bea:	f043 0308 	orr.w	r3, r3, #8
 8001bee:	6193      	str	r3, [r2, #24]
 8001bf0:	4b79      	ldr	r3, [pc, #484]	; (8001dd8 <MTimer_voidPWM+0xd68>)
 8001bf2:	699b      	ldr	r3, [r3, #24]
 8001bf4:	4a78      	ldr	r2, [pc, #480]	; (8001dd8 <MTimer_voidPWM+0xd68>)
 8001bf6:	f043 0304 	orr.w	r3, r3, #4
 8001bfa:	6193      	str	r3, [r2, #24]
 8001bfc:	4b76      	ldr	r3, [pc, #472]	; (8001dd8 <MTimer_voidPWM+0xd68>)
 8001bfe:	6a1b      	ldr	r3, [r3, #32]
 8001c00:	4a75      	ldr	r2, [pc, #468]	; (8001dd8 <MTimer_voidPWM+0xd68>)
 8001c02:	f043 0301 	orr.w	r3, r3, #1
 8001c06:	6213      	str	r3, [r2, #32]
 8001c08:	4b73      	ldr	r3, [pc, #460]	; (8001dd8 <MTimer_voidPWM+0xd68>)
 8001c0a:	681b      	ldr	r3, [r3, #0]
 8001c0c:	4a72      	ldr	r2, [pc, #456]	; (8001dd8 <MTimer_voidPWM+0xd68>)
 8001c0e:	f043 0301 	orr.w	r3, r3, #1
 8001c12:	6013      	str	r3, [r2, #0]
 8001c14:	e14b      	b.n	8001eae <MTimer_voidPWM+0xe3e>
 8001c16:	79bb      	ldrb	r3, [r7, #6]
 8001c18:	2b02      	cmp	r3, #2
 8001c1a:	d16c      	bne.n	8001cf6 <MTimer_voidPWM+0xc86>
 8001c1c:	2300      	movs	r3, #0
 8001c1e:	f8c7 30ac 	str.w	r3, [r7, #172]	; 0xac
 8001c22:	2300      	movs	r3, #0
 8001c24:	f8c7 30a8 	str.w	r3, [r7, #168]	; 0xa8
 8001c28:	2300      	movs	r3, #0
 8001c2a:	f8c7 30a4 	str.w	r3, [r7, #164]	; 0xa4
 8001c2e:	4b6a      	ldr	r3, [pc, #424]	; (8001dd8 <MTimer_voidPWM+0xd68>)
 8001c30:	6a1b      	ldr	r3, [r3, #32]
 8001c32:	4a69      	ldr	r2, [pc, #420]	; (8001dd8 <MTimer_voidPWM+0xd68>)
 8001c34:	f023 0310 	bic.w	r3, r3, #16
 8001c38:	6213      	str	r3, [r2, #32]
 8001c3a:	4b67      	ldr	r3, [pc, #412]	; (8001dd8 <MTimer_voidPWM+0xd68>)
 8001c3c:	6a1b      	ldr	r3, [r3, #32]
 8001c3e:	f8c7 30a8 	str.w	r3, [r7, #168]	; 0xa8
 8001c42:	4b65      	ldr	r3, [pc, #404]	; (8001dd8 <MTimer_voidPWM+0xd68>)
 8001c44:	685b      	ldr	r3, [r3, #4]
 8001c46:	f8c7 30a4 	str.w	r3, [r7, #164]	; 0xa4
 8001c4a:	4b63      	ldr	r3, [pc, #396]	; (8001dd8 <MTimer_voidPWM+0xd68>)
 8001c4c:	699b      	ldr	r3, [r3, #24]
 8001c4e:	f8c7 30ac 	str.w	r3, [r7, #172]	; 0xac
 8001c52:	f8d7 30ac 	ldr.w	r3, [r7, #172]	; 0xac
 8001c56:	f423 5380 	bic.w	r3, r3, #4096	; 0x1000
 8001c5a:	f8c7 30ac 	str.w	r3, [r7, #172]	; 0xac
 8001c5e:	f8d7 30ac 	ldr.w	r3, [r7, #172]	; 0xac
 8001c62:	f423 5300 	bic.w	r3, r3, #8192	; 0x2000
 8001c66:	f8c7 30ac 	str.w	r3, [r7, #172]	; 0xac
 8001c6a:	f8d7 30ac 	ldr.w	r3, [r7, #172]	; 0xac
 8001c6e:	f423 7380 	bic.w	r3, r3, #256	; 0x100
 8001c72:	f8c7 30ac 	str.w	r3, [r7, #172]	; 0xac
 8001c76:	f8d7 30ac 	ldr.w	r3, [r7, #172]	; 0xac
 8001c7a:	f423 7300 	bic.w	r3, r3, #512	; 0x200
 8001c7e:	f8c7 30ac 	str.w	r3, [r7, #172]	; 0xac
 8001c82:	f8d7 30ac 	ldr.w	r3, [r7, #172]	; 0xac
 8001c86:	f443 43c0 	orr.w	r3, r3, #24576	; 0x6000
 8001c8a:	f8c7 30ac 	str.w	r3, [r7, #172]	; 0xac
 8001c8e:	f8d7 30a8 	ldr.w	r3, [r7, #168]	; 0xa8
 8001c92:	f023 0320 	bic.w	r3, r3, #32
 8001c96:	f8c7 30a8 	str.w	r3, [r7, #168]	; 0xa8
 8001c9a:	f8d7 30a8 	ldr.w	r3, [r7, #168]	; 0xa8
 8001c9e:	f023 0380 	bic.w	r3, r3, #128	; 0x80
 8001ca2:	f8c7 30a8 	str.w	r3, [r7, #168]	; 0xa8
 8001ca6:	4a4c      	ldr	r2, [pc, #304]	; (8001dd8 <MTimer_voidPWM+0xd68>)
 8001ca8:	f8d7 30a4 	ldr.w	r3, [r7, #164]	; 0xa4
 8001cac:	6053      	str	r3, [r2, #4]
 8001cae:	4a4a      	ldr	r2, [pc, #296]	; (8001dd8 <MTimer_voidPWM+0xd68>)
 8001cb0:	f8d7 30ac 	ldr.w	r3, [r7, #172]	; 0xac
 8001cb4:	6193      	str	r3, [r2, #24]
 8001cb6:	4a48      	ldr	r2, [pc, #288]	; (8001dd8 <MTimer_voidPWM+0xd68>)
 8001cb8:	88bb      	ldrh	r3, [r7, #4]
 8001cba:	6393      	str	r3, [r2, #56]	; 0x38
 8001cbc:	4a46      	ldr	r2, [pc, #280]	; (8001dd8 <MTimer_voidPWM+0xd68>)
 8001cbe:	f8d7 30a8 	ldr.w	r3, [r7, #168]	; 0xa8
 8001cc2:	6213      	str	r3, [r2, #32]
 8001cc4:	4b44      	ldr	r3, [pc, #272]	; (8001dd8 <MTimer_voidPWM+0xd68>)
 8001cc6:	699b      	ldr	r3, [r3, #24]
 8001cc8:	4a43      	ldr	r2, [pc, #268]	; (8001dd8 <MTimer_voidPWM+0xd68>)
 8001cca:	f443 6300 	orr.w	r3, r3, #2048	; 0x800
 8001cce:	6193      	str	r3, [r2, #24]
 8001cd0:	4b41      	ldr	r3, [pc, #260]	; (8001dd8 <MTimer_voidPWM+0xd68>)
 8001cd2:	699b      	ldr	r3, [r3, #24]
 8001cd4:	4a40      	ldr	r2, [pc, #256]	; (8001dd8 <MTimer_voidPWM+0xd68>)
 8001cd6:	f443 6380 	orr.w	r3, r3, #1024	; 0x400
 8001cda:	6193      	str	r3, [r2, #24]
 8001cdc:	4b3e      	ldr	r3, [pc, #248]	; (8001dd8 <MTimer_voidPWM+0xd68>)
 8001cde:	6a1b      	ldr	r3, [r3, #32]
 8001ce0:	4a3d      	ldr	r2, [pc, #244]	; (8001dd8 <MTimer_voidPWM+0xd68>)
 8001ce2:	f043 0310 	orr.w	r3, r3, #16
 8001ce6:	6213      	str	r3, [r2, #32]
 8001ce8:	4b3b      	ldr	r3, [pc, #236]	; (8001dd8 <MTimer_voidPWM+0xd68>)
 8001cea:	681b      	ldr	r3, [r3, #0]
 8001cec:	4a3a      	ldr	r2, [pc, #232]	; (8001dd8 <MTimer_voidPWM+0xd68>)
 8001cee:	f043 0301 	orr.w	r3, r3, #1
 8001cf2:	6013      	str	r3, [r2, #0]
 8001cf4:	e0db      	b.n	8001eae <MTimer_voidPWM+0xe3e>
 8001cf6:	79bb      	ldrb	r3, [r7, #6]
 8001cf8:	2b03      	cmp	r3, #3
 8001cfa:	d16f      	bne.n	8001ddc <MTimer_voidPWM+0xd6c>
 8001cfc:	2300      	movs	r3, #0
 8001cfe:	f8c7 30b8 	str.w	r3, [r7, #184]	; 0xb8
 8001d02:	2300      	movs	r3, #0
 8001d04:	f8c7 30b4 	str.w	r3, [r7, #180]	; 0xb4
 8001d08:	2300      	movs	r3, #0
 8001d0a:	f8c7 30b0 	str.w	r3, [r7, #176]	; 0xb0
 8001d0e:	4b32      	ldr	r3, [pc, #200]	; (8001dd8 <MTimer_voidPWM+0xd68>)
 8001d10:	6a1b      	ldr	r3, [r3, #32]
 8001d12:	4a31      	ldr	r2, [pc, #196]	; (8001dd8 <MTimer_voidPWM+0xd68>)
 8001d14:	f423 7380 	bic.w	r3, r3, #256	; 0x100
 8001d18:	6213      	str	r3, [r2, #32]
 8001d1a:	4b2f      	ldr	r3, [pc, #188]	; (8001dd8 <MTimer_voidPWM+0xd68>)
 8001d1c:	6a1b      	ldr	r3, [r3, #32]
 8001d1e:	f8c7 30b4 	str.w	r3, [r7, #180]	; 0xb4
 8001d22:	4b2d      	ldr	r3, [pc, #180]	; (8001dd8 <MTimer_voidPWM+0xd68>)
 8001d24:	685b      	ldr	r3, [r3, #4]
 8001d26:	f8c7 30b0 	str.w	r3, [r7, #176]	; 0xb0
 8001d2a:	4b2b      	ldr	r3, [pc, #172]	; (8001dd8 <MTimer_voidPWM+0xd68>)
 8001d2c:	69db      	ldr	r3, [r3, #28]
 8001d2e:	f8c7 30b8 	str.w	r3, [r7, #184]	; 0xb8
 8001d32:	f8d7 30b8 	ldr.w	r3, [r7, #184]	; 0xb8
 8001d36:	f023 0310 	bic.w	r3, r3, #16
 8001d3a:	f8c7 30b8 	str.w	r3, [r7, #184]	; 0xb8
 8001d3e:	f8d7 30b8 	ldr.w	r3, [r7, #184]	; 0xb8
 8001d42:	f023 0320 	bic.w	r3, r3, #32
 8001d46:	f8c7 30b8 	str.w	r3, [r7, #184]	; 0xb8
 8001d4a:	f8d7 30b8 	ldr.w	r3, [r7, #184]	; 0xb8
 8001d4e:	f023 0301 	bic.w	r3, r3, #1
 8001d52:	f8c7 30b8 	str.w	r3, [r7, #184]	; 0xb8
 8001d56:	f8d7 30b8 	ldr.w	r3, [r7, #184]	; 0xb8
 8001d5a:	f023 0302 	bic.w	r3, r3, #2
 8001d5e:	f8c7 30b8 	str.w	r3, [r7, #184]	; 0xb8
 8001d62:	f8d7 30b8 	ldr.w	r3, [r7, #184]	; 0xb8
 8001d66:	f043 0360 	orr.w	r3, r3, #96	; 0x60
 8001d6a:	f8c7 30b8 	str.w	r3, [r7, #184]	; 0xb8
 8001d6e:	f8d7 30b4 	ldr.w	r3, [r7, #180]	; 0xb4
 8001d72:	f423 7300 	bic.w	r3, r3, #512	; 0x200
 8001d76:	f8c7 30b4 	str.w	r3, [r7, #180]	; 0xb4
 8001d7a:	f8d7 30b4 	ldr.w	r3, [r7, #180]	; 0xb4
 8001d7e:	f423 6300 	bic.w	r3, r3, #2048	; 0x800
 8001d82:	f8c7 30b4 	str.w	r3, [r7, #180]	; 0xb4
 8001d86:	4a14      	ldr	r2, [pc, #80]	; (8001dd8 <MTimer_voidPWM+0xd68>)
 8001d88:	f8d7 30b0 	ldr.w	r3, [r7, #176]	; 0xb0
 8001d8c:	6053      	str	r3, [r2, #4]
 8001d8e:	4a12      	ldr	r2, [pc, #72]	; (8001dd8 <MTimer_voidPWM+0xd68>)
 8001d90:	f8d7 30b8 	ldr.w	r3, [r7, #184]	; 0xb8
 8001d94:	61d3      	str	r3, [r2, #28]
 8001d96:	4a10      	ldr	r2, [pc, #64]	; (8001dd8 <MTimer_voidPWM+0xd68>)
 8001d98:	88bb      	ldrh	r3, [r7, #4]
 8001d9a:	63d3      	str	r3, [r2, #60]	; 0x3c
 8001d9c:	4a0e      	ldr	r2, [pc, #56]	; (8001dd8 <MTimer_voidPWM+0xd68>)
 8001d9e:	f8d7 30b4 	ldr.w	r3, [r7, #180]	; 0xb4
 8001da2:	6213      	str	r3, [r2, #32]
 8001da4:	4b0c      	ldr	r3, [pc, #48]	; (8001dd8 <MTimer_voidPWM+0xd68>)
 8001da6:	69db      	ldr	r3, [r3, #28]
 8001da8:	4a0b      	ldr	r2, [pc, #44]	; (8001dd8 <MTimer_voidPWM+0xd68>)
 8001daa:	f043 0308 	orr.w	r3, r3, #8
 8001dae:	61d3      	str	r3, [r2, #28]
 8001db0:	4b09      	ldr	r3, [pc, #36]	; (8001dd8 <MTimer_voidPWM+0xd68>)
 8001db2:	69db      	ldr	r3, [r3, #28]
 8001db4:	4a08      	ldr	r2, [pc, #32]	; (8001dd8 <MTimer_voidPWM+0xd68>)
 8001db6:	f043 0304 	orr.w	r3, r3, #4
 8001dba:	61d3      	str	r3, [r2, #28]
 8001dbc:	4b06      	ldr	r3, [pc, #24]	; (8001dd8 <MTimer_voidPWM+0xd68>)
 8001dbe:	6a1b      	ldr	r3, [r3, #32]
 8001dc0:	4a05      	ldr	r2, [pc, #20]	; (8001dd8 <MTimer_voidPWM+0xd68>)
 8001dc2:	f443 7380 	orr.w	r3, r3, #256	; 0x100
 8001dc6:	6213      	str	r3, [r2, #32]
 8001dc8:	4b03      	ldr	r3, [pc, #12]	; (8001dd8 <MTimer_voidPWM+0xd68>)
 8001dca:	681b      	ldr	r3, [r3, #0]
 8001dcc:	4a02      	ldr	r2, [pc, #8]	; (8001dd8 <MTimer_voidPWM+0xd68>)
 8001dce:	f043 0301 	orr.w	r3, r3, #1
 8001dd2:	6013      	str	r3, [r2, #0]
 8001dd4:	e06b      	b.n	8001eae <MTimer_voidPWM+0xe3e>
 8001dd6:	bf00      	nop
 8001dd8:	40008000 	.word	0x40008000
 8001ddc:	79bb      	ldrb	r3, [r7, #6]
 8001dde:	2b04      	cmp	r3, #4
 8001de0:	d165      	bne.n	8001eae <MTimer_voidPWM+0xe3e>
 8001de2:	2300      	movs	r3, #0
 8001de4:	f8c7 30c4 	str.w	r3, [r7, #196]	; 0xc4
 8001de8:	2300      	movs	r3, #0
 8001dea:	f8c7 30c0 	str.w	r3, [r7, #192]	; 0xc0
 8001dee:	2300      	movs	r3, #0
 8001df0:	f8c7 30bc 	str.w	r3, [r7, #188]	; 0xbc
 8001df4:	4b30      	ldr	r3, [pc, #192]	; (8001eb8 <MTimer_voidPWM+0xe48>)
 8001df6:	6a1b      	ldr	r3, [r3, #32]
 8001df8:	4a2f      	ldr	r2, [pc, #188]	; (8001eb8 <MTimer_voidPWM+0xe48>)
 8001dfa:	f423 5380 	bic.w	r3, r3, #4096	; 0x1000
 8001dfe:	6213      	str	r3, [r2, #32]
 8001e00:	4b2d      	ldr	r3, [pc, #180]	; (8001eb8 <MTimer_voidPWM+0xe48>)
 8001e02:	6a1b      	ldr	r3, [r3, #32]
 8001e04:	f8c7 30c0 	str.w	r3, [r7, #192]	; 0xc0
 8001e08:	4b2b      	ldr	r3, [pc, #172]	; (8001eb8 <MTimer_voidPWM+0xe48>)
 8001e0a:	685b      	ldr	r3, [r3, #4]
 8001e0c:	f8c7 30bc 	str.w	r3, [r7, #188]	; 0xbc
 8001e10:	4b29      	ldr	r3, [pc, #164]	; (8001eb8 <MTimer_voidPWM+0xe48>)
 8001e12:	69db      	ldr	r3, [r3, #28]
 8001e14:	f8c7 30c4 	str.w	r3, [r7, #196]	; 0xc4
 8001e18:	f8d7 30c4 	ldr.w	r3, [r7, #196]	; 0xc4
 8001e1c:	f423 5380 	bic.w	r3, r3, #4096	; 0x1000
 8001e20:	f8c7 30c4 	str.w	r3, [r7, #196]	; 0xc4
 8001e24:	f8d7 30c4 	ldr.w	r3, [r7, #196]	; 0xc4
 8001e28:	f423 5300 	bic.w	r3, r3, #8192	; 0x2000
 8001e2c:	f8c7 30c4 	str.w	r3, [r7, #196]	; 0xc4
 8001e30:	f8d7 30c4 	ldr.w	r3, [r7, #196]	; 0xc4
 8001e34:	f423 7380 	bic.w	r3, r3, #256	; 0x100
 8001e38:	f8c7 30c4 	str.w	r3, [r7, #196]	; 0xc4
 8001e3c:	f8d7 30c4 	ldr.w	r3, [r7, #196]	; 0xc4
 8001e40:	f423 7300 	bic.w	r3, r3, #512	; 0x200
 8001e44:	f8c7 30c4 	str.w	r3, [r7, #196]	; 0xc4
 8001e48:	f8d7 30c4 	ldr.w	r3, [r7, #196]	; 0xc4
 8001e4c:	f443 43c0 	orr.w	r3, r3, #24576	; 0x6000
 8001e50:	f8c7 30c4 	str.w	r3, [r7, #196]	; 0xc4
 8001e54:	f8d7 30c0 	ldr.w	r3, [r7, #192]	; 0xc0
 8001e58:	f423 5300 	bic.w	r3, r3, #8192	; 0x2000
 8001e5c:	f8c7 30c0 	str.w	r3, [r7, #192]	; 0xc0
 8001e60:	4a15      	ldr	r2, [pc, #84]	; (8001eb8 <MTimer_voidPWM+0xe48>)
 8001e62:	f8d7 30bc 	ldr.w	r3, [r7, #188]	; 0xbc
 8001e66:	6053      	str	r3, [r2, #4]
 8001e68:	4a13      	ldr	r2, [pc, #76]	; (8001eb8 <MTimer_voidPWM+0xe48>)
 8001e6a:	f8d7 30c4 	ldr.w	r3, [r7, #196]	; 0xc4
 8001e6e:	61d3      	str	r3, [r2, #28]
 8001e70:	4a11      	ldr	r2, [pc, #68]	; (8001eb8 <MTimer_voidPWM+0xe48>)
 8001e72:	88bb      	ldrh	r3, [r7, #4]
 8001e74:	6413      	str	r3, [r2, #64]	; 0x40
 8001e76:	4a10      	ldr	r2, [pc, #64]	; (8001eb8 <MTimer_voidPWM+0xe48>)
 8001e78:	f8d7 30c0 	ldr.w	r3, [r7, #192]	; 0xc0
 8001e7c:	6213      	str	r3, [r2, #32]
 8001e7e:	4b0e      	ldr	r3, [pc, #56]	; (8001eb8 <MTimer_voidPWM+0xe48>)
 8001e80:	69db      	ldr	r3, [r3, #28]
 8001e82:	4a0d      	ldr	r2, [pc, #52]	; (8001eb8 <MTimer_voidPWM+0xe48>)
 8001e84:	f443 6300 	orr.w	r3, r3, #2048	; 0x800
 8001e88:	61d3      	str	r3, [r2, #28]
 8001e8a:	4b0b      	ldr	r3, [pc, #44]	; (8001eb8 <MTimer_voidPWM+0xe48>)
 8001e8c:	69db      	ldr	r3, [r3, #28]
 8001e8e:	4a0a      	ldr	r2, [pc, #40]	; (8001eb8 <MTimer_voidPWM+0xe48>)
 8001e90:	f443 6380 	orr.w	r3, r3, #1024	; 0x400
 8001e94:	61d3      	str	r3, [r2, #28]
 8001e96:	4b08      	ldr	r3, [pc, #32]	; (8001eb8 <MTimer_voidPWM+0xe48>)
 8001e98:	6a1b      	ldr	r3, [r3, #32]
 8001e9a:	4a07      	ldr	r2, [pc, #28]	; (8001eb8 <MTimer_voidPWM+0xe48>)
 8001e9c:	f443 5380 	orr.w	r3, r3, #4096	; 0x1000
 8001ea0:	6213      	str	r3, [r2, #32]
 8001ea2:	4b05      	ldr	r3, [pc, #20]	; (8001eb8 <MTimer_voidPWM+0xe48>)
 8001ea4:	681b      	ldr	r3, [r3, #0]
 8001ea6:	4a04      	ldr	r2, [pc, #16]	; (8001eb8 <MTimer_voidPWM+0xe48>)
 8001ea8:	f043 0301 	orr.w	r3, r3, #1
 8001eac:	6013      	str	r3, [r2, #0]
 8001eae:	bf00      	nop
 8001eb0:	37c8      	adds	r7, #200	; 0xc8
 8001eb2:	46bd      	mov	sp, r7
 8001eb4:	bd80      	pop	{r7, pc}
 8001eb6:	bf00      	nop
 8001eb8:	40008000 	.word	0x40008000

08001ebc <MUART_voidEnable>:
 8001ebc:	b480      	push	{r7}
 8001ebe:	b083      	sub	sp, #12
 8001ec0:	af00      	add	r7, sp, #0
 8001ec2:	6078      	str	r0, [r7, #4]
 8001ec4:	687b      	ldr	r3, [r7, #4]
 8001ec6:	68db      	ldr	r3, [r3, #12]
 8001ec8:	f443 5200 	orr.w	r2, r3, #8192	; 0x2000
 8001ecc:	687b      	ldr	r3, [r7, #4]
 8001ece:	60da      	str	r2, [r3, #12]
 8001ed0:	bf00      	nop
 8001ed2:	370c      	adds	r7, #12
 8001ed4:	46bd      	mov	sp, r7
 8001ed6:	bc80      	pop	{r7}
 8001ed8:	4770      	bx	lr
	...

08001edc <MUART_u8ReceiveByteASynch>:
 8001edc:	b480      	push	{r7}
 8001ede:	b083      	sub	sp, #12
 8001ee0:	af00      	add	r7, sp, #0
 8001ee2:	6078      	str	r0, [r7, #4]
 8001ee4:	4b08      	ldr	r3, [pc, #32]	; (8001f08 <MUART_u8ReceiveByteASynch+0x2c>)
 8001ee6:	781b      	ldrb	r3, [r3, #0]
 8001ee8:	2b00      	cmp	r3, #0
 8001eea:	d108      	bne.n	8001efe <MUART_u8ReceiveByteASynch+0x22>
 8001eec:	4b06      	ldr	r3, [pc, #24]	; (8001f08 <MUART_u8ReceiveByteASynch+0x2c>)
 8001eee:	2201      	movs	r2, #1
 8001ef0:	701a      	strb	r2, [r3, #0]
 8001ef2:	687b      	ldr	r3, [r7, #4]
 8001ef4:	68db      	ldr	r3, [r3, #12]
 8001ef6:	f043 0220 	orr.w	r2, r3, #32
 8001efa:	687b      	ldr	r3, [r7, #4]
 8001efc:	60da      	str	r2, [r3, #12]
 8001efe:	bf00      	nop
 8001f00:	370c      	adds	r7, #12
 8001f02:	46bd      	mov	sp, r7
 8001f04:	bc80      	pop	{r7}
 8001f06:	4770      	bx	lr
 8001f08:	200000f7 	.word	0x200000f7

08001f0c <MUART_u8ReadDataRegister>:
 8001f0c:	b480      	push	{r7}
 8001f0e:	b083      	sub	sp, #12
 8001f10:	af00      	add	r7, sp, #0
 8001f12:	6078      	str	r0, [r7, #4]
 8001f14:	687b      	ldr	r3, [r7, #4]
 8001f16:	685b      	ldr	r3, [r3, #4]
 8001f18:	b2db      	uxtb	r3, r3
 8001f1a:	4618      	mov	r0, r3
 8001f1c:	370c      	adds	r7, #12
 8001f1e:	46bd      	mov	sp, r7
 8001f20:	bc80      	pop	{r7}
 8001f22:	4770      	bx	lr

08001f24 <MUART1_voidSetCallBack>:
 8001f24:	b480      	push	{r7}
 8001f26:	b083      	sub	sp, #12
 8001f28:	af00      	add	r7, sp, #0
 8001f2a:	6078      	str	r0, [r7, #4]
 8001f2c:	4a03      	ldr	r2, [pc, #12]	; (8001f3c <MUART1_voidSetCallBack+0x18>)
 8001f2e:	687b      	ldr	r3, [r7, #4]
 8001f30:	6013      	str	r3, [r2, #0]
 8001f32:	bf00      	nop
 8001f34:	370c      	adds	r7, #12
 8001f36:	46bd      	mov	sp, r7
 8001f38:	bc80      	pop	{r7}
 8001f3a:	4770      	bx	lr
 8001f3c:	200001d0 	.word	0x200001d0

08001f40 <USART1_IRQHandler>:
 8001f40:	b580      	push	{r7, lr}
 8001f42:	af00      	add	r7, sp, #0
 8001f44:	4b07      	ldr	r3, [pc, #28]	; (8001f64 <USART1_IRQHandler+0x24>)
 8001f46:	2200      	movs	r2, #0
 8001f48:	601a      	str	r2, [r3, #0]
 8001f4a:	4b07      	ldr	r3, [pc, #28]	; (8001f68 <USART1_IRQHandler+0x28>)
 8001f4c:	2200      	movs	r2, #0
 8001f4e:	701a      	strb	r2, [r3, #0]
 8001f50:	4b06      	ldr	r3, [pc, #24]	; (8001f6c <USART1_IRQHandler+0x2c>)
 8001f52:	681b      	ldr	r3, [r3, #0]
 8001f54:	2b00      	cmp	r3, #0
 8001f56:	d002      	beq.n	8001f5e <USART1_IRQHandler+0x1e>
 8001f58:	4b04      	ldr	r3, [pc, #16]	; (8001f6c <USART1_IRQHandler+0x2c>)
 8001f5a:	681b      	ldr	r3, [r3, #0]
 8001f5c:	4798      	blx	r3
 8001f5e:	bf00      	nop
 8001f60:	bd80      	pop	{r7, pc}
 8001f62:	bf00      	nop
 8001f64:	40013800 	.word	0x40013800
 8001f68:	200000f7 	.word	0x200000f7
 8001f6c:	200001d0 	.word	0x200001d0

08001f70 <USART2_IRQHandler>:
 8001f70:	b580      	push	{r7, lr}
 8001f72:	af00      	add	r7, sp, #0
 8001f74:	4b07      	ldr	r3, [pc, #28]	; (8001f94 <USART2_IRQHandler+0x24>)
 8001f76:	2200      	movs	r2, #0
 8001f78:	601a      	str	r2, [r3, #0]
 8001f7a:	4b07      	ldr	r3, [pc, #28]	; (8001f98 <USART2_IRQHandler+0x28>)
 8001f7c:	2200      	movs	r2, #0
 8001f7e:	701a      	strb	r2, [r3, #0]
 8001f80:	4b06      	ldr	r3, [pc, #24]	; (8001f9c <USART2_IRQHandler+0x2c>)
 8001f82:	681b      	ldr	r3, [r3, #0]
 8001f84:	2b00      	cmp	r3, #0
 8001f86:	d002      	beq.n	8001f8e <USART2_IRQHandler+0x1e>
 8001f88:	4b04      	ldr	r3, [pc, #16]	; (8001f9c <USART2_IRQHandler+0x2c>)
 8001f8a:	681b      	ldr	r3, [r3, #0]
 8001f8c:	4798      	blx	r3
 8001f8e:	bf00      	nop
 8001f90:	bd80      	pop	{r7, pc}
 8001f92:	bf00      	nop
 8001f94:	40004400 	.word	0x40004400
 8001f98:	200000f7 	.word	0x200000f7
 8001f9c:	200001cc 	.word	0x200001cc

08001fa0 <HUltrasonic_voidInit>:
 8001fa0:	b580      	push	{r7, lr}
 8001fa2:	b082      	sub	sp, #8
 8001fa4:	af00      	add	r7, sp, #0
 8001fa6:	4603      	mov	r3, r0
 8001fa8:	71fb      	strb	r3, [r7, #7]
 8001faa:	79fb      	ldrb	r3, [r7, #7]
 8001fac:	3b01      	subs	r3, #1
 8001fae:	2b03      	cmp	r3, #3
 8001fb0:	d84a      	bhi.n	8002048 <HUltrasonic_voidInit+0xa8>
 8001fb2:	a201      	add	r2, pc, #4	; (adr r2, 8001fb8 <HUltrasonic_voidInit+0x18>)
 8001fb4:	f852 f023 	ldr.w	pc, [r2, r3, lsl #2]
 8001fb8:	08001fc9 	.word	0x08001fc9
 8001fbc:	08001fe9 	.word	0x08001fe9
 8001fc0:	08002009 	.word	0x08002009
 8001fc4:	08002029 	.word	0x08002029
 8001fc8:	2202      	movs	r2, #2
 8001fca:	2109      	movs	r1, #9
 8001fcc:	2001      	movs	r0, #1
 8001fce:	f7fe fb13 	bl	80005f8 <GPIO_voidSetPinMode>
 8001fd2:	2208      	movs	r2, #8
 8001fd4:	210a      	movs	r1, #10
 8001fd6:	2001      	movs	r0, #1
 8001fd8:	f7fe fb0e 	bl	80005f8 <GPIO_voidSetPinMode>
 8001fdc:	2200      	movs	r2, #0
 8001fde:	210a      	movs	r1, #10
 8001fe0:	2001      	movs	r0, #1
 8001fe2:	f7fe fca9 	bl	8000938 <GPIO_voidSetPinValue>
 8001fe6:	e02f      	b.n	8002048 <HUltrasonic_voidInit+0xa8>
 8001fe8:	2202      	movs	r2, #2
 8001fea:	2102      	movs	r1, #2
 8001fec:	2001      	movs	r0, #1
 8001fee:	f7fe fb03 	bl	80005f8 <GPIO_voidSetPinMode>
 8001ff2:	2208      	movs	r2, #8
 8001ff4:	2103      	movs	r1, #3
 8001ff6:	2001      	movs	r0, #1
 8001ff8:	f7fe fafe 	bl	80005f8 <GPIO_voidSetPinMode>
 8001ffc:	2200      	movs	r2, #0
 8001ffe:	2103      	movs	r1, #3
 8002000:	2001      	movs	r0, #1
 8002002:	f7fe fc99 	bl	8000938 <GPIO_voidSetPinValue>
 8002006:	e01f      	b.n	8002048 <HUltrasonic_voidInit+0xa8>
 8002008:	2202      	movs	r2, #2
 800200a:	2104      	movs	r1, #4
 800200c:	2001      	movs	r0, #1
 800200e:	f7fe faf3 	bl	80005f8 <GPIO_voidSetPinMode>
 8002012:	2208      	movs	r2, #8
 8002014:	2105      	movs	r1, #5
 8002016:	2001      	movs	r0, #1
 8002018:	f7fe faee 	bl	80005f8 <GPIO_voidSetPinMode>
 800201c:	2200      	movs	r2, #0
 800201e:	2105      	movs	r1, #5
 8002020:	2001      	movs	r0, #1
 8002022:	f7fe fc89 	bl	8000938 <GPIO_voidSetPinValue>
 8002026:	e00f      	b.n	8002048 <HUltrasonic_voidInit+0xa8>
 8002028:	2202      	movs	r2, #2
 800202a:	2107      	movs	r1, #7
 800202c:	2001      	movs	r0, #1
 800202e:	f7fe fae3 	bl	80005f8 <GPIO_voidSetPinMode>
 8002032:	2208      	movs	r2, #8
 8002034:	2108      	movs	r1, #8
 8002036:	2001      	movs	r0, #1
 8002038:	f7fe fade 	bl	80005f8 <GPIO_voidSetPinMode>
 800203c:	2200      	movs	r2, #0
 800203e:	2108      	movs	r1, #8
 8002040:	2001      	movs	r0, #1
 8002042:	f7fe fc79 	bl	8000938 <GPIO_voidSetPinValue>
 8002046:	bf00      	nop
 8002048:	f7fe febe 	bl	8000dc8 <MSTK_voidInit>
 800204c:	bf00      	nop
 800204e:	3708      	adds	r7, #8
 8002050:	46bd      	mov	sp, r7
 8002052:	bd80      	pop	{r7, pc}

08002054 <init_conf>:
 8002054:	b580      	push	{r7, lr}
 8002056:	af00      	add	r7, sp, #0
 8002058:	f7fe fdfc 	bl	8000c54 <RCC_voidInitSysClock>
 800205c:	2102      	movs	r1, #2
 800205e:	2002      	movs	r0, #2
 8002060:	f7fe fe2a 	bl	8000cb8 <RCC_voidEnablePeripheral>
 8002064:	2103      	movs	r1, #3
 8002066:	2002      	movs	r0, #2
 8002068:	f7fe fe26 	bl	8000cb8 <RCC_voidEnablePeripheral>
 800206c:	2104      	movs	r1, #4
 800206e:	2002      	movs	r0, #2
 8002070:	f7fe fe22 	bl	8000cb8 <RCC_voidEnablePeripheral>
 8002074:	210b      	movs	r1, #11
 8002076:	2002      	movs	r0, #2
 8002078:	f7fe fe1e 	bl	8000cb8 <RCC_voidEnablePeripheral>
 800207c:	210e      	movs	r1, #14
 800207e:	2002      	movs	r0, #2
 8002080:	f7fe fe1a 	bl	8000cb8 <RCC_voidEnablePeripheral>
 8002084:	f7fe fea0 	bl	8000dc8 <MSTK_voidInit>
 8002088:	2001      	movs	r0, #1
 800208a:	f7fe fd21 	bl	8000ad0 <MOTOR_init>
 800208e:	2002      	movs	r0, #2
 8002090:	f7fe fd1e 	bl	8000ad0 <MOTOR_init>
 8002094:	2001      	movs	r0, #1
 8002096:	f7ff ff83 	bl	8001fa0 <HUltrasonic_voidInit>
 800209a:	2002      	movs	r0, #2
 800209c:	f7ff ff80 	bl	8001fa0 <HUltrasonic_voidInit>
 80020a0:	2003      	movs	r0, #3
 80020a2:	f7ff ff7d 	bl	8001fa0 <HUltrasonic_voidInit>
 80020a6:	2004      	movs	r0, #4
 80020a8:	f7ff ff7a 	bl	8001fa0 <HUltrasonic_voidInit>
 80020ac:	4805      	ldr	r0, [pc, #20]	; (80020c4 <init_conf+0x70>)
 80020ae:	f7ff ff39 	bl	8001f24 <MUART1_voidSetCallBack>
 80020b2:	4805      	ldr	r0, [pc, #20]	; (80020c8 <init_conf+0x74>)
 80020b4:	f7ff ff02 	bl	8001ebc <MUART_voidEnable>
 80020b8:	4803      	ldr	r0, [pc, #12]	; (80020c8 <init_conf+0x74>)
 80020ba:	f7ff ff0f 	bl	8001edc <MUART_u8ReceiveByteASynch>
 80020be:	bf00      	nop
 80020c0:	bd80      	pop	{r7, pc}
 80020c2:	bf00      	nop
 80020c4:	080028b5 	.word	0x080028b5
 80020c8:	40013800 	.word	0x40013800

080020cc <main>:
 80020cc:	b580      	push	{r7, lr}
 80020ce:	b082      	sub	sp, #8
 80020d0:	af00      	add	r7, sp, #0
 80020d2:	2300      	movs	r3, #0
 80020d4:	80fb      	strh	r3, [r7, #6]
 80020d6:	2300      	movs	r3, #0
 80020d8:	717b      	strb	r3, [r7, #5]
 80020da:	2300      	movs	r3, #0
 80020dc:	713b      	strb	r3, [r7, #4]
 80020de:	f7ff ffb9 	bl	8002054 <init_conf>
 80020e2:	f000 fbf7 	bl	80028d4 <ProcessingFun>
 80020e6:	4b46      	ldr	r3, [pc, #280]	; (8002200 <main+0x134>)
 80020e8:	781b      	ldrb	r3, [r3, #0]
 80020ea:	f3c3 0303 	ubfx	r3, r3, #0, #4
 80020ee:	b2db      	uxtb	r3, r3
 80020f0:	717b      	strb	r3, [r7, #5]
 80020f2:	4b43      	ldr	r3, [pc, #268]	; (8002200 <main+0x134>)
 80020f4:	781b      	ldrb	r3, [r3, #0]
 80020f6:	f3c3 1302 	ubfx	r3, r3, #4, #3
 80020fa:	b2db      	uxtb	r3, r3
 80020fc:	80fb      	strh	r3, [r7, #6]
 80020fe:	4b40      	ldr	r3, [pc, #256]	; (8002200 <main+0x134>)
 8002100:	785b      	ldrb	r3, [r3, #1]
 8002102:	f3c3 0301 	ubfx	r3, r3, #0, #2
 8002106:	b2db      	uxtb	r3, r3
 8002108:	713b      	strb	r3, [r7, #4]
 800210a:	797b      	ldrb	r3, [r7, #5]
 800210c:	2b08      	cmp	r3, #8
 800210e:	d106      	bne.n	800211e <main+0x52>
 8002110:	2001      	movs	r0, #1
 8002112:	f7fe fd7d 	bl	8000c10 <MOTOR_Stop>
 8002116:	2002      	movs	r0, #2
 8002118:	f7fe fd7a 	bl	8000c10 <MOTOR_Stop>
 800211c:	e7e1      	b.n	80020e2 <main+0x16>
 800211e:	4b39      	ldr	r3, [pc, #228]	; (8002204 <main+0x138>)
 8002120:	781b      	ldrb	r3, [r3, #0]
 8002122:	f3c3 1302 	ubfx	r3, r3, #4, #3
 8002126:	b2db      	uxtb	r3, r3
 8002128:	461a      	mov	r2, r3
 800212a:	23ff      	movs	r3, #255	; 0xff
 800212c:	4093      	lsls	r3, r2
 800212e:	b29b      	uxth	r3, r3
 8002130:	33f0      	adds	r3, #240	; 0xf0
 8002132:	80fb      	strh	r3, [r7, #6]
 8002134:	797b      	ldrb	r3, [r7, #5]
 8002136:	2b00      	cmp	r3, #0
 8002138:	d10a      	bne.n	8002150 <main+0x84>
 800213a:	88fb      	ldrh	r3, [r7, #6]
 800213c:	4619      	mov	r1, r3
 800213e:	2001      	movs	r0, #1
 8002140:	f7fe fd2e 	bl	8000ba0 <MOTOR_ClockWise>
 8002144:	88fb      	ldrh	r3, [r7, #6]
 8002146:	4619      	mov	r1, r3
 8002148:	2002      	movs	r0, #2
 800214a:	f7fe fd29 	bl	8000ba0 <MOTOR_ClockWise>
 800214e:	e7c8      	b.n	80020e2 <main+0x16>
 8002150:	797b      	ldrb	r3, [r7, #5]
 8002152:	2b01      	cmp	r3, #1
 8002154:	d10a      	bne.n	800216c <main+0xa0>
 8002156:	88fb      	ldrh	r3, [r7, #6]
 8002158:	4619      	mov	r1, r3
 800215a:	2001      	movs	r0, #1
 800215c:	f7fe fce6 	bl	8000b2c <MOTOR_CounterClockWise>
 8002160:	88fb      	ldrh	r3, [r7, #6]
 8002162:	4619      	mov	r1, r3
 8002164:	2002      	movs	r0, #2
 8002166:	f7fe fce1 	bl	8000b2c <MOTOR_CounterClockWise>
 800216a:	e7ba      	b.n	80020e2 <main+0x16>
 800216c:	797b      	ldrb	r3, [r7, #5]
 800216e:	2b02      	cmp	r3, #2
 8002170:	d108      	bne.n	8002184 <main+0xb8>
 8002172:	2001      	movs	r0, #1
 8002174:	f7fe fd4c 	bl	8000c10 <MOTOR_Stop>
 8002178:	88fb      	ldrh	r3, [r7, #6]
 800217a:	4619      	mov	r1, r3
 800217c:	2002      	movs	r0, #2
 800217e:	f7fe fd0f 	bl	8000ba0 <MOTOR_ClockWise>
 8002182:	e7ae      	b.n	80020e2 <main+0x16>
 8002184:	797b      	ldrb	r3, [r7, #5]
 8002186:	2b03      	cmp	r3, #3
 8002188:	d108      	bne.n	800219c <main+0xd0>
 800218a:	88fb      	ldrh	r3, [r7, #6]
 800218c:	4619      	mov	r1, r3
 800218e:	2001      	movs	r0, #1
 8002190:	f7fe fd06 	bl	8000ba0 <MOTOR_ClockWise>
 8002194:	2002      	movs	r0, #2
 8002196:	f7fe fd3b 	bl	8000c10 <MOTOR_Stop>
 800219a:	e7a2      	b.n	80020e2 <main+0x16>
 800219c:	797b      	ldrb	r3, [r7, #5]
 800219e:	2b04      	cmp	r3, #4
 80021a0:	d108      	bne.n	80021b4 <main+0xe8>
 80021a2:	210a      	movs	r1, #10
 80021a4:	2001      	movs	r0, #1
 80021a6:	f7fe fcfb 	bl	8000ba0 <MOTOR_ClockWise>
 80021aa:	210c      	movs	r1, #12
 80021ac:	2002      	movs	r0, #2
 80021ae:	f7fe fcf7 	bl	8000ba0 <MOTOR_ClockWise>
 80021b2:	e796      	b.n	80020e2 <main+0x16>
 80021b4:	797b      	ldrb	r3, [r7, #5]
 80021b6:	2b05      	cmp	r3, #5
 80021b8:	d108      	bne.n	80021cc <main+0x100>
 80021ba:	210a      	movs	r1, #10
 80021bc:	2001      	movs	r0, #1
 80021be:	f7fe fcef 	bl	8000ba0 <MOTOR_ClockWise>
 80021c2:	210c      	movs	r1, #12
 80021c4:	2002      	movs	r0, #2
 80021c6:	f7fe fceb 	bl	8000ba0 <MOTOR_ClockWise>
 80021ca:	e78a      	b.n	80020e2 <main+0x16>
 80021cc:	797b      	ldrb	r3, [r7, #5]
 80021ce:	2b06      	cmp	r3, #6
 80021d0:	d108      	bne.n	80021e4 <main+0x118>
 80021d2:	210a      	movs	r1, #10
 80021d4:	2001      	movs	r0, #1
 80021d6:	f7fe fca9 	bl	8000b2c <MOTOR_CounterClockWise>
 80021da:	210c      	movs	r1, #12
 80021dc:	2002      	movs	r0, #2
 80021de:	f7fe fca5 	bl	8000b2c <MOTOR_CounterClockWise>
 80021e2:	e77e      	b.n	80020e2 <main+0x16>
 80021e4:	797b      	ldrb	r3, [r7, #5]
 80021e6:	2b07      	cmp	r3, #7
 80021e8:	f47f af7b 	bne.w	80020e2 <main+0x16>
 80021ec:	210a      	movs	r1, #10
 80021ee:	2001      	movs	r0, #1
 80021f0:	f7fe fc9c 	bl	8000b2c <MOTOR_CounterClockWise>
 80021f4:	210c      	movs	r1, #12
 80021f6:	2002      	movs	r0, #2
 80021f8:	f7fe fc98 	bl	8000b2c <MOTOR_CounterClockWise>
 80021fc:	e771      	b.n	80020e2 <main+0x16>
 80021fe:	bf00      	nop
 8002200:	20000100 	.word	0x20000100
 8002204:	200000f8 	.word	0x200000f8

08002208 <APP_VoidStop>:
 8002208:	b480      	push	{r7}
 800220a:	af00      	add	r7, sp, #0
 800220c:	4a07      	ldr	r2, [pc, #28]	; (800222c <APP_VoidStop+0x24>)
 800220e:	7813      	ldrb	r3, [r2, #0]
 8002210:	2108      	movs	r1, #8
 8002212:	f361 0303 	bfi	r3, r1, #0, #4
 8002216:	7013      	strb	r3, [r2, #0]
 8002218:	4a04      	ldr	r2, [pc, #16]	; (800222c <APP_VoidStop+0x24>)
 800221a:	7853      	ldrb	r3, [r2, #1]
 800221c:	f043 0303 	orr.w	r3, r3, #3
 8002220:	7053      	strb	r3, [r2, #1]
 8002222:	bf00      	nop
 8002224:	46bd      	mov	sp, r7
 8002226:	bc80      	pop	{r7}
 8002228:	4770      	bx	lr
 800222a:	bf00      	nop
 800222c:	20000100 	.word	0x20000100

08002230 <APP_voidGoTasks>:
 8002230:	b580      	push	{r7, lr}
 8002232:	af00      	add	r7, sp, #0
 8002234:	4b3d      	ldr	r3, [pc, #244]	; (800232c <APP_voidGoTasks+0xfc>)
 8002236:	781b      	ldrb	r3, [r3, #0]
 8002238:	4618      	mov	r0, r3
 800223a:	f7fe f8d9 	bl	80003f0 <__aeabi_i2d>
 800223e:	f04f 0200 	mov.w	r2, #0
 8002242:	4b3b      	ldr	r3, [pc, #236]	; (8002330 <APP_voidGoTasks+0x100>)
 8002244:	f7fe f9a8 	bl	8000598 <__aeabi_dcmple>
 8002248:	4603      	mov	r3, r0
 800224a:	2b00      	cmp	r3, #0
 800224c:	d00b      	beq.n	8002266 <APP_voidGoTasks+0x36>
 800224e:	4a39      	ldr	r2, [pc, #228]	; (8002334 <APP_voidGoTasks+0x104>)
 8002250:	7813      	ldrb	r3, [r2, #0]
 8002252:	2108      	movs	r1, #8
 8002254:	f361 0303 	bfi	r3, r1, #0, #4
 8002258:	7013      	strb	r3, [r2, #0]
 800225a:	4a36      	ldr	r2, [pc, #216]	; (8002334 <APP_voidGoTasks+0x104>)
 800225c:	7853      	ldrb	r3, [r2, #1]
 800225e:	f043 0303 	orr.w	r3, r3, #3
 8002262:	7053      	strb	r3, [r2, #1]
 8002264:	e060      	b.n	8002328 <APP_voidGoTasks+0xf8>
 8002266:	4b31      	ldr	r3, [pc, #196]	; (800232c <APP_voidGoTasks+0xfc>)
 8002268:	781b      	ldrb	r3, [r3, #0]
 800226a:	4618      	mov	r0, r3
 800226c:	f7fe f8c0 	bl	80003f0 <__aeabi_i2d>
 8002270:	f04f 0200 	mov.w	r2, #0
 8002274:	4b30      	ldr	r3, [pc, #192]	; (8002338 <APP_voidGoTasks+0x108>)
 8002276:	f7fe f98f 	bl	8000598 <__aeabi_dcmple>
 800227a:	4603      	mov	r3, r0
 800227c:	2b00      	cmp	r3, #0
 800227e:	d03f      	beq.n	8002300 <APP_voidGoTasks+0xd0>
 8002280:	4b2e      	ldr	r3, [pc, #184]	; (800233c <APP_voidGoTasks+0x10c>)
 8002282:	781b      	ldrb	r3, [r3, #0]
 8002284:	f3c3 1302 	ubfx	r3, r3, #4, #3
 8002288:	b2db      	uxtb	r3, r3
 800228a:	461a      	mov	r2, r3
 800228c:	4b2c      	ldr	r3, [pc, #176]	; (8002340 <APP_voidGoTasks+0x110>)
 800228e:	781b      	ldrb	r3, [r3, #0]
 8002290:	429a      	cmp	r2, r3
 8002292:	dc1a      	bgt.n	80022ca <APP_voidGoTasks+0x9a>
 8002294:	4a27      	ldr	r2, [pc, #156]	; (8002334 <APP_voidGoTasks+0x104>)
 8002296:	7853      	ldrb	r3, [r2, #1]
 8002298:	2101      	movs	r1, #1
 800229a:	f361 0301 	bfi	r3, r1, #0, #2
 800229e:	7053      	strb	r3, [r2, #1]
 80022a0:	4b26      	ldr	r3, [pc, #152]	; (800233c <APP_voidGoTasks+0x10c>)
 80022a2:	781b      	ldrb	r3, [r3, #0]
 80022a4:	f3c3 0303 	ubfx	r3, r3, #0, #4
 80022a8:	b2d9      	uxtb	r1, r3
 80022aa:	4a22      	ldr	r2, [pc, #136]	; (8002334 <APP_voidGoTasks+0x104>)
 80022ac:	7813      	ldrb	r3, [r2, #0]
 80022ae:	f361 0303 	bfi	r3, r1, #0, #4
 80022b2:	7013      	strb	r3, [r2, #0]
 80022b4:	4b21      	ldr	r3, [pc, #132]	; (800233c <APP_voidGoTasks+0x10c>)
 80022b6:	781b      	ldrb	r3, [r3, #0]
 80022b8:	f3c3 1302 	ubfx	r3, r3, #4, #3
 80022bc:	b2d9      	uxtb	r1, r3
 80022be:	4a1d      	ldr	r2, [pc, #116]	; (8002334 <APP_voidGoTasks+0x104>)
 80022c0:	7813      	ldrb	r3, [r2, #0]
 80022c2:	f361 1306 	bfi	r3, r1, #4, #3
 80022c6:	7013      	strb	r3, [r2, #0]
 80022c8:	e02e      	b.n	8002328 <APP_voidGoTasks+0xf8>
 80022ca:	4a1a      	ldr	r2, [pc, #104]	; (8002334 <APP_voidGoTasks+0x104>)
 80022cc:	7853      	ldrb	r3, [r2, #1]
 80022ce:	2102      	movs	r1, #2
 80022d0:	f361 0301 	bfi	r3, r1, #0, #2
 80022d4:	7053      	strb	r3, [r2, #1]
 80022d6:	4b19      	ldr	r3, [pc, #100]	; (800233c <APP_voidGoTasks+0x10c>)
 80022d8:	781b      	ldrb	r3, [r3, #0]
 80022da:	f3c3 0303 	ubfx	r3, r3, #0, #4
 80022de:	b2d9      	uxtb	r1, r3
 80022e0:	4a14      	ldr	r2, [pc, #80]	; (8002334 <APP_voidGoTasks+0x104>)
 80022e2:	7813      	ldrb	r3, [r2, #0]
 80022e4:	f361 0303 	bfi	r3, r1, #0, #4
 80022e8:	7013      	strb	r3, [r2, #0]
 80022ea:	4b14      	ldr	r3, [pc, #80]	; (800233c <APP_voidGoTasks+0x10c>)
 80022ec:	781b      	ldrb	r3, [r3, #0]
 80022ee:	f3c3 1302 	ubfx	r3, r3, #4, #3
 80022f2:	b2d9      	uxtb	r1, r3
 80022f4:	4a0f      	ldr	r2, [pc, #60]	; (8002334 <APP_voidGoTasks+0x104>)
 80022f6:	7813      	ldrb	r3, [r2, #0]
 80022f8:	f361 1306 	bfi	r3, r1, #4, #3
 80022fc:	7013      	strb	r3, [r2, #0]
 80022fe:	e013      	b.n	8002328 <APP_voidGoTasks+0xf8>
 8002300:	4a0c      	ldr	r2, [pc, #48]	; (8002334 <APP_voidGoTasks+0x104>)
 8002302:	7853      	ldrb	r3, [r2, #1]
 8002304:	f36f 0301 	bfc	r3, #0, #2
 8002308:	7053      	strb	r3, [r2, #1]
 800230a:	4b0c      	ldr	r3, [pc, #48]	; (800233c <APP_voidGoTasks+0x10c>)
 800230c:	781b      	ldrb	r3, [r3, #0]
 800230e:	f3c3 0303 	ubfx	r3, r3, #0, #4
 8002312:	b2d9      	uxtb	r1, r3
 8002314:	4a07      	ldr	r2, [pc, #28]	; (8002334 <APP_voidGoTasks+0x104>)
 8002316:	7813      	ldrb	r3, [r2, #0]
 8002318:	f361 0303 	bfi	r3, r1, #0, #4
 800231c:	7013      	strb	r3, [r2, #0]
 800231e:	4a05      	ldr	r2, [pc, #20]	; (8002334 <APP_voidGoTasks+0x104>)
 8002320:	7813      	ldrb	r3, [r2, #0]
 8002322:	f043 0370 	orr.w	r3, r3, #112	; 0x70
 8002326:	7013      	strb	r3, [r2, #0]
 8002328:	bf00      	nop
 800232a:	bd80      	pop	{r7, pc}
 800232c:	200000fc 	.word	0x200000fc
 8002330:	40240000 	.word	0x40240000
 8002334:	20000100 	.word	0x20000100
 8002338:	40340000 	.word	0x40340000
 800233c:	200000f8 	.word	0x200000f8
 8002340:	200000ca 	.word	0x200000ca

08002344 <APP_voidBackTasks>:
 8002344:	b580      	push	{r7, lr}
 8002346:	af00      	add	r7, sp, #0
 8002348:	4b3d      	ldr	r3, [pc, #244]	; (8002440 <APP_voidBackTasks+0xfc>)
 800234a:	785b      	ldrb	r3, [r3, #1]
 800234c:	4618      	mov	r0, r3
 800234e:	f7fe f84f 	bl	80003f0 <__aeabi_i2d>
 8002352:	f04f 0200 	mov.w	r2, #0
 8002356:	4b3b      	ldr	r3, [pc, #236]	; (8002444 <APP_voidBackTasks+0x100>)
 8002358:	f7fe f91e 	bl	8000598 <__aeabi_dcmple>
 800235c:	4603      	mov	r3, r0
 800235e:	2b00      	cmp	r3, #0
 8002360:	d00b      	beq.n	800237a <APP_voidBackTasks+0x36>
 8002362:	4a39      	ldr	r2, [pc, #228]	; (8002448 <APP_voidBackTasks+0x104>)
 8002364:	7813      	ldrb	r3, [r2, #0]
 8002366:	2108      	movs	r1, #8
 8002368:	f361 0303 	bfi	r3, r1, #0, #4
 800236c:	7013      	strb	r3, [r2, #0]
 800236e:	4a36      	ldr	r2, [pc, #216]	; (8002448 <APP_voidBackTasks+0x104>)
 8002370:	7853      	ldrb	r3, [r2, #1]
 8002372:	f043 0303 	orr.w	r3, r3, #3
 8002376:	7053      	strb	r3, [r2, #1]
 8002378:	e060      	b.n	800243c <APP_voidBackTasks+0xf8>
 800237a:	4b31      	ldr	r3, [pc, #196]	; (8002440 <APP_voidBackTasks+0xfc>)
 800237c:	785b      	ldrb	r3, [r3, #1]
 800237e:	4618      	mov	r0, r3
 8002380:	f7fe f836 	bl	80003f0 <__aeabi_i2d>
 8002384:	f04f 0200 	mov.w	r2, #0
 8002388:	4b30      	ldr	r3, [pc, #192]	; (800244c <APP_voidBackTasks+0x108>)
 800238a:	f7fe f905 	bl	8000598 <__aeabi_dcmple>
 800238e:	4603      	mov	r3, r0
 8002390:	2b00      	cmp	r3, #0
 8002392:	d03f      	beq.n	8002414 <APP_voidBackTasks+0xd0>
 8002394:	4b2e      	ldr	r3, [pc, #184]	; (8002450 <APP_voidBackTasks+0x10c>)
 8002396:	781b      	ldrb	r3, [r3, #0]
 8002398:	f3c3 1302 	ubfx	r3, r3, #4, #3
 800239c:	b2db      	uxtb	r3, r3
 800239e:	461a      	mov	r2, r3
 80023a0:	4b2c      	ldr	r3, [pc, #176]	; (8002454 <APP_voidBackTasks+0x110>)
 80023a2:	781b      	ldrb	r3, [r3, #0]
 80023a4:	429a      	cmp	r2, r3
 80023a6:	dc1a      	bgt.n	80023de <APP_voidBackTasks+0x9a>
 80023a8:	4a27      	ldr	r2, [pc, #156]	; (8002448 <APP_voidBackTasks+0x104>)
 80023aa:	7853      	ldrb	r3, [r2, #1]
 80023ac:	2101      	movs	r1, #1
 80023ae:	f361 0301 	bfi	r3, r1, #0, #2
 80023b2:	7053      	strb	r3, [r2, #1]
 80023b4:	4b26      	ldr	r3, [pc, #152]	; (8002450 <APP_voidBackTasks+0x10c>)
 80023b6:	781b      	ldrb	r3, [r3, #0]
 80023b8:	f3c3 0303 	ubfx	r3, r3, #0, #4
 80023bc:	b2d9      	uxtb	r1, r3
 80023be:	4a22      	ldr	r2, [pc, #136]	; (8002448 <APP_voidBackTasks+0x104>)
 80023c0:	7813      	ldrb	r3, [r2, #0]
 80023c2:	f361 0303 	bfi	r3, r1, #0, #4
 80023c6:	7013      	strb	r3, [r2, #0]
 80023c8:	4b21      	ldr	r3, [pc, #132]	; (8002450 <APP_voidBackTasks+0x10c>)
 80023ca:	781b      	ldrb	r3, [r3, #0]
 80023cc:	f3c3 1302 	ubfx	r3, r3, #4, #3
 80023d0:	b2d9      	uxtb	r1, r3
 80023d2:	4a1d      	ldr	r2, [pc, #116]	; (8002448 <APP_voidBackTasks+0x104>)
 80023d4:	7813      	ldrb	r3, [r2, #0]
 80023d6:	f361 1306 	bfi	r3, r1, #4, #3
 80023da:	7013      	strb	r3, [r2, #0]
 80023dc:	e02e      	b.n	800243c <APP_voidBackTasks+0xf8>
 80023de:	4a1a      	ldr	r2, [pc, #104]	; (8002448 <APP_voidBackTasks+0x104>)
 80023e0:	7853      	ldrb	r3, [r2, #1]
 80023e2:	2102      	movs	r1, #2
 80023e4:	f361 0301 	bfi	r3, r1, #0, #2
 80023e8:	7053      	strb	r3, [r2, #1]
 80023ea:	4b19      	ldr	r3, [pc, #100]	; (8002450 <APP_voidBackTasks+0x10c>)
 80023ec:	781b      	ldrb	r3, [r3, #0]
 80023ee:	f3c3 0303 	ubfx	r3, r3, #0, #4
 80023f2:	b2d9      	uxtb	r1, r3
 80023f4:	4a14      	ldr	r2, [pc, #80]	; (8002448 <APP_voidBackTasks+0x104>)
 80023f6:	7813      	ldrb	r3, [r2, #0]
 80023f8:	f361 0303 	bfi	r3, r1, #0, #4
 80023fc:	7013      	strb	r3, [r2, #0]
 80023fe:	4b15      	ldr	r3, [pc, #84]	; (8002454 <APP_voidBackTasks+0x110>)
 8002400:	781b      	ldrb	r3, [r3, #0]
 8002402:	f003 0307 	and.w	r3, r3, #7
 8002406:	b2d9      	uxtb	r1, r3
 8002408:	4a0f      	ldr	r2, [pc, #60]	; (8002448 <APP_voidBackTasks+0x104>)
 800240a:	7813      	ldrb	r3, [r2, #0]
 800240c:	f361 1306 	bfi	r3, r1, #4, #3
 8002410:	7013      	strb	r3, [r2, #0]
 8002412:	e013      	b.n	800243c <APP_voidBackTasks+0xf8>
 8002414:	4a0c      	ldr	r2, [pc, #48]	; (8002448 <APP_voidBackTasks+0x104>)
 8002416:	7853      	ldrb	r3, [r2, #1]
 8002418:	f36f 0301 	bfc	r3, #0, #2
 800241c:	7053      	strb	r3, [r2, #1]
 800241e:	4b0c      	ldr	r3, [pc, #48]	; (8002450 <APP_voidBackTasks+0x10c>)
 8002420:	781b      	ldrb	r3, [r3, #0]
 8002422:	f3c3 0303 	ubfx	r3, r3, #0, #4
 8002426:	b2d9      	uxtb	r1, r3
 8002428:	4a07      	ldr	r2, [pc, #28]	; (8002448 <APP_voidBackTasks+0x104>)
 800242a:	7813      	ldrb	r3, [r2, #0]
 800242c:	f361 0303 	bfi	r3, r1, #0, #4
 8002430:	7013      	strb	r3, [r2, #0]
 8002432:	4a05      	ldr	r2, [pc, #20]	; (8002448 <APP_voidBackTasks+0x104>)
 8002434:	7813      	ldrb	r3, [r2, #0]
 8002436:	f043 0370 	orr.w	r3, r3, #112	; 0x70
 800243a:	7013      	strb	r3, [r2, #0]
 800243c:	bf00      	nop
 800243e:	bd80      	pop	{r7, pc}
 8002440:	200000fc 	.word	0x200000fc
 8002444:	40240000 	.word	0x40240000
 8002448:	20000100 	.word	0x20000100
 800244c:	40340000 	.word	0x40340000
 8002450:	200000f8 	.word	0x200000f8
 8002454:	200000ca 	.word	0x200000ca

08002458 <APP_voidBackward_RightTasks>:
 8002458:	b580      	push	{r7, lr}
 800245a:	af00      	add	r7, sp, #0
 800245c:	4b3d      	ldr	r3, [pc, #244]	; (8002554 <APP_voidBackward_RightTasks+0xfc>)
 800245e:	789b      	ldrb	r3, [r3, #2]
 8002460:	4618      	mov	r0, r3
 8002462:	f7fd ffc5 	bl	80003f0 <__aeabi_i2d>
 8002466:	f04f 0200 	mov.w	r2, #0
 800246a:	4b3b      	ldr	r3, [pc, #236]	; (8002558 <APP_voidBackward_RightTasks+0x100>)
 800246c:	f7fe f894 	bl	8000598 <__aeabi_dcmple>
 8002470:	4603      	mov	r3, r0
 8002472:	2b00      	cmp	r3, #0
 8002474:	d00b      	beq.n	800248e <APP_voidBackward_RightTasks+0x36>
 8002476:	4a39      	ldr	r2, [pc, #228]	; (800255c <APP_voidBackward_RightTasks+0x104>)
 8002478:	7813      	ldrb	r3, [r2, #0]
 800247a:	2108      	movs	r1, #8
 800247c:	f361 0303 	bfi	r3, r1, #0, #4
 8002480:	7013      	strb	r3, [r2, #0]
 8002482:	4a36      	ldr	r2, [pc, #216]	; (800255c <APP_voidBackward_RightTasks+0x104>)
 8002484:	7853      	ldrb	r3, [r2, #1]
 8002486:	f043 0303 	orr.w	r3, r3, #3
 800248a:	7053      	strb	r3, [r2, #1]
 800248c:	e060      	b.n	8002550 <APP_voidBackward_RightTasks+0xf8>
 800248e:	4b31      	ldr	r3, [pc, #196]	; (8002554 <APP_voidBackward_RightTasks+0xfc>)
 8002490:	789b      	ldrb	r3, [r3, #2]
 8002492:	4618      	mov	r0, r3
 8002494:	f7fd ffac 	bl	80003f0 <__aeabi_i2d>
 8002498:	f04f 0200 	mov.w	r2, #0
 800249c:	4b30      	ldr	r3, [pc, #192]	; (8002560 <APP_voidBackward_RightTasks+0x108>)
 800249e:	f7fe f87b 	bl	8000598 <__aeabi_dcmple>
 80024a2:	4603      	mov	r3, r0
 80024a4:	2b00      	cmp	r3, #0
 80024a6:	d03f      	beq.n	8002528 <APP_voidBackward_RightTasks+0xd0>
 80024a8:	4b2e      	ldr	r3, [pc, #184]	; (8002564 <APP_voidBackward_RightTasks+0x10c>)
 80024aa:	781b      	ldrb	r3, [r3, #0]
 80024ac:	f3c3 1302 	ubfx	r3, r3, #4, #3
 80024b0:	b2db      	uxtb	r3, r3
 80024b2:	461a      	mov	r2, r3
 80024b4:	4b2c      	ldr	r3, [pc, #176]	; (8002568 <APP_voidBackward_RightTasks+0x110>)
 80024b6:	781b      	ldrb	r3, [r3, #0]
 80024b8:	429a      	cmp	r2, r3
 80024ba:	dc1a      	bgt.n	80024f2 <APP_voidBackward_RightTasks+0x9a>
 80024bc:	4a27      	ldr	r2, [pc, #156]	; (800255c <APP_voidBackward_RightTasks+0x104>)
 80024be:	7853      	ldrb	r3, [r2, #1]
 80024c0:	2101      	movs	r1, #1
 80024c2:	f361 0301 	bfi	r3, r1, #0, #2
 80024c6:	7053      	strb	r3, [r2, #1]
 80024c8:	4b26      	ldr	r3, [pc, #152]	; (8002564 <APP_voidBackward_RightTasks+0x10c>)
 80024ca:	781b      	ldrb	r3, [r3, #0]
 80024cc:	f3c3 0303 	ubfx	r3, r3, #0, #4
 80024d0:	b2d9      	uxtb	r1, r3
 80024d2:	4a22      	ldr	r2, [pc, #136]	; (800255c <APP_voidBackward_RightTasks+0x104>)
 80024d4:	7813      	ldrb	r3, [r2, #0]
 80024d6:	f361 0303 	bfi	r3, r1, #0, #4
 80024da:	7013      	strb	r3, [r2, #0]
 80024dc:	4b21      	ldr	r3, [pc, #132]	; (8002564 <APP_voidBackward_RightTasks+0x10c>)
 80024de:	781b      	ldrb	r3, [r3, #0]
 80024e0:	f3c3 1302 	ubfx	r3, r3, #4, #3
 80024e4:	b2d9      	uxtb	r1, r3
 80024e6:	4a1d      	ldr	r2, [pc, #116]	; (800255c <APP_voidBackward_RightTasks+0x104>)
 80024e8:	7813      	ldrb	r3, [r2, #0]
 80024ea:	f361 1306 	bfi	r3, r1, #4, #3
 80024ee:	7013      	strb	r3, [r2, #0]
 80024f0:	e02e      	b.n	8002550 <APP_voidBackward_RightTasks+0xf8>
 80024f2:	4a1a      	ldr	r2, [pc, #104]	; (800255c <APP_voidBackward_RightTasks+0x104>)
 80024f4:	7853      	ldrb	r3, [r2, #1]
 80024f6:	2102      	movs	r1, #2
 80024f8:	f361 0301 	bfi	r3, r1, #0, #2
 80024fc:	7053      	strb	r3, [r2, #1]
 80024fe:	4b19      	ldr	r3, [pc, #100]	; (8002564 <APP_voidBackward_RightTasks+0x10c>)
 8002500:	781b      	ldrb	r3, [r3, #0]
 8002502:	f3c3 0303 	ubfx	r3, r3, #0, #4
 8002506:	b2d9      	uxtb	r1, r3
 8002508:	4a14      	ldr	r2, [pc, #80]	; (800255c <APP_voidBackward_RightTasks+0x104>)
 800250a:	7813      	ldrb	r3, [r2, #0]
 800250c:	f361 0303 	bfi	r3, r1, #0, #4
 8002510:	7013      	strb	r3, [r2, #0]
 8002512:	4b15      	ldr	r3, [pc, #84]	; (8002568 <APP_voidBackward_RightTasks+0x110>)
 8002514:	781b      	ldrb	r3, [r3, #0]
 8002516:	f003 0307 	and.w	r3, r3, #7
 800251a:	b2d9      	uxtb	r1, r3
 800251c:	4a0f      	ldr	r2, [pc, #60]	; (800255c <APP_voidBackward_RightTasks+0x104>)
 800251e:	7813      	ldrb	r3, [r2, #0]
 8002520:	f361 1306 	bfi	r3, r1, #4, #3
 8002524:	7013      	strb	r3, [r2, #0]
 8002526:	e013      	b.n	8002550 <APP_voidBackward_RightTasks+0xf8>
 8002528:	4a0c      	ldr	r2, [pc, #48]	; (800255c <APP_voidBackward_RightTasks+0x104>)
 800252a:	7853      	ldrb	r3, [r2, #1]
 800252c:	f36f 0301 	bfc	r3, #0, #2
 8002530:	7053      	strb	r3, [r2, #1]
 8002532:	4b0c      	ldr	r3, [pc, #48]	; (8002564 <APP_voidBackward_RightTasks+0x10c>)
 8002534:	781b      	ldrb	r3, [r3, #0]
 8002536:	f3c3 0303 	ubfx	r3, r3, #0, #4
 800253a:	b2d9      	uxtb	r1, r3
 800253c:	4a07      	ldr	r2, [pc, #28]	; (800255c <APP_voidBackward_RightTasks+0x104>)
 800253e:	7813      	ldrb	r3, [r2, #0]
 8002540:	f361 0303 	bfi	r3, r1, #0, #4
 8002544:	7013      	strb	r3, [r2, #0]
 8002546:	4a05      	ldr	r2, [pc, #20]	; (800255c <APP_voidBackward_RightTasks+0x104>)
 8002548:	7813      	ldrb	r3, [r2, #0]
 800254a:	f043 0370 	orr.w	r3, r3, #112	; 0x70
 800254e:	7013      	strb	r3, [r2, #0]
 8002550:	bf00      	nop
 8002552:	bd80      	pop	{r7, pc}
 8002554:	200000fc 	.word	0x200000fc
 8002558:	40240000 	.word	0x40240000
 800255c:	20000100 	.word	0x20000100
 8002560:	40340000 	.word	0x40340000
 8002564:	200000f8 	.word	0x200000f8
 8002568:	200000ca 	.word	0x200000ca

0800256c <APP_voidBackward_LEFTTasks>:
 800256c:	b580      	push	{r7, lr}
 800256e:	af00      	add	r7, sp, #0
 8002570:	4b3d      	ldr	r3, [pc, #244]	; (8002668 <APP_voidBackward_LEFTTasks+0xfc>)
 8002572:	78db      	ldrb	r3, [r3, #3]
 8002574:	4618      	mov	r0, r3
 8002576:	f7fd ff3b 	bl	80003f0 <__aeabi_i2d>
 800257a:	f04f 0200 	mov.w	r2, #0
 800257e:	4b3b      	ldr	r3, [pc, #236]	; (800266c <APP_voidBackward_LEFTTasks+0x100>)
 8002580:	f7fe f80a 	bl	8000598 <__aeabi_dcmple>
 8002584:	4603      	mov	r3, r0
 8002586:	2b00      	cmp	r3, #0
 8002588:	d00b      	beq.n	80025a2 <APP_voidBackward_LEFTTasks+0x36>
 800258a:	4a39      	ldr	r2, [pc, #228]	; (8002670 <APP_voidBackward_LEFTTasks+0x104>)
 800258c:	7813      	ldrb	r3, [r2, #0]
 800258e:	2108      	movs	r1, #8
 8002590:	f361 0303 	bfi	r3, r1, #0, #4
 8002594:	7013      	strb	r3, [r2, #0]
 8002596:	4a36      	ldr	r2, [pc, #216]	; (8002670 <APP_voidBackward_LEFTTasks+0x104>)
 8002598:	7853      	ldrb	r3, [r2, #1]
 800259a:	f043 0303 	orr.w	r3, r3, #3
 800259e:	7053      	strb	r3, [r2, #1]
 80025a0:	e060      	b.n	8002664 <APP_voidBackward_LEFTTasks+0xf8>
 80025a2:	4b31      	ldr	r3, [pc, #196]	; (8002668 <APP_voidBackward_LEFTTasks+0xfc>)
 80025a4:	78db      	ldrb	r3, [r3, #3]
 80025a6:	4618      	mov	r0, r3
 80025a8:	f7fd ff22 	bl	80003f0 <__aeabi_i2d>
 80025ac:	f04f 0200 	mov.w	r2, #0
 80025b0:	4b30      	ldr	r3, [pc, #192]	; (8002674 <APP_voidBackward_LEFTTasks+0x108>)
 80025b2:	f7fd fff1 	bl	8000598 <__aeabi_dcmple>
 80025b6:	4603      	mov	r3, r0
 80025b8:	2b00      	cmp	r3, #0
 80025ba:	d03f      	beq.n	800263c <APP_voidBackward_LEFTTasks+0xd0>
 80025bc:	4b2e      	ldr	r3, [pc, #184]	; (8002678 <APP_voidBackward_LEFTTasks+0x10c>)
 80025be:	781b      	ldrb	r3, [r3, #0]
 80025c0:	f3c3 1302 	ubfx	r3, r3, #4, #3
 80025c4:	b2db      	uxtb	r3, r3
 80025c6:	461a      	mov	r2, r3
 80025c8:	4b2c      	ldr	r3, [pc, #176]	; (800267c <APP_voidBackward_LEFTTasks+0x110>)
 80025ca:	781b      	ldrb	r3, [r3, #0]
 80025cc:	429a      	cmp	r2, r3
 80025ce:	dc1a      	bgt.n	8002606 <APP_voidBackward_LEFTTasks+0x9a>
 80025d0:	4a27      	ldr	r2, [pc, #156]	; (8002670 <APP_voidBackward_LEFTTasks+0x104>)
 80025d2:	7853      	ldrb	r3, [r2, #1]
 80025d4:	2101      	movs	r1, #1
 80025d6:	f361 0301 	bfi	r3, r1, #0, #2
 80025da:	7053      	strb	r3, [r2, #1]
 80025dc:	4b26      	ldr	r3, [pc, #152]	; (8002678 <APP_voidBackward_LEFTTasks+0x10c>)
 80025de:	781b      	ldrb	r3, [r3, #0]
 80025e0:	f3c3 0303 	ubfx	r3, r3, #0, #4
 80025e4:	b2d9      	uxtb	r1, r3
 80025e6:	4a22      	ldr	r2, [pc, #136]	; (8002670 <APP_voidBackward_LEFTTasks+0x104>)
 80025e8:	7813      	ldrb	r3, [r2, #0]
 80025ea:	f361 0303 	bfi	r3, r1, #0, #4
 80025ee:	7013      	strb	r3, [r2, #0]
 80025f0:	4b21      	ldr	r3, [pc, #132]	; (8002678 <APP_voidBackward_LEFTTasks+0x10c>)
 80025f2:	781b      	ldrb	r3, [r3, #0]
 80025f4:	f3c3 1302 	ubfx	r3, r3, #4, #3
 80025f8:	b2d9      	uxtb	r1, r3
 80025fa:	4a1d      	ldr	r2, [pc, #116]	; (8002670 <APP_voidBackward_LEFTTasks+0x104>)
 80025fc:	7813      	ldrb	r3, [r2, #0]
 80025fe:	f361 1306 	bfi	r3, r1, #4, #3
 8002602:	7013      	strb	r3, [r2, #0]
 8002604:	e02e      	b.n	8002664 <APP_voidBackward_LEFTTasks+0xf8>
 8002606:	4a1a      	ldr	r2, [pc, #104]	; (8002670 <APP_voidBackward_LEFTTasks+0x104>)
 8002608:	7853      	ldrb	r3, [r2, #1]
 800260a:	2102      	movs	r1, #2
 800260c:	f361 0301 	bfi	r3, r1, #0, #2
 8002610:	7053      	strb	r3, [r2, #1]
 8002612:	4b19      	ldr	r3, [pc, #100]	; (8002678 <APP_voidBackward_LEFTTasks+0x10c>)
 8002614:	781b      	ldrb	r3, [r3, #0]
 8002616:	f3c3 0303 	ubfx	r3, r3, #0, #4
 800261a:	b2d9      	uxtb	r1, r3
 800261c:	4a14      	ldr	r2, [pc, #80]	; (8002670 <APP_voidBackward_LEFTTasks+0x104>)
 800261e:	7813      	ldrb	r3, [r2, #0]
 8002620:	f361 0303 	bfi	r3, r1, #0, #4
 8002624:	7013      	strb	r3, [r2, #0]
 8002626:	4b15      	ldr	r3, [pc, #84]	; (800267c <APP_voidBackward_LEFTTasks+0x110>)
 8002628:	781b      	ldrb	r3, [r3, #0]
 800262a:	f003 0307 	and.w	r3, r3, #7
 800262e:	b2d9      	uxtb	r1, r3
 8002630:	4a0f      	ldr	r2, [pc, #60]	; (8002670 <APP_voidBackward_LEFTTasks+0x104>)
 8002632:	7813      	ldrb	r3, [r2, #0]
 8002634:	f361 1306 	bfi	r3, r1, #4, #3
 8002638:	7013      	strb	r3, [r2, #0]
 800263a:	e013      	b.n	8002664 <APP_voidBackward_LEFTTasks+0xf8>
 800263c:	4a0c      	ldr	r2, [pc, #48]	; (8002670 <APP_voidBackward_LEFTTasks+0x104>)
 800263e:	7853      	ldrb	r3, [r2, #1]
 8002640:	f36f 0301 	bfc	r3, #0, #2
 8002644:	7053      	strb	r3, [r2, #1]
 8002646:	4b0c      	ldr	r3, [pc, #48]	; (8002678 <APP_voidBackward_LEFTTasks+0x10c>)
 8002648:	781b      	ldrb	r3, [r3, #0]
 800264a:	f3c3 0303 	ubfx	r3, r3, #0, #4
 800264e:	b2d9      	uxtb	r1, r3
 8002650:	4a07      	ldr	r2, [pc, #28]	; (8002670 <APP_voidBackward_LEFTTasks+0x104>)
 8002652:	7813      	ldrb	r3, [r2, #0]
 8002654:	f361 0303 	bfi	r3, r1, #0, #4
 8002658:	7013      	strb	r3, [r2, #0]
 800265a:	4a05      	ldr	r2, [pc, #20]	; (8002670 <APP_voidBackward_LEFTTasks+0x104>)
 800265c:	7813      	ldrb	r3, [r2, #0]
 800265e:	f043 0370 	orr.w	r3, r3, #112	; 0x70
 8002662:	7013      	strb	r3, [r2, #0]
 8002664:	bf00      	nop
 8002666:	bd80      	pop	{r7, pc}
 8002668:	200000fc 	.word	0x200000fc
 800266c:	40240000 	.word	0x40240000
 8002670:	20000100 	.word	0x20000100
 8002674:	40340000 	.word	0x40340000
 8002678:	200000f8 	.word	0x200000f8
 800267c:	200000ca 	.word	0x200000ca

08002680 <APP_voidRight_LeftTasks>:
 8002680:	b480      	push	{r7}
 8002682:	af00      	add	r7, sp, #0
 8002684:	bf00      	nop
 8002686:	46bd      	mov	sp, r7
 8002688:	bc80      	pop	{r7}
 800268a:	4770      	bx	lr

0800268c <APP_voidForward_RightTasks>:
 800268c:	b580      	push	{r7, lr}
 800268e:	af00      	add	r7, sp, #0
 8002690:	4b3d      	ldr	r3, [pc, #244]	; (8002788 <APP_voidForward_RightTasks+0xfc>)
 8002692:	78db      	ldrb	r3, [r3, #3]
 8002694:	4618      	mov	r0, r3
 8002696:	f7fd feab 	bl	80003f0 <__aeabi_i2d>
 800269a:	f04f 0200 	mov.w	r2, #0
 800269e:	4b3b      	ldr	r3, [pc, #236]	; (800278c <APP_voidForward_RightTasks+0x100>)
 80026a0:	f7fd ff7a 	bl	8000598 <__aeabi_dcmple>
 80026a4:	4603      	mov	r3, r0
 80026a6:	2b00      	cmp	r3, #0
 80026a8:	d00b      	beq.n	80026c2 <APP_voidForward_RightTasks+0x36>
 80026aa:	4a39      	ldr	r2, [pc, #228]	; (8002790 <APP_voidForward_RightTasks+0x104>)
 80026ac:	7813      	ldrb	r3, [r2, #0]
 80026ae:	2108      	movs	r1, #8
 80026b0:	f361 0303 	bfi	r3, r1, #0, #4
 80026b4:	7013      	strb	r3, [r2, #0]
 80026b6:	4a36      	ldr	r2, [pc, #216]	; (8002790 <APP_voidForward_RightTasks+0x104>)
 80026b8:	7853      	ldrb	r3, [r2, #1]
 80026ba:	f043 0303 	orr.w	r3, r3, #3
 80026be:	7053      	strb	r3, [r2, #1]
 80026c0:	e060      	b.n	8002784 <APP_voidForward_RightTasks+0xf8>
 80026c2:	4b31      	ldr	r3, [pc, #196]	; (8002788 <APP_voidForward_RightTasks+0xfc>)
 80026c4:	78db      	ldrb	r3, [r3, #3]
 80026c6:	4618      	mov	r0, r3
 80026c8:	f7fd fe92 	bl	80003f0 <__aeabi_i2d>
 80026cc:	f04f 0200 	mov.w	r2, #0
 80026d0:	4b30      	ldr	r3, [pc, #192]	; (8002794 <APP_voidForward_RightTasks+0x108>)
 80026d2:	f7fd ff61 	bl	8000598 <__aeabi_dcmple>
 80026d6:	4603      	mov	r3, r0
 80026d8:	2b00      	cmp	r3, #0
 80026da:	d03f      	beq.n	800275c <APP_voidForward_RightTasks+0xd0>
 80026dc:	4b2e      	ldr	r3, [pc, #184]	; (8002798 <APP_voidForward_RightTasks+0x10c>)
 80026de:	781b      	ldrb	r3, [r3, #0]
 80026e0:	f3c3 1302 	ubfx	r3, r3, #4, #3
 80026e4:	b2db      	uxtb	r3, r3
 80026e6:	461a      	mov	r2, r3
 80026e8:	4b2c      	ldr	r3, [pc, #176]	; (800279c <APP_voidForward_RightTasks+0x110>)
 80026ea:	781b      	ldrb	r3, [r3, #0]
 80026ec:	429a      	cmp	r2, r3
 80026ee:	dc1a      	bgt.n	8002726 <APP_voidForward_RightTasks+0x9a>
 80026f0:	4a27      	ldr	r2, [pc, #156]	; (8002790 <APP_voidForward_RightTasks+0x104>)
 80026f2:	7853      	ldrb	r3, [r2, #1]
 80026f4:	2101      	movs	r1, #1
 80026f6:	f361 0301 	bfi	r3, r1, #0, #2
 80026fa:	7053      	strb	r3, [r2, #1]
 80026fc:	4b26      	ldr	r3, [pc, #152]	; (8002798 <APP_voidForward_RightTasks+0x10c>)
 80026fe:	781b      	ldrb	r3, [r3, #0]
 8002700:	f3c3 0303 	ubfx	r3, r3, #0, #4
 8002704:	b2d9      	uxtb	r1, r3
 8002706:	4a22      	ldr	r2, [pc, #136]	; (8002790 <APP_voidForward_RightTasks+0x104>)
 8002708:	7813      	ldrb	r3, [r2, #0]
 800270a:	f361 0303 	bfi	r3, r1, #0, #4
 800270e:	7013      	strb	r3, [r2, #0]
 8002710:	4b21      	ldr	r3, [pc, #132]	; (8002798 <APP_voidForward_RightTasks+0x10c>)
 8002712:	781b      	ldrb	r3, [r3, #0]
 8002714:	f3c3 1302 	ubfx	r3, r3, #4, #3
 8002718:	b2d9      	uxtb	r1, r3
 800271a:	4a1d      	ldr	r2, [pc, #116]	; (8002790 <APP_voidForward_RightTasks+0x104>)
 800271c:	7813      	ldrb	r3, [r2, #0]
 800271e:	f361 1306 	bfi	r3, r1, #4, #3
 8002722:	7013      	strb	r3, [r2, #0]
 8002724:	e02e      	b.n	8002784 <APP_voidForward_RightTasks+0xf8>
 8002726:	4a1a      	ldr	r2, [pc, #104]	; (8002790 <APP_voidForward_RightTasks+0x104>)
 8002728:	7853      	ldrb	r3, [r2, #1]
 800272a:	2102      	movs	r1, #2
 800272c:	f361 0301 	bfi	r3, r1, #0, #2
 8002730:	7053      	strb	r3, [r2, #1]
 8002732:	4b19      	ldr	r3, [pc, #100]	; (8002798 <APP_voidForward_RightTasks+0x10c>)
 8002734:	781b      	ldrb	r3, [r3, #0]
 8002736:	f3c3 0303 	ubfx	r3, r3, #0, #4
 800273a:	b2d9      	uxtb	r1, r3
 800273c:	4a14      	ldr	r2, [pc, #80]	; (8002790 <APP_voidForward_RightTasks+0x104>)
 800273e:	7813      	ldrb	r3, [r2, #0]
 8002740:	f361 0303 	bfi	r3, r1, #0, #4
 8002744:	7013      	strb	r3, [r2, #0]
 8002746:	4b15      	ldr	r3, [pc, #84]	; (800279c <APP_voidForward_RightTasks+0x110>)
 8002748:	781b      	ldrb	r3, [r3, #0]
 800274a:	f003 0307 	and.w	r3, r3, #7
 800274e:	b2d9      	uxtb	r1, r3
 8002750:	4a0f      	ldr	r2, [pc, #60]	; (8002790 <APP_voidForward_RightTasks+0x104>)
 8002752:	7813      	ldrb	r3, [r2, #0]
 8002754:	f361 1306 	bfi	r3, r1, #4, #3
 8002758:	7013      	strb	r3, [r2, #0]
 800275a:	e013      	b.n	8002784 <APP_voidForward_RightTasks+0xf8>
 800275c:	4a0c      	ldr	r2, [pc, #48]	; (8002790 <APP_voidForward_RightTasks+0x104>)
 800275e:	7853      	ldrb	r3, [r2, #1]
 8002760:	f36f 0301 	bfc	r3, #0, #2
 8002764:	7053      	strb	r3, [r2, #1]
 8002766:	4b0c      	ldr	r3, [pc, #48]	; (8002798 <APP_voidForward_RightTasks+0x10c>)
 8002768:	781b      	ldrb	r3, [r3, #0]
 800276a:	f3c3 0303 	ubfx	r3, r3, #0, #4
 800276e:	b2d9      	uxtb	r1, r3
 8002770:	4a07      	ldr	r2, [pc, #28]	; (8002790 <APP_voidForward_RightTasks+0x104>)
 8002772:	7813      	ldrb	r3, [r2, #0]
 8002774:	f361 0303 	bfi	r3, r1, #0, #4
 8002778:	7013      	strb	r3, [r2, #0]
 800277a:	4a05      	ldr	r2, [pc, #20]	; (8002790 <APP_voidForward_RightTasks+0x104>)
 800277c:	7813      	ldrb	r3, [r2, #0]
 800277e:	f043 0370 	orr.w	r3, r3, #112	; 0x70
 8002782:	7013      	strb	r3, [r2, #0]
 8002784:	bf00      	nop
 8002786:	bd80      	pop	{r7, pc}
 8002788:	200000fc 	.word	0x200000fc
 800278c:	40240000 	.word	0x40240000
 8002790:	20000100 	.word	0x20000100
 8002794:	40340000 	.word	0x40340000
 8002798:	200000f8 	.word	0x200000f8
 800279c:	200000ca 	.word	0x200000ca

080027a0 <APP_voidForward_LeftTasks>:
 80027a0:	b580      	push	{r7, lr}
 80027a2:	af00      	add	r7, sp, #0
 80027a4:	4b3d      	ldr	r3, [pc, #244]	; (800289c <APP_voidForward_LeftTasks+0xfc>)
 80027a6:	789b      	ldrb	r3, [r3, #2]
 80027a8:	4618      	mov	r0, r3
 80027aa:	f7fd fe21 	bl	80003f0 <__aeabi_i2d>
 80027ae:	f04f 0200 	mov.w	r2, #0
 80027b2:	4b3b      	ldr	r3, [pc, #236]	; (80028a0 <APP_voidForward_LeftTasks+0x100>)
 80027b4:	f7fd fef0 	bl	8000598 <__aeabi_dcmple>
 80027b8:	4603      	mov	r3, r0
 80027ba:	2b00      	cmp	r3, #0
 80027bc:	d00b      	beq.n	80027d6 <APP_voidForward_LeftTasks+0x36>
 80027be:	4a39      	ldr	r2, [pc, #228]	; (80028a4 <APP_voidForward_LeftTasks+0x104>)
 80027c0:	7813      	ldrb	r3, [r2, #0]
 80027c2:	2108      	movs	r1, #8
 80027c4:	f361 0303 	bfi	r3, r1, #0, #4
 80027c8:	7013      	strb	r3, [r2, #0]
 80027ca:	4a36      	ldr	r2, [pc, #216]	; (80028a4 <APP_voidForward_LeftTasks+0x104>)
 80027cc:	7853      	ldrb	r3, [r2, #1]
 80027ce:	f043 0303 	orr.w	r3, r3, #3
 80027d2:	7053      	strb	r3, [r2, #1]
 80027d4:	e060      	b.n	8002898 <APP_voidForward_LeftTasks+0xf8>
 80027d6:	4b31      	ldr	r3, [pc, #196]	; (800289c <APP_voidForward_LeftTasks+0xfc>)
 80027d8:	789b      	ldrb	r3, [r3, #2]
 80027da:	4618      	mov	r0, r3
 80027dc:	f7fd fe08 	bl	80003f0 <__aeabi_i2d>
 80027e0:	f04f 0200 	mov.w	r2, #0
 80027e4:	4b30      	ldr	r3, [pc, #192]	; (80028a8 <APP_voidForward_LeftTasks+0x108>)
 80027e6:	f7fd fed7 	bl	8000598 <__aeabi_dcmple>
 80027ea:	4603      	mov	r3, r0
 80027ec:	2b00      	cmp	r3, #0
 80027ee:	d03f      	beq.n	8002870 <APP_voidForward_LeftTasks+0xd0>
 80027f0:	4b2e      	ldr	r3, [pc, #184]	; (80028ac <APP_voidForward_LeftTasks+0x10c>)
 80027f2:	781b      	ldrb	r3, [r3, #0]
 80027f4:	f3c3 1302 	ubfx	r3, r3, #4, #3
 80027f8:	b2db      	uxtb	r3, r3
 80027fa:	461a      	mov	r2, r3
 80027fc:	4b2c      	ldr	r3, [pc, #176]	; (80028b0 <APP_voidForward_LeftTasks+0x110>)
 80027fe:	781b      	ldrb	r3, [r3, #0]
 8002800:	429a      	cmp	r2, r3
 8002802:	dc1a      	bgt.n	800283a <APP_voidForward_LeftTasks+0x9a>
 8002804:	4a27      	ldr	r2, [pc, #156]	; (80028a4 <APP_voidForward_LeftTasks+0x104>)
 8002806:	7853      	ldrb	r3, [r2, #1]
 8002808:	2101      	movs	r1, #1
 800280a:	f361 0301 	bfi	r3, r1, #0, #2
 800280e:	7053      	strb	r3, [r2, #1]
 8002810:	4b26      	ldr	r3, [pc, #152]	; (80028ac <APP_voidForward_LeftTasks+0x10c>)
 8002812:	781b      	ldrb	r3, [r3, #0]
 8002814:	f3c3 0303 	ubfx	r3, r3, #0, #4
 8002818:	b2d9      	uxtb	r1, r3
 800281a:	4a22      	ldr	r2, [pc, #136]	; (80028a4 <APP_voidForward_LeftTasks+0x104>)
 800281c:	7813      	ldrb	r3, [r2, #0]
 800281e:	f361 0303 	bfi	r3, r1, #0, #4
 8002822:	7013      	strb	r3, [r2, #0]
 8002824:	4b21      	ldr	r3, [pc, #132]	; (80028ac <APP_voidForward_LeftTasks+0x10c>)
 8002826:	781b      	ldrb	r3, [r3, #0]
 8002828:	f3c3 1302 	ubfx	r3, r3, #4, #3
 800282c:	b2d9      	uxtb	r1, r3
 800282e:	4a1d      	ldr	r2, [pc, #116]	; (80028a4 <APP_voidForward_LeftTasks+0x104>)
 8002830:	7813      	ldrb	r3, [r2, #0]
 8002832:	f361 1306 	bfi	r3, r1, #4, #3
 8002836:	7013      	strb	r3, [r2, #0]
 8002838:	e02e      	b.n	8002898 <APP_voidForward_LeftTasks+0xf8>
 800283a:	4a1a      	ldr	r2, [pc, #104]	; (80028a4 <APP_voidForward_LeftTasks+0x104>)
 800283c:	7853      	ldrb	r3, [r2, #1]
 800283e:	2102      	movs	r1, #2
 8002840:	f361 0301 	bfi	r3, r1, #0, #2
 8002844:	7053      	strb	r3, [r2, #1]
 8002846:	4b19      	ldr	r3, [pc, #100]	; (80028ac <APP_voidForward_LeftTasks+0x10c>)
 8002848:	781b      	ldrb	r3, [r3, #0]
 800284a:	f3c3 0303 	ubfx	r3, r3, #0, #4
 800284e:	b2d9      	uxtb	r1, r3
 8002850:	4a14      	ldr	r2, [pc, #80]	; (80028a4 <APP_voidForward_LeftTasks+0x104>)
 8002852:	7813      	ldrb	r3, [r2, #0]
 8002854:	f361 0303 	bfi	r3, r1, #0, #4
 8002858:	7013      	strb	r3, [r2, #0]
 800285a:	4b15      	ldr	r3, [pc, #84]	; (80028b0 <APP_voidForward_LeftTasks+0x110>)
 800285c:	781b      	ldrb	r3, [r3, #0]
 800285e:	f003 0307 	and.w	r3, r3, #7
 8002862:	b2d9      	uxtb	r1, r3
 8002864:	4a0f      	ldr	r2, [pc, #60]	; (80028a4 <APP_voidForward_LeftTasks+0x104>)
 8002866:	7813      	ldrb	r3, [r2, #0]
 8002868:	f361 1306 	bfi	r3, r1, #4, #3
 800286c:	7013      	strb	r3, [r2, #0]
 800286e:	e013      	b.n	8002898 <APP_voidForward_LeftTasks+0xf8>
 8002870:	4a0c      	ldr	r2, [pc, #48]	; (80028a4 <APP_voidForward_LeftTasks+0x104>)
 8002872:	7853      	ldrb	r3, [r2, #1]
 8002874:	f36f 0301 	bfc	r3, #0, #2
 8002878:	7053      	strb	r3, [r2, #1]
 800287a:	4b0c      	ldr	r3, [pc, #48]	; (80028ac <APP_voidForward_LeftTasks+0x10c>)
 800287c:	781b      	ldrb	r3, [r3, #0]
 800287e:	f3c3 0303 	ubfx	r3, r3, #0, #4
 8002882:	b2d9      	uxtb	r1, r3
 8002884:	4a07      	ldr	r2, [pc, #28]	; (80028a4 <APP_voidForward_LeftTasks+0x104>)
 8002886:	7813      	ldrb	r3, [r2, #0]
 8002888:	f361 0303 	bfi	r3, r1, #0, #4
 800288c:	7013      	strb	r3, [r2, #0]
 800288e:	4a05      	ldr	r2, [pc, #20]	; (80028a4 <APP_voidForward_LeftTasks+0x104>)
 8002890:	7813      	ldrb	r3, [r2, #0]
 8002892:	f043 0370 	orr.w	r3, r3, #112	; 0x70
 8002896:	7013      	strb	r3, [r2, #0]
 8002898:	bf00      	nop
 800289a:	bd80      	pop	{r7, pc}
 800289c:	200000fc 	.word	0x200000fc
 80028a0:	40240000 	.word	0x40240000
 80028a4:	20000100 	.word	0x20000100
 80028a8:	40340000 	.word	0x40340000
 80028ac:	200000f8 	.word	0x200000f8
 80028b0:	200000ca 	.word	0x200000ca

080028b4 <APP_GET_UART_Command>:
 80028b4:	b580      	push	{r7, lr}
 80028b6:	af00      	add	r7, sp, #0
 80028b8:	4804      	ldr	r0, [pc, #16]	; (80028cc <APP_GET_UART_Command+0x18>)
 80028ba:	f7ff fb27 	bl	8001f0c <MUART_u8ReadDataRegister>
 80028be:	4603      	mov	r3, r0
 80028c0:	461a      	mov	r2, r3
 80028c2:	4b03      	ldr	r3, [pc, #12]	; (80028d0 <APP_GET_UART_Command+0x1c>)
 80028c4:	701a      	strb	r2, [r3, #0]
 80028c6:	bf00      	nop
 80028c8:	bd80      	pop	{r7, pc}
 80028ca:	bf00      	nop
 80028cc:	40013800 	.word	0x40013800
 80028d0:	200001d8 	.word	0x200001d8

080028d4 <ProcessingFun>:
 80028d4:	b580      	push	{r7, lr}
 80028d6:	af00      	add	r7, sp, #0
 80028d8:	4bd5      	ldr	r3, [pc, #852]	; (8002c30 <ProcessingFun+0x35c>)
 80028da:	781b      	ldrb	r3, [r3, #0]
 80028dc:	3b10      	subs	r3, #16
 80028de:	2b6c      	cmp	r3, #108	; 0x6c
 80028e0:	f200 81cd 	bhi.w	8002c7e <ProcessingFun+0x3aa>
 80028e4:	a201      	add	r2, pc, #4	; (adr r2, 80028ec <ProcessingFun+0x18>)
 80028e6:	f852 f023 	ldr.w	pc, [r2, r3, lsl #2]
 80028ea:	bf00      	nop
 80028ec:	08002aa1 	.word	0x08002aa1
 80028f0:	08002c7f 	.word	0x08002c7f
 80028f4:	08002c7f 	.word	0x08002c7f
 80028f8:	08002c7f 	.word	0x08002c7f
 80028fc:	08002c7f 	.word	0x08002c7f
 8002900:	08002c7f 	.word	0x08002c7f
 8002904:	08002c7f 	.word	0x08002c7f
 8002908:	08002c7f 	.word	0x08002c7f
 800290c:	08002c7f 	.word	0x08002c7f
 8002910:	08002c7f 	.word	0x08002c7f
 8002914:	08002c7f 	.word	0x08002c7f
 8002918:	08002c7f 	.word	0x08002c7f
 800291c:	08002c7f 	.word	0x08002c7f
 8002920:	08002c7f 	.word	0x08002c7f
 8002924:	08002c7f 	.word	0x08002c7f
 8002928:	08002c7f 	.word	0x08002c7f
 800292c:	08002aaf 	.word	0x08002aaf
 8002930:	08002c7f 	.word	0x08002c7f
 8002934:	08002c7f 	.word	0x08002c7f
 8002938:	08002c7f 	.word	0x08002c7f
 800293c:	08002c7f 	.word	0x08002c7f
 8002940:	08002c7f 	.word	0x08002c7f
 8002944:	08002c7f 	.word	0x08002c7f
 8002948:	08002c7f 	.word	0x08002c7f
 800294c:	08002c7f 	.word	0x08002c7f
 8002950:	08002c7f 	.word	0x08002c7f
 8002954:	08002c7f 	.word	0x08002c7f
 8002958:	08002c7f 	.word	0x08002c7f
 800295c:	08002c7f 	.word	0x08002c7f
 8002960:	08002c7f 	.word	0x08002c7f
 8002964:	08002c7f 	.word	0x08002c7f
 8002968:	08002c7f 	.word	0x08002c7f
 800296c:	08002c7f 	.word	0x08002c7f
 8002970:	08002c7f 	.word	0x08002c7f
 8002974:	08002c7f 	.word	0x08002c7f
 8002978:	08002c7f 	.word	0x08002c7f
 800297c:	08002c7f 	.word	0x08002c7f
 8002980:	08002c7f 	.word	0x08002c7f
 8002984:	08002c7f 	.word	0x08002c7f
 8002988:	08002c7f 	.word	0x08002c7f
 800298c:	08002c7f 	.word	0x08002c7f
 8002990:	08002c7f 	.word	0x08002c7f
 8002994:	08002c7f 	.word	0x08002c7f
 8002998:	08002c7f 	.word	0x08002c7f
 800299c:	08002c7f 	.word	0x08002c7f
 80029a0:	08002c7f 	.word	0x08002c7f
 80029a4:	08002c7f 	.word	0x08002c7f
 80029a8:	08002c7f 	.word	0x08002c7f
 80029ac:	08002abd 	.word	0x08002abd
 80029b0:	08002c7f 	.word	0x08002c7f
 80029b4:	08002c7f 	.word	0x08002c7f
 80029b8:	08002c7f 	.word	0x08002c7f
 80029bc:	08002c7f 	.word	0x08002c7f
 80029c0:	08002c7f 	.word	0x08002c7f
 80029c4:	08002c7f 	.word	0x08002c7f
 80029c8:	08002c7f 	.word	0x08002c7f
 80029cc:	08002acb 	.word	0x08002acb
 80029d0:	08002c7f 	.word	0x08002c7f
 80029d4:	08002c7f 	.word	0x08002c7f
 80029d8:	08002c7f 	.word	0x08002c7f
 80029dc:	08002ad9 	.word	0x08002ad9
 80029e0:	08002c7f 	.word	0x08002c7f
 80029e4:	08002c7f 	.word	0x08002c7f
 80029e8:	08002c7f 	.word	0x08002c7f
 80029ec:	08002ae7 	.word	0x08002ae7
 80029f0:	08002c7f 	.word	0x08002c7f
 80029f4:	08002c7f 	.word	0x08002c7f
 80029f8:	08002c7f 	.word	0x08002c7f
 80029fc:	08002c7f 	.word	0x08002c7f
 8002a00:	08002c7f 	.word	0x08002c7f
 8002a04:	08002c7f 	.word	0x08002c7f
 8002a08:	08002c7f 	.word	0x08002c7f
 8002a0c:	08002af5 	.word	0x08002af5
 8002a10:	08002c7f 	.word	0x08002c7f
 8002a14:	08002c7f 	.word	0x08002c7f
 8002a18:	08002c7f 	.word	0x08002c7f
 8002a1c:	08002b03 	.word	0x08002b03
 8002a20:	08002c7f 	.word	0x08002c7f
 8002a24:	08002c7f 	.word	0x08002c7f
 8002a28:	08002c7f 	.word	0x08002c7f
 8002a2c:	08002b11 	.word	0x08002b11
 8002a30:	08002c7f 	.word	0x08002c7f
 8002a34:	08002c7f 	.word	0x08002c7f
 8002a38:	08002c7f 	.word	0x08002c7f
 8002a3c:	08002c7f 	.word	0x08002c7f
 8002a40:	08002c7f 	.word	0x08002c7f
 8002a44:	08002c7f 	.word	0x08002c7f
 8002a48:	08002c7f 	.word	0x08002c7f
 8002a4c:	08002b4d 	.word	0x08002b4d
 8002a50:	08002c7f 	.word	0x08002c7f
 8002a54:	08002c7f 	.word	0x08002c7f
 8002a58:	08002c7f 	.word	0x08002c7f
 8002a5c:	08002b89 	.word	0x08002b89
 8002a60:	08002c7f 	.word	0x08002c7f
 8002a64:	08002c7f 	.word	0x08002c7f
 8002a68:	08002c7f 	.word	0x08002c7f
 8002a6c:	08002bc5 	.word	0x08002bc5
 8002a70:	08002c7f 	.word	0x08002c7f
 8002a74:	08002c7f 	.word	0x08002c7f
 8002a78:	08002c7f 	.word	0x08002c7f
 8002a7c:	08002c7f 	.word	0x08002c7f
 8002a80:	08002c7f 	.word	0x08002c7f
 8002a84:	08002c7f 	.word	0x08002c7f
 8002a88:	08002c7f 	.word	0x08002c7f
 8002a8c:	08002c01 	.word	0x08002c01
 8002a90:	08002c7f 	.word	0x08002c7f
 8002a94:	08002c7f 	.word	0x08002c7f
 8002a98:	08002c7f 	.word	0x08002c7f
 8002a9c:	08002c45 	.word	0x08002c45
 8002aa0:	4a64      	ldr	r2, [pc, #400]	; (8002c34 <ProcessingFun+0x360>)
 8002aa2:	7813      	ldrb	r3, [r2, #0]
 8002aa4:	2108      	movs	r1, #8
 8002aa6:	f361 0303 	bfi	r3, r1, #0, #4
 8002aaa:	7013      	strb	r3, [r2, #0]
 8002aac:	e0e7      	b.n	8002c7e <ProcessingFun+0x3aa>
 8002aae:	4a61      	ldr	r2, [pc, #388]	; (8002c34 <ProcessingFun+0x360>)
 8002ab0:	7813      	ldrb	r3, [r2, #0]
 8002ab2:	2108      	movs	r1, #8
 8002ab4:	f361 0303 	bfi	r3, r1, #0, #4
 8002ab8:	7013      	strb	r3, [r2, #0]
 8002aba:	e0e0      	b.n	8002c7e <ProcessingFun+0x3aa>
 8002abc:	4a5d      	ldr	r2, [pc, #372]	; (8002c34 <ProcessingFun+0x360>)
 8002abe:	7813      	ldrb	r3, [r2, #0]
 8002ac0:	2103      	movs	r1, #3
 8002ac2:	f361 0303 	bfi	r3, r1, #0, #4
 8002ac6:	7013      	strb	r3, [r2, #0]
 8002ac8:	e0d9      	b.n	8002c7e <ProcessingFun+0x3aa>
 8002aca:	4a5a      	ldr	r2, [pc, #360]	; (8002c34 <ProcessingFun+0x360>)
 8002acc:	7813      	ldrb	r3, [r2, #0]
 8002ace:	2105      	movs	r1, #5
 8002ad0:	f361 0303 	bfi	r3, r1, #0, #4
 8002ad4:	7013      	strb	r3, [r2, #0]
 8002ad6:	e0d2      	b.n	8002c7e <ProcessingFun+0x3aa>
 8002ad8:	4a56      	ldr	r2, [pc, #344]	; (8002c34 <ProcessingFun+0x360>)
 8002ada:	7813      	ldrb	r3, [r2, #0]
 8002adc:	2105      	movs	r1, #5
 8002ade:	f361 0303 	bfi	r3, r1, #0, #4
 8002ae2:	7013      	strb	r3, [r2, #0]
 8002ae4:	e0cb      	b.n	8002c7e <ProcessingFun+0x3aa>
 8002ae6:	4a53      	ldr	r2, [pc, #332]	; (8002c34 <ProcessingFun+0x360>)
 8002ae8:	7813      	ldrb	r3, [r2, #0]
 8002aea:	2102      	movs	r1, #2
 8002aec:	f361 0303 	bfi	r3, r1, #0, #4
 8002af0:	7013      	strb	r3, [r2, #0]
 8002af2:	e0c4      	b.n	8002c7e <ProcessingFun+0x3aa>
 8002af4:	4a4f      	ldr	r2, [pc, #316]	; (8002c34 <ProcessingFun+0x360>)
 8002af6:	7813      	ldrb	r3, [r2, #0]
 8002af8:	2104      	movs	r1, #4
 8002afa:	f361 0303 	bfi	r3, r1, #0, #4
 8002afe:	7013      	strb	r3, [r2, #0]
 8002b00:	e0bd      	b.n	8002c7e <ProcessingFun+0x3aa>
 8002b02:	4a4c      	ldr	r2, [pc, #304]	; (8002c34 <ProcessingFun+0x360>)
 8002b04:	7813      	ldrb	r3, [r2, #0]
 8002b06:	2104      	movs	r1, #4
 8002b08:	f361 0303 	bfi	r3, r1, #0, #4
 8002b0c:	7013      	strb	r3, [r2, #0]
 8002b0e:	e0b6      	b.n	8002c7e <ProcessingFun+0x3aa>
 8002b10:	4b48      	ldr	r3, [pc, #288]	; (8002c34 <ProcessingFun+0x360>)
 8002b12:	781b      	ldrb	r3, [r3, #0]
 8002b14:	f3c3 1302 	ubfx	r3, r3, #4, #3
 8002b18:	b2db      	uxtb	r3, r3
 8002b1a:	2b04      	cmp	r3, #4
 8002b1c:	d90f      	bls.n	8002b3e <ProcessingFun+0x26a>
 8002b1e:	4b45      	ldr	r3, [pc, #276]	; (8002c34 <ProcessingFun+0x360>)
 8002b20:	781b      	ldrb	r3, [r3, #0]
 8002b22:	f3c3 1302 	ubfx	r3, r3, #4, #3
 8002b26:	b2db      	uxtb	r3, r3
 8002b28:	3b04      	subs	r3, #4
 8002b2a:	b2db      	uxtb	r3, r3
 8002b2c:	f003 0307 	and.w	r3, r3, #7
 8002b30:	b2d9      	uxtb	r1, r3
 8002b32:	4a40      	ldr	r2, [pc, #256]	; (8002c34 <ProcessingFun+0x360>)
 8002b34:	7813      	ldrb	r3, [r2, #0]
 8002b36:	f361 1306 	bfi	r3, r1, #4, #3
 8002b3a:	7013      	strb	r3, [r2, #0]
 8002b3c:	e09f      	b.n	8002c7e <ProcessingFun+0x3aa>
 8002b3e:	4a3d      	ldr	r2, [pc, #244]	; (8002c34 <ProcessingFun+0x360>)
 8002b40:	7813      	ldrb	r3, [r2, #0]
 8002b42:	2101      	movs	r1, #1
 8002b44:	f361 1306 	bfi	r3, r1, #4, #3
 8002b48:	7013      	strb	r3, [r2, #0]
 8002b4a:	e098      	b.n	8002c7e <ProcessingFun+0x3aa>
 8002b4c:	4b39      	ldr	r3, [pc, #228]	; (8002c34 <ProcessingFun+0x360>)
 8002b4e:	781b      	ldrb	r3, [r3, #0]
 8002b50:	f3c3 1302 	ubfx	r3, r3, #4, #3
 8002b54:	b2db      	uxtb	r3, r3
 8002b56:	2b02      	cmp	r3, #2
 8002b58:	d90f      	bls.n	8002b7a <ProcessingFun+0x2a6>
 8002b5a:	4b36      	ldr	r3, [pc, #216]	; (8002c34 <ProcessingFun+0x360>)
 8002b5c:	781b      	ldrb	r3, [r3, #0]
 8002b5e:	f3c3 1302 	ubfx	r3, r3, #4, #3
 8002b62:	b2db      	uxtb	r3, r3
 8002b64:	3b02      	subs	r3, #2
 8002b66:	b2db      	uxtb	r3, r3
 8002b68:	f003 0307 	and.w	r3, r3, #7
 8002b6c:	b2d9      	uxtb	r1, r3
 8002b6e:	4a31      	ldr	r2, [pc, #196]	; (8002c34 <ProcessingFun+0x360>)
 8002b70:	7813      	ldrb	r3, [r2, #0]
 8002b72:	f361 1306 	bfi	r3, r1, #4, #3
 8002b76:	7013      	strb	r3, [r2, #0]
 8002b78:	e081      	b.n	8002c7e <ProcessingFun+0x3aa>
 8002b7a:	4a2e      	ldr	r2, [pc, #184]	; (8002c34 <ProcessingFun+0x360>)
 8002b7c:	7813      	ldrb	r3, [r2, #0]
 8002b7e:	2101      	movs	r1, #1
 8002b80:	f361 1306 	bfi	r3, r1, #4, #3
 8002b84:	7013      	strb	r3, [r2, #0]
 8002b86:	e07a      	b.n	8002c7e <ProcessingFun+0x3aa>
 8002b88:	4b2a      	ldr	r3, [pc, #168]	; (8002c34 <ProcessingFun+0x360>)
 8002b8a:	781b      	ldrb	r3, [r3, #0]
 8002b8c:	f3c3 1302 	ubfx	r3, r3, #4, #3
 8002b90:	b2db      	uxtb	r3, r3
 8002b92:	2b01      	cmp	r3, #1
 8002b94:	d90f      	bls.n	8002bb6 <ProcessingFun+0x2e2>
 8002b96:	4b27      	ldr	r3, [pc, #156]	; (8002c34 <ProcessingFun+0x360>)
 8002b98:	781b      	ldrb	r3, [r3, #0]
 8002b9a:	f3c3 1302 	ubfx	r3, r3, #4, #3
 8002b9e:	b2db      	uxtb	r3, r3
 8002ba0:	3b01      	subs	r3, #1
 8002ba2:	b2db      	uxtb	r3, r3
 8002ba4:	f003 0307 	and.w	r3, r3, #7
 8002ba8:	b2d9      	uxtb	r1, r3
 8002baa:	4a22      	ldr	r2, [pc, #136]	; (8002c34 <ProcessingFun+0x360>)
 8002bac:	7813      	ldrb	r3, [r2, #0]
 8002bae:	f361 1306 	bfi	r3, r1, #4, #3
 8002bb2:	7013      	strb	r3, [r2, #0]
 8002bb4:	e063      	b.n	8002c7e <ProcessingFun+0x3aa>
 8002bb6:	4a1f      	ldr	r2, [pc, #124]	; (8002c34 <ProcessingFun+0x360>)
 8002bb8:	7813      	ldrb	r3, [r2, #0]
 8002bba:	2108      	movs	r1, #8
 8002bbc:	f361 0303 	bfi	r3, r1, #0, #4
 8002bc0:	7013      	strb	r3, [r2, #0]
 8002bc2:	e05c      	b.n	8002c7e <ProcessingFun+0x3aa>
 8002bc4:	4b1b      	ldr	r3, [pc, #108]	; (8002c34 <ProcessingFun+0x360>)
 8002bc6:	781b      	ldrb	r3, [r3, #0]
 8002bc8:	f3c3 1302 	ubfx	r3, r3, #4, #3
 8002bcc:	b2db      	uxtb	r3, r3
 8002bce:	3304      	adds	r3, #4
 8002bd0:	2b07      	cmp	r3, #7
 8002bd2:	dc0f      	bgt.n	8002bf4 <ProcessingFun+0x320>
 8002bd4:	4b17      	ldr	r3, [pc, #92]	; (8002c34 <ProcessingFun+0x360>)
 8002bd6:	781b      	ldrb	r3, [r3, #0]
 8002bd8:	f3c3 1302 	ubfx	r3, r3, #4, #3
 8002bdc:	b2db      	uxtb	r3, r3
 8002bde:	3304      	adds	r3, #4
 8002be0:	b2db      	uxtb	r3, r3
 8002be2:	f003 0307 	and.w	r3, r3, #7
 8002be6:	b2d9      	uxtb	r1, r3
 8002be8:	4a12      	ldr	r2, [pc, #72]	; (8002c34 <ProcessingFun+0x360>)
 8002bea:	7813      	ldrb	r3, [r2, #0]
 8002bec:	f361 1306 	bfi	r3, r1, #4, #3
 8002bf0:	7013      	strb	r3, [r2, #0]
 8002bf2:	e044      	b.n	8002c7e <ProcessingFun+0x3aa>
 8002bf4:	4a0f      	ldr	r2, [pc, #60]	; (8002c34 <ProcessingFun+0x360>)
 8002bf6:	7813      	ldrb	r3, [r2, #0]
 8002bf8:	f043 0370 	orr.w	r3, r3, #112	; 0x70
 8002bfc:	7013      	strb	r3, [r2, #0]
 8002bfe:	e03e      	b.n	8002c7e <ProcessingFun+0x3aa>
 8002c00:	4b0c      	ldr	r3, [pc, #48]	; (8002c34 <ProcessingFun+0x360>)
 8002c02:	781b      	ldrb	r3, [r3, #0]
 8002c04:	f3c3 1302 	ubfx	r3, r3, #4, #3
 8002c08:	b2db      	uxtb	r3, r3
 8002c0a:	3302      	adds	r3, #2
 8002c0c:	2b07      	cmp	r3, #7
 8002c0e:	dc13      	bgt.n	8002c38 <ProcessingFun+0x364>
 8002c10:	4b08      	ldr	r3, [pc, #32]	; (8002c34 <ProcessingFun+0x360>)
 8002c12:	781b      	ldrb	r3, [r3, #0]
 8002c14:	f3c3 1302 	ubfx	r3, r3, #4, #3
 8002c18:	b2db      	uxtb	r3, r3
 8002c1a:	3302      	adds	r3, #2
 8002c1c:	b2db      	uxtb	r3, r3
 8002c1e:	f003 0307 	and.w	r3, r3, #7
 8002c22:	b2d9      	uxtb	r1, r3
 8002c24:	4a03      	ldr	r2, [pc, #12]	; (8002c34 <ProcessingFun+0x360>)
 8002c26:	7813      	ldrb	r3, [r2, #0]
 8002c28:	f361 1306 	bfi	r3, r1, #4, #3
 8002c2c:	7013      	strb	r3, [r2, #0]
 8002c2e:	e026      	b.n	8002c7e <ProcessingFun+0x3aa>
 8002c30:	200001d8 	.word	0x200001d8
 8002c34:	200000f8 	.word	0x200000f8
 8002c38:	4a37      	ldr	r2, [pc, #220]	; (8002d18 <ProcessingFun+0x444>)
 8002c3a:	7813      	ldrb	r3, [r2, #0]
 8002c3c:	f043 0370 	orr.w	r3, r3, #112	; 0x70
 8002c40:	7013      	strb	r3, [r2, #0]
 8002c42:	e01c      	b.n	8002c7e <ProcessingFun+0x3aa>
 8002c44:	4b34      	ldr	r3, [pc, #208]	; (8002d18 <ProcessingFun+0x444>)
 8002c46:	781b      	ldrb	r3, [r3, #0]
 8002c48:	f003 0370 	and.w	r3, r3, #112	; 0x70
 8002c4c:	b2db      	uxtb	r3, r3
 8002c4e:	2b70      	cmp	r3, #112	; 0x70
 8002c50:	d00f      	beq.n	8002c72 <ProcessingFun+0x39e>
 8002c52:	4b31      	ldr	r3, [pc, #196]	; (8002d18 <ProcessingFun+0x444>)
 8002c54:	781b      	ldrb	r3, [r3, #0]
 8002c56:	f3c3 1302 	ubfx	r3, r3, #4, #3
 8002c5a:	b2db      	uxtb	r3, r3
 8002c5c:	3301      	adds	r3, #1
 8002c5e:	b2db      	uxtb	r3, r3
 8002c60:	f003 0307 	and.w	r3, r3, #7
 8002c64:	b2d9      	uxtb	r1, r3
 8002c66:	4a2c      	ldr	r2, [pc, #176]	; (8002d18 <ProcessingFun+0x444>)
 8002c68:	7813      	ldrb	r3, [r2, #0]
 8002c6a:	f361 1306 	bfi	r3, r1, #4, #3
 8002c6e:	7013      	strb	r3, [r2, #0]
 8002c70:	e004      	b.n	8002c7c <ProcessingFun+0x3a8>
 8002c72:	4a29      	ldr	r2, [pc, #164]	; (8002d18 <ProcessingFun+0x444>)
 8002c74:	7813      	ldrb	r3, [r2, #0]
 8002c76:	f043 0370 	orr.w	r3, r3, #112	; 0x70
 8002c7a:	7013      	strb	r3, [r2, #0]
 8002c7c:	bf00      	nop
 8002c7e:	4b26      	ldr	r3, [pc, #152]	; (8002d18 <ProcessingFun+0x444>)
 8002c80:	781b      	ldrb	r3, [r3, #0]
 8002c82:	f3c3 0303 	ubfx	r3, r3, #0, #4
 8002c86:	b2d9      	uxtb	r1, r3
 8002c88:	4a24      	ldr	r2, [pc, #144]	; (8002d1c <ProcessingFun+0x448>)
 8002c8a:	7813      	ldrb	r3, [r2, #0]
 8002c8c:	f361 0303 	bfi	r3, r1, #0, #4
 8002c90:	7013      	strb	r3, [r2, #0]
 8002c92:	4b21      	ldr	r3, [pc, #132]	; (8002d18 <ProcessingFun+0x444>)
 8002c94:	781b      	ldrb	r3, [r3, #0]
 8002c96:	f3c3 1302 	ubfx	r3, r3, #4, #3
 8002c9a:	b2d9      	uxtb	r1, r3
 8002c9c:	4a1f      	ldr	r2, [pc, #124]	; (8002d1c <ProcessingFun+0x448>)
 8002c9e:	7813      	ldrb	r3, [r2, #0]
 8002ca0:	f361 1306 	bfi	r3, r1, #4, #3
 8002ca4:	7013      	strb	r3, [r2, #0]
 8002ca6:	4b1c      	ldr	r3, [pc, #112]	; (8002d18 <ProcessingFun+0x444>)
 8002ca8:	781b      	ldrb	r3, [r3, #0]
 8002caa:	f3c3 0303 	ubfx	r3, r3, #0, #4
 8002cae:	b2db      	uxtb	r3, r3
 8002cb0:	2b08      	cmp	r3, #8
 8002cb2:	d82d      	bhi.n	8002d10 <ProcessingFun+0x43c>
 8002cb4:	a201      	add	r2, pc, #4	; (adr r2, 8002cbc <ProcessingFun+0x3e8>)
 8002cb6:	f852 f023 	ldr.w	pc, [r2, r3, lsl #2]
 8002cba:	bf00      	nop
 8002cbc:	08002ce1 	.word	0x08002ce1
 8002cc0:	08002ced 	.word	0x08002ced
 8002cc4:	08002d0b 	.word	0x08002d0b
 8002cc8:	08002d0b 	.word	0x08002d0b
 8002ccc:	08002cff 	.word	0x08002cff
 8002cd0:	08002d05 	.word	0x08002d05
 8002cd4:	08002cf3 	.word	0x08002cf3
 8002cd8:	08002cf9 	.word	0x08002cf9
 8002cdc:	08002ce7 	.word	0x08002ce7
 8002ce0:	f7ff faa6 	bl	8002230 <APP_voidGoTasks>
 8002ce4:	e015      	b.n	8002d12 <ProcessingFun+0x43e>
 8002ce6:	f7ff fa8f 	bl	8002208 <APP_VoidStop>
 8002cea:	e012      	b.n	8002d12 <ProcessingFun+0x43e>
 8002cec:	f7ff fb2a 	bl	8002344 <APP_voidBackTasks>
 8002cf0:	e00f      	b.n	8002d12 <ProcessingFun+0x43e>
 8002cf2:	f7ff fbb1 	bl	8002458 <APP_voidBackward_RightTasks>
 8002cf6:	e00c      	b.n	8002d12 <ProcessingFun+0x43e>
 8002cf8:	f7ff fc38 	bl	800256c <APP_voidBackward_LEFTTasks>
 8002cfc:	e009      	b.n	8002d12 <ProcessingFun+0x43e>
 8002cfe:	f7ff fcc5 	bl	800268c <APP_voidForward_RightTasks>
 8002d02:	e006      	b.n	8002d12 <ProcessingFun+0x43e>
 8002d04:	f7ff fd4c 	bl	80027a0 <APP_voidForward_LeftTasks>
 8002d08:	e003      	b.n	8002d12 <ProcessingFun+0x43e>
 8002d0a:	f7ff fcb9 	bl	8002680 <APP_voidRight_LeftTasks>
 8002d0e:	e000      	b.n	8002d12 <ProcessingFun+0x43e>
 8002d10:	bf00      	nop
 8002d12:	bf00      	nop
 8002d14:	bd80      	pop	{r7, pc}
 8002d16:	bf00      	nop
 8002d18:	200000f8 	.word	0x200000f8
 8002d1c:	20000100 	.word	0x20000100

08002d20 <NMI_Handler>:
 8002d20:	b480      	push	{r7}
 8002d22:	af00      	add	r7, sp, #0
 8002d24:	bf00      	nop
 8002d26:	46bd      	mov	sp, r7
 8002d28:	bc80      	pop	{r7}
 8002d2a:	4770      	bx	lr

08002d2c <HardFault_Handler>:
 8002d2c:	b480      	push	{r7}
 8002d2e:	af00      	add	r7, sp, #0
 8002d30:	bf00      	nop
 8002d32:	e7fd      	b.n	8002d30 <HardFault_Handler+0x4>

08002d34 <MemManage_Handler>:
 8002d34:	b480      	push	{r7}
 8002d36:	af00      	add	r7, sp, #0
 8002d38:	bf00      	nop
 8002d3a:	e7fd      	b.n	8002d38 <MemManage_Handler+0x4>

08002d3c <BusFault_Handler>:
 8002d3c:	b480      	push	{r7}
 8002d3e:	af00      	add	r7, sp, #0
 8002d40:	bf00      	nop
 8002d42:	e7fd      	b.n	8002d40 <BusFault_Handler+0x4>

08002d44 <UsageFault_Handler>:
 8002d44:	b480      	push	{r7}
 8002d46:	af00      	add	r7, sp, #0
 8002d48:	bf00      	nop
 8002d4a:	e7fd      	b.n	8002d48 <UsageFault_Handler+0x4>

08002d4c <SVC_Handler>:
 8002d4c:	b480      	push	{r7}
 8002d4e:	af00      	add	r7, sp, #0
 8002d50:	bf00      	nop
 8002d52:	46bd      	mov	sp, r7
 8002d54:	bc80      	pop	{r7}
 8002d56:	4770      	bx	lr

08002d58 <DebugMon_Handler>:
 8002d58:	b480      	push	{r7}
 8002d5a:	af00      	add	r7, sp, #0
 8002d5c:	bf00      	nop
 8002d5e:	46bd      	mov	sp, r7
 8002d60:	bc80      	pop	{r7}
 8002d62:	4770      	bx	lr

08002d64 <PendSV_Handler>:
 8002d64:	b480      	push	{r7}
 8002d66:	af00      	add	r7, sp, #0
 8002d68:	bf00      	nop
 8002d6a:	46bd      	mov	sp, r7
 8002d6c:	bc80      	pop	{r7}
 8002d6e:	4770      	bx	lr

08002d70 <SystemInit>:
 8002d70:	b480      	push	{r7}
 8002d72:	af00      	add	r7, sp, #0
 8002d74:	bf00      	nop
 8002d76:	46bd      	mov	sp, r7
 8002d78:	bc80      	pop	{r7}
 8002d7a:	4770      	bx	lr

08002d7c <Reset_Handler>:
 8002d7c:	480c      	ldr	r0, [pc, #48]	; (8002db0 <LoopFillZerobss+0x12>)
 8002d7e:	490d      	ldr	r1, [pc, #52]	; (8002db4 <LoopFillZerobss+0x16>)
 8002d80:	4a0d      	ldr	r2, [pc, #52]	; (8002db8 <LoopFillZerobss+0x1a>)
 8002d82:	2300      	movs	r3, #0
 8002d84:	e002      	b.n	8002d8c <LoopCopyDataInit>

08002d86 <CopyDataInit>:
 8002d86:	58d4      	ldr	r4, [r2, r3]
 8002d88:	50c4      	str	r4, [r0, r3]
 8002d8a:	3304      	adds	r3, #4

08002d8c <LoopCopyDataInit>:
 8002d8c:	18c4      	adds	r4, r0, r3
 8002d8e:	428c      	cmp	r4, r1
 8002d90:	d3f9      	bcc.n	8002d86 <CopyDataInit>
 8002d92:	4a0a      	ldr	r2, [pc, #40]	; (8002dbc <LoopFillZerobss+0x1e>)
 8002d94:	4c0a      	ldr	r4, [pc, #40]	; (8002dc0 <LoopFillZerobss+0x22>)
 8002d96:	2300      	movs	r3, #0
 8002d98:	e001      	b.n	8002d9e <LoopFillZerobss>

08002d9a <FillZerobss>:
 8002d9a:	6013      	str	r3, [r2, #0]
 8002d9c:	3204      	adds	r2, #4

08002d9e <LoopFillZerobss>:
 8002d9e:	42a2      	cmp	r2, r4
 8002da0:	d3fb      	bcc.n	8002d9a <FillZerobss>
 8002da2:	f7ff ffe5 	bl	8002d70 <SystemInit>
 8002da6:	f000 f80f 	bl	8002dc8 <__libc_init_array>
 8002daa:	f7ff f98f 	bl	80020cc <main>
 8002dae:	4770      	bx	lr
 8002db0:	20000000 	.word	0x20000000
 8002db4:	200000cc 	.word	0x200000cc
 8002db8:	08002e30 	.word	0x08002e30
 8002dbc:	200000cc 	.word	0x200000cc
 8002dc0:	200001dc 	.word	0x200001dc

08002dc4 <ADC1_2_IRQHandler>:
 8002dc4:	e7fe      	b.n	8002dc4 <ADC1_2_IRQHandler>
	...

08002dc8 <__libc_init_array>:
 8002dc8:	b570      	push	{r4, r5, r6, lr}
 8002dca:	2500      	movs	r5, #0
 8002dcc:	4e0c      	ldr	r6, [pc, #48]	; (8002e00 <__libc_init_array+0x38>)
 8002dce:	4c0d      	ldr	r4, [pc, #52]	; (8002e04 <__libc_init_array+0x3c>)
 8002dd0:	1ba4      	subs	r4, r4, r6
 8002dd2:	10a4      	asrs	r4, r4, #2
 8002dd4:	42a5      	cmp	r5, r4
 8002dd6:	d109      	bne.n	8002dec <__libc_init_array+0x24>
 8002dd8:	f000 f81a 	bl	8002e10 <_init>
 8002ddc:	2500      	movs	r5, #0
 8002dde:	4e0a      	ldr	r6, [pc, #40]	; (8002e08 <__libc_init_array+0x40>)
 8002de0:	4c0a      	ldr	r4, [pc, #40]	; (8002e0c <__libc_init_array+0x44>)
 8002de2:	1ba4      	subs	r4, r4, r6
 8002de4:	10a4      	asrs	r4, r4, #2
 8002de6:	42a5      	cmp	r5, r4
 8002de8:	d105      	bne.n	8002df6 <__libc_init_array+0x2e>
 8002dea:	bd70      	pop	{r4, r5, r6, pc}
 8002dec:	f856 3025 	ldr.w	r3, [r6, r5, lsl #2]
 8002df0:	4798      	blx	r3
 8002df2:	3501      	adds	r5, #1
 8002df4:	e7ee      	b.n	8002dd4 <__libc_init_array+0xc>
 8002df6:	f856 3025 	ldr.w	r3, [r6, r5, lsl #2]
 8002dfa:	4798      	blx	r3
 8002dfc:	3501      	adds	r5, #1
 8002dfe:	e7f2      	b.n	8002de6 <__libc_init_array+0x1e>
 8002e00:	08002e28 	.word	0x08002e28
 8002e04:	08002e28 	.word	0x08002e28
 8002e08:	08002e28 	.word	0x08002e28
 8002e0c:	08002e2c 	.word	0x08002e2c

08002e10 <_init>:
 8002e10:	b5f8      	push	{r3, r4, r5, r6, r7, lr}
 8002e12:	bf00      	nop
 8002e14:	bcf8      	pop	{r3, r4, r5, r6, r7}
 8002e16:	bc08      	pop	{r3}
 8002e18:	469e      	mov	lr, r3
 8002e1a:	4770      	bx	lr

08002e1c <_fini>:
 8002e1c:	b5f8      	push	{r3, r4, r5, r6, r7, lr}
 8002e1e:	bf00      	nop
 8002e20:	bcf8      	pop	{r3, r4, r5, r6, r7}
 8002e22:	bc08      	pop	{r3}
 8002e24:	469e      	mov	lr, r3
 8002e26:	4770      	bx	lr
