
bluebil.elf:     file format elf32-littlearm

Sections:
Idx Name          Size      VMA       LMA       File off  Algn
  0 .isr_vector   0000010c  08000000  08000000  00010000  2**0
                  CONTENTS, ALLOC, LOAD, READONLY, DATA
  1 .text         00003130  0800010c  0800010c  0001010c  2**2
                  CONTENTS, ALLOC, LOAD, READONLY, CODE
  2 .rodata       00000000  0800323c  0800323c  000200cc  2**0
                  CONTENTS, ALLOC, LOAD, DATA
  3 .ARM.extab    00000000  0800323c  0800323c  000200cc  2**0
                  CONTENTS
  4 .ARM          00000000  0800323c  0800323c  000200cc  2**0
                  CONTENTS
  5 .preinit_array 00000000  0800323c  0800323c  000200cc  2**0
                  CONTENTS, ALLOC, LOAD, DATA
  6 .init_array   00000004  0800323c  0800323c  0001323c  2**2
                  CONTENTS, ALLOC, LOAD, DATA
  7 .fini_array   00000004  08003240  08003240  00013240  2**2
                  CONTENTS, ALLOC, LOAD, DATA
  8 .data         000000cc  20000000  08003244  00020000  2**2
                  CONTENTS, ALLOC, LOAD, DATA
  9 .bss          00000110  200000cc  08003310  000200cc  2**2
                  ALLOC
 10 ._user_heap_stack 00000604  200001dc  08003310  000201dc  2**0
                  ALLOC
 11 .ARM.attributes 00000029  00000000  00000000  000200cc  2**0
                  CONTENTS, READONLY
 12 .debug_info   00002210  00000000  00000000  000200f5  2**0
                  CONTENTS, READONLY, DEBUGGING
 13 .debug_abbrev 00000bf1  00000000  00000000  00022305  2**0
                  CONTENTS, READONLY, DEBUGGING
 14 .debug_aranges 00000408  00000000  00000000  00022ef8  2**3
                  CONTENTS, READONLY, DEBUGGING
 15 .debug_ranges 00000340  00000000  00000000  00023300  2**3
                  CONTENTS, READONLY, DEBUGGING
 16 .debug_macro  0000216b  00000000  00000000  00023640  2**0
                  CONTENTS, READONLY, DEBUGGING
 17 .debug_line   000020c3  00000000  00000000  000257ab  2**0
                  CONTENTS, READONLY, DEBUGGING
 18 .debug_str    00083713  00000000  00000000  0002786e  2**0
                  CONTENTS, READONLY, DEBUGGING
 19 .comment      0000007b  00000000  00000000  000aaf81  2**0
                  CONTENTS, READONLY
 20 .debug_frame  00000e64  00000000  00000000  000aaffc  2**2
                  CONTENTS, READONLY, DEBUGGING

Disassembly of section .text:

0800010c <__do_global_dtors_aux>:
 800010c:	b510      	push	{r4, lr}
 800010e:	4c05      	ldr	r4, [pc, #20]	; (8000124 <__do_global_dtors_aux+0x18>)
 8000110:	7823      	ldrb	r3, [r4, #0]
 8000112:	b933      	cbnz	r3, 8000122 <__do_global_dtors_aux+0x16>
 8000114:	4b04      	ldr	r3, [pc, #16]	; (8000128 <__do_global_dtors_aux+0x1c>)
 8000116:	b113      	cbz	r3, 800011e <__do_global_dtors_aux+0x12>
 8000118:	4804      	ldr	r0, [pc, #16]	; (800012c <__do_global_dtors_aux+0x20>)
 800011a:	f3af 8000 	nop.w
 800011e:	2301      	movs	r3, #1
 8000120:	7023      	strb	r3, [r4, #0]
 8000122:	bd10      	pop	{r4, pc}
 8000124:	200000cc 	.word	0x200000cc
 8000128:	00000000 	.word	0x00000000
 800012c:	08003224 	.word	0x08003224

08000130 <frame_dummy>:
 8000130:	b508      	push	{r3, lr}
 8000132:	4b03      	ldr	r3, [pc, #12]	; (8000140 <frame_dummy+0x10>)
 8000134:	b11b      	cbz	r3, 800013e <frame_dummy+0xe>
 8000136:	4903      	ldr	r1, [pc, #12]	; (8000144 <frame_dummy+0x14>)
 8000138:	4803      	ldr	r0, [pc, #12]	; (8000148 <frame_dummy+0x18>)
 800013a:	f3af 8000 	nop.w
 800013e:	bd08      	pop	{r3, pc}
 8000140:	00000000 	.word	0x00000000
 8000144:	200000d0 	.word	0x200000d0
 8000148:	08003224 	.word	0x08003224

0800014c <__aeabi_drsub>:
 800014c:	f081 4100 	eor.w	r1, r1, #2147483648	; 0x80000000
 8000150:	e002      	b.n	8000158 <__adddf3>
 8000152:	bf00      	nop

08000154 <__aeabi_dsub>:
 8000154:	f083 4300 	eor.w	r3, r3, #2147483648	; 0x80000000

08000158 <__adddf3>:
 8000158:	b530      	push	{r4, r5, lr}
 800015a:	ea4f 0441 	mov.w	r4, r1, lsl #1
 800015e:	ea4f 0543 	mov.w	r5, r3, lsl #1
 8000162:	ea94 0f05 	teq	r4, r5
 8000166:	bf08      	it	eq
 8000168:	ea90 0f02 	teqeq	r0, r2
 800016c:	bf1f      	itttt	ne
 800016e:	ea54 0c00 	orrsne.w	ip, r4, r0
 8000172:	ea55 0c02 	orrsne.w	ip, r5, r2
 8000176:	ea7f 5c64 	mvnsne.w	ip, r4, asr #21
 800017a:	ea7f 5c65 	mvnsne.w	ip, r5, asr #21
 800017e:	f000 80e2 	beq.w	8000346 <__adddf3+0x1ee>
 8000182:	ea4f 5454 	mov.w	r4, r4, lsr #21
 8000186:	ebd4 5555 	rsbs	r5, r4, r5, lsr #21
 800018a:	bfb8      	it	lt
 800018c:	426d      	neglt	r5, r5
 800018e:	dd0c      	ble.n	80001aa <__adddf3+0x52>
 8000190:	442c      	add	r4, r5
 8000192:	ea80 0202 	eor.w	r2, r0, r2
 8000196:	ea81 0303 	eor.w	r3, r1, r3
 800019a:	ea82 0000 	eor.w	r0, r2, r0
 800019e:	ea83 0101 	eor.w	r1, r3, r1
 80001a2:	ea80 0202 	eor.w	r2, r0, r2
 80001a6:	ea81 0303 	eor.w	r3, r1, r3
 80001aa:	2d36      	cmp	r5, #54	; 0x36
 80001ac:	bf88      	it	hi
 80001ae:	bd30      	pophi	{r4, r5, pc}
 80001b0:	f011 4f00 	tst.w	r1, #2147483648	; 0x80000000
 80001b4:	ea4f 3101 	mov.w	r1, r1, lsl #12
 80001b8:	f44f 1c80 	mov.w	ip, #1048576	; 0x100000
 80001bc:	ea4c 3111 	orr.w	r1, ip, r1, lsr #12
 80001c0:	d002      	beq.n	80001c8 <__adddf3+0x70>
 80001c2:	4240      	negs	r0, r0
 80001c4:	eb61 0141 	sbc.w	r1, r1, r1, lsl #1
 80001c8:	f013 4f00 	tst.w	r3, #2147483648	; 0x80000000
 80001cc:	ea4f 3303 	mov.w	r3, r3, lsl #12
 80001d0:	ea4c 3313 	orr.w	r3, ip, r3, lsr #12
 80001d4:	d002      	beq.n	80001dc <__adddf3+0x84>
 80001d6:	4252      	negs	r2, r2
 80001d8:	eb63 0343 	sbc.w	r3, r3, r3, lsl #1
 80001dc:	ea94 0f05 	teq	r4, r5
 80001e0:	f000 80a7 	beq.w	8000332 <__adddf3+0x1da>
 80001e4:	f1a4 0401 	sub.w	r4, r4, #1
 80001e8:	f1d5 0e20 	rsbs	lr, r5, #32
 80001ec:	db0d      	blt.n	800020a <__adddf3+0xb2>
 80001ee:	fa02 fc0e 	lsl.w	ip, r2, lr
 80001f2:	fa22 f205 	lsr.w	r2, r2, r5
 80001f6:	1880      	adds	r0, r0, r2
 80001f8:	f141 0100 	adc.w	r1, r1, #0
 80001fc:	fa03 f20e 	lsl.w	r2, r3, lr
 8000200:	1880      	adds	r0, r0, r2
 8000202:	fa43 f305 	asr.w	r3, r3, r5
 8000206:	4159      	adcs	r1, r3
 8000208:	e00e      	b.n	8000228 <__adddf3+0xd0>
 800020a:	f1a5 0520 	sub.w	r5, r5, #32
 800020e:	f10e 0e20 	add.w	lr, lr, #32
 8000212:	2a01      	cmp	r2, #1
 8000214:	fa03 fc0e 	lsl.w	ip, r3, lr
 8000218:	bf28      	it	cs
 800021a:	f04c 0c02 	orrcs.w	ip, ip, #2
 800021e:	fa43 f305 	asr.w	r3, r3, r5
 8000222:	18c0      	adds	r0, r0, r3
 8000224:	eb51 71e3 	adcs.w	r1, r1, r3, asr #31
 8000228:	f001 4500 	and.w	r5, r1, #2147483648	; 0x80000000
 800022c:	d507      	bpl.n	800023e <__adddf3+0xe6>
 800022e:	f04f 0e00 	mov.w	lr, #0
 8000232:	f1dc 0c00 	rsbs	ip, ip, #0
 8000236:	eb7e 0000 	sbcs.w	r0, lr, r0
 800023a:	eb6e 0101 	sbc.w	r1, lr, r1
 800023e:	f5b1 1f80 	cmp.w	r1, #1048576	; 0x100000
 8000242:	d31b      	bcc.n	800027c <__adddf3+0x124>
 8000244:	f5b1 1f00 	cmp.w	r1, #2097152	; 0x200000
 8000248:	d30c      	bcc.n	8000264 <__adddf3+0x10c>
 800024a:	0849      	lsrs	r1, r1, #1
 800024c:	ea5f 0030 	movs.w	r0, r0, rrx
 8000250:	ea4f 0c3c 	mov.w	ip, ip, rrx
 8000254:	f104 0401 	add.w	r4, r4, #1
 8000258:	ea4f 5244 	mov.w	r2, r4, lsl #21
 800025c:	f512 0f80 	cmn.w	r2, #4194304	; 0x400000
 8000260:	f080 809a 	bcs.w	8000398 <__adddf3+0x240>
 8000264:	f1bc 4f00 	cmp.w	ip, #2147483648	; 0x80000000
 8000268:	bf08      	it	eq
 800026a:	ea5f 0c50 	movseq.w	ip, r0, lsr #1
 800026e:	f150 0000 	adcs.w	r0, r0, #0
 8000272:	eb41 5104 	adc.w	r1, r1, r4, lsl #20
 8000276:	ea41 0105 	orr.w	r1, r1, r5
 800027a:	bd30      	pop	{r4, r5, pc}
 800027c:	ea5f 0c4c 	movs.w	ip, ip, lsl #1
 8000280:	4140      	adcs	r0, r0
 8000282:	eb41 0101 	adc.w	r1, r1, r1
 8000286:	f411 1f80 	tst.w	r1, #1048576	; 0x100000
 800028a:	f1a4 0401 	sub.w	r4, r4, #1
 800028e:	d1e9      	bne.n	8000264 <__adddf3+0x10c>
 8000290:	f091 0f00 	teq	r1, #0
 8000294:	bf04      	itt	eq
 8000296:	4601      	moveq	r1, r0
 8000298:	2000      	moveq	r0, #0
 800029a:	fab1 f381 	clz	r3, r1
 800029e:	bf08      	it	eq
 80002a0:	3320      	addeq	r3, #32
 80002a2:	f1a3 030b 	sub.w	r3, r3, #11
 80002a6:	f1b3 0220 	subs.w	r2, r3, #32
 80002aa:	da0c      	bge.n	80002c6 <__adddf3+0x16e>
 80002ac:	320c      	adds	r2, #12
 80002ae:	dd08      	ble.n	80002c2 <__adddf3+0x16a>
 80002b0:	f102 0c14 	add.w	ip, r2, #20
 80002b4:	f1c2 020c 	rsb	r2, r2, #12
 80002b8:	fa01 f00c 	lsl.w	r0, r1, ip
 80002bc:	fa21 f102 	lsr.w	r1, r1, r2
 80002c0:	e00c      	b.n	80002dc <__adddf3+0x184>
 80002c2:	f102 0214 	add.w	r2, r2, #20
 80002c6:	bfd8      	it	le
 80002c8:	f1c2 0c20 	rsble	ip, r2, #32
 80002cc:	fa01 f102 	lsl.w	r1, r1, r2
 80002d0:	fa20 fc0c 	lsr.w	ip, r0, ip
 80002d4:	bfdc      	itt	le
 80002d6:	ea41 010c 	orrle.w	r1, r1, ip
 80002da:	4090      	lslle	r0, r2
 80002dc:	1ae4      	subs	r4, r4, r3
 80002de:	bfa2      	ittt	ge
 80002e0:	eb01 5104 	addge.w	r1, r1, r4, lsl #20
 80002e4:	4329      	orrge	r1, r5
 80002e6:	bd30      	popge	{r4, r5, pc}
 80002e8:	ea6f 0404 	mvn.w	r4, r4
 80002ec:	3c1f      	subs	r4, #31
 80002ee:	da1c      	bge.n	800032a <__adddf3+0x1d2>
 80002f0:	340c      	adds	r4, #12
 80002f2:	dc0e      	bgt.n	8000312 <__adddf3+0x1ba>
 80002f4:	f104 0414 	add.w	r4, r4, #20
 80002f8:	f1c4 0220 	rsb	r2, r4, #32
 80002fc:	fa20 f004 	lsr.w	r0, r0, r4
 8000300:	fa01 f302 	lsl.w	r3, r1, r2
 8000304:	ea40 0003 	orr.w	r0, r0, r3
 8000308:	fa21 f304 	lsr.w	r3, r1, r4
 800030c:	ea45 0103 	orr.w	r1, r5, r3
 8000310:	bd30      	pop	{r4, r5, pc}
 8000312:	f1c4 040c 	rsb	r4, r4, #12
 8000316:	f1c4 0220 	rsb	r2, r4, #32
 800031a:	fa20 f002 	lsr.w	r0, r0, r2
 800031e:	fa01 f304 	lsl.w	r3, r1, r4
 8000322:	ea40 0003 	orr.w	r0, r0, r3
 8000326:	4629      	mov	r1, r5
 8000328:	bd30      	pop	{r4, r5, pc}
 800032a:	fa21 f004 	lsr.w	r0, r1, r4
 800032e:	4629      	mov	r1, r5
 8000330:	bd30      	pop	{r4, r5, pc}
 8000332:	f094 0f00 	teq	r4, #0
 8000336:	f483 1380 	eor.w	r3, r3, #1048576	; 0x100000
 800033a:	bf06      	itte	eq
 800033c:	f481 1180 	eoreq.w	r1, r1, #1048576	; 0x100000
 8000340:	3401      	addeq	r4, #1
 8000342:	3d01      	subne	r5, #1
 8000344:	e74e      	b.n	80001e4 <__adddf3+0x8c>
 8000346:	ea7f 5c64 	mvns.w	ip, r4, asr #21
 800034a:	bf18      	it	ne
 800034c:	ea7f 5c65 	mvnsne.w	ip, r5, asr #21
 8000350:	d029      	beq.n	80003a6 <__adddf3+0x24e>
 8000352:	ea94 0f05 	teq	r4, r5
 8000356:	bf08      	it	eq
 8000358:	ea90 0f02 	teqeq	r0, r2
 800035c:	d005      	beq.n	800036a <__adddf3+0x212>
 800035e:	ea54 0c00 	orrs.w	ip, r4, r0
 8000362:	bf04      	itt	eq
 8000364:	4619      	moveq	r1, r3
 8000366:	4610      	moveq	r0, r2
 8000368:	bd30      	pop	{r4, r5, pc}
 800036a:	ea91 0f03 	teq	r1, r3
 800036e:	bf1e      	ittt	ne
 8000370:	2100      	movne	r1, #0
 8000372:	2000      	movne	r0, #0
 8000374:	bd30      	popne	{r4, r5, pc}
 8000376:	ea5f 5c54 	movs.w	ip, r4, lsr #21
 800037a:	d105      	bne.n	8000388 <__adddf3+0x230>
 800037c:	0040      	lsls	r0, r0, #1
 800037e:	4149      	adcs	r1, r1
 8000380:	bf28      	it	cs
 8000382:	f041 4100 	orrcs.w	r1, r1, #2147483648	; 0x80000000
 8000386:	bd30      	pop	{r4, r5, pc}
 8000388:	f514 0480 	adds.w	r4, r4, #4194304	; 0x400000
 800038c:	bf3c      	itt	cc
 800038e:	f501 1180 	addcc.w	r1, r1, #1048576	; 0x100000
 8000392:	bd30      	popcc	{r4, r5, pc}
 8000394:	f001 4500 	and.w	r5, r1, #2147483648	; 0x80000000
 8000398:	f045 41fe 	orr.w	r1, r5, #2130706432	; 0x7f000000
 800039c:	f441 0170 	orr.w	r1, r1, #15728640	; 0xf00000
 80003a0:	f04f 0000 	mov.w	r0, #0
 80003a4:	bd30      	pop	{r4, r5, pc}
 80003a6:	ea7f 5c64 	mvns.w	ip, r4, asr #21
 80003aa:	bf1a      	itte	ne
 80003ac:	4619      	movne	r1, r3
 80003ae:	4610      	movne	r0, r2
 80003b0:	ea7f 5c65 	mvnseq.w	ip, r5, asr #21
 80003b4:	bf1c      	itt	ne
 80003b6:	460b      	movne	r3, r1
 80003b8:	4602      	movne	r2, r0
 80003ba:	ea50 3401 	orrs.w	r4, r0, r1, lsl #12
 80003be:	bf06      	itte	eq
 80003c0:	ea52 3503 	orrseq.w	r5, r2, r3, lsl #12
 80003c4:	ea91 0f03 	teqeq	r1, r3
 80003c8:	f441 2100 	orrne.w	r1, r1, #524288	; 0x80000
 80003cc:	bd30      	pop	{r4, r5, pc}
 80003ce:	bf00      	nop

080003d0 <__aeabi_ui2d>:
 80003d0:	f090 0f00 	teq	r0, #0
 80003d4:	bf04      	itt	eq
 80003d6:	2100      	moveq	r1, #0
 80003d8:	4770      	bxeq	lr
 80003da:	b530      	push	{r4, r5, lr}
 80003dc:	f44f 6480 	mov.w	r4, #1024	; 0x400
 80003e0:	f104 0432 	add.w	r4, r4, #50	; 0x32
 80003e4:	f04f 0500 	mov.w	r5, #0
 80003e8:	f04f 0100 	mov.w	r1, #0
 80003ec:	e750      	b.n	8000290 <__adddf3+0x138>
 80003ee:	bf00      	nop

080003f0 <__aeabi_i2d>:
 80003f0:	f090 0f00 	teq	r0, #0
 80003f4:	bf04      	itt	eq
 80003f6:	2100      	moveq	r1, #0
 80003f8:	4770      	bxeq	lr
 80003fa:	b530      	push	{r4, r5, lr}
 80003fc:	f44f 6480 	mov.w	r4, #1024	; 0x400
 8000400:	f104 0432 	add.w	r4, r4, #50	; 0x32
 8000404:	f010 4500 	ands.w	r5, r0, #2147483648	; 0x80000000
 8000408:	bf48      	it	mi
 800040a:	4240      	negmi	r0, r0
 800040c:	f04f 0100 	mov.w	r1, #0
 8000410:	e73e      	b.n	8000290 <__adddf3+0x138>
 8000412:	bf00      	nop

08000414 <__aeabi_f2d>:
 8000414:	0042      	lsls	r2, r0, #1
 8000416:	ea4f 01e2 	mov.w	r1, r2, asr #3
 800041a:	ea4f 0131 	mov.w	r1, r1, rrx
 800041e:	ea4f 7002 	mov.w	r0, r2, lsl #28
 8000422:	bf1f      	itttt	ne
 8000424:	f012 437f 	andsne.w	r3, r2, #4278190080	; 0xff000000
 8000428:	f093 4f7f 	teqne	r3, #4278190080	; 0xff000000
 800042c:	f081 5160 	eorne.w	r1, r1, #939524096	; 0x38000000
 8000430:	4770      	bxne	lr
 8000432:	f032 427f 	bics.w	r2, r2, #4278190080	; 0xff000000
 8000436:	bf08      	it	eq
 8000438:	4770      	bxeq	lr
 800043a:	f093 4f7f 	teq	r3, #4278190080	; 0xff000000
 800043e:	bf04      	itt	eq
 8000440:	f441 2100 	orreq.w	r1, r1, #524288	; 0x80000
 8000444:	4770      	bxeq	lr
 8000446:	b530      	push	{r4, r5, lr}
 8000448:	f44f 7460 	mov.w	r4, #896	; 0x380
 800044c:	f001 4500 	and.w	r5, r1, #2147483648	; 0x80000000
 8000450:	f021 4100 	bic.w	r1, r1, #2147483648	; 0x80000000
 8000454:	e71c      	b.n	8000290 <__adddf3+0x138>
 8000456:	bf00      	nop

08000458 <__aeabi_ul2d>:
 8000458:	ea50 0201 	orrs.w	r2, r0, r1
 800045c:	bf08      	it	eq
 800045e:	4770      	bxeq	lr
 8000460:	b530      	push	{r4, r5, lr}
 8000462:	f04f 0500 	mov.w	r5, #0
 8000466:	e00a      	b.n	800047e <__aeabi_l2d+0x16>

08000468 <__aeabi_l2d>:
 8000468:	ea50 0201 	orrs.w	r2, r0, r1
 800046c:	bf08      	it	eq
 800046e:	4770      	bxeq	lr
 8000470:	b530      	push	{r4, r5, lr}
 8000472:	f011 4500 	ands.w	r5, r1, #2147483648	; 0x80000000
 8000476:	d502      	bpl.n	800047e <__aeabi_l2d+0x16>
 8000478:	4240      	negs	r0, r0
 800047a:	eb61 0141 	sbc.w	r1, r1, r1, lsl #1
 800047e:	f44f 6480 	mov.w	r4, #1024	; 0x400
 8000482:	f104 0432 	add.w	r4, r4, #50	; 0x32
 8000486:	ea5f 5c91 	movs.w	ip, r1, lsr #22
 800048a:	f43f aed8 	beq.w	800023e <__adddf3+0xe6>
 800048e:	f04f 0203 	mov.w	r2, #3
 8000492:	ea5f 0cdc 	movs.w	ip, ip, lsr #3
 8000496:	bf18      	it	ne
 8000498:	3203      	addne	r2, #3
 800049a:	ea5f 0cdc 	movs.w	ip, ip, lsr #3
 800049e:	bf18      	it	ne
 80004a0:	3203      	addne	r2, #3
 80004a2:	eb02 02dc 	add.w	r2, r2, ip, lsr #3
 80004a6:	f1c2 0320 	rsb	r3, r2, #32
 80004aa:	fa00 fc03 	lsl.w	ip, r0, r3
 80004ae:	fa20 f002 	lsr.w	r0, r0, r2
 80004b2:	fa01 fe03 	lsl.w	lr, r1, r3
 80004b6:	ea40 000e 	orr.w	r0, r0, lr
 80004ba:	fa21 f102 	lsr.w	r1, r1, r2
 80004be:	4414      	add	r4, r2
 80004c0:	e6bd      	b.n	800023e <__adddf3+0xe6>
 80004c2:	bf00      	nop

080004c4 <__gedf2>:
 80004c4:	f04f 3cff 	mov.w	ip, #4294967295
 80004c8:	e006      	b.n	80004d8 <__cmpdf2+0x4>
 80004ca:	bf00      	nop

080004cc <__ledf2>:
 80004cc:	f04f 0c01 	mov.w	ip, #1
 80004d0:	e002      	b.n	80004d8 <__cmpdf2+0x4>
 80004d2:	bf00      	nop

080004d4 <__cmpdf2>:
 80004d4:	f04f 0c01 	mov.w	ip, #1
 80004d8:	f84d cd04 	str.w	ip, [sp, #-4]!
 80004dc:	ea4f 0c41 	mov.w	ip, r1, lsl #1
 80004e0:	ea7f 5c6c 	mvns.w	ip, ip, asr #21
 80004e4:	ea4f 0c43 	mov.w	ip, r3, lsl #1
 80004e8:	bf18      	it	ne
 80004ea:	ea7f 5c6c 	mvnsne.w	ip, ip, asr #21
 80004ee:	d01b      	beq.n	8000528 <__cmpdf2+0x54>
 80004f0:	b001      	add	sp, #4
 80004f2:	ea50 0c41 	orrs.w	ip, r0, r1, lsl #1
 80004f6:	bf0c      	ite	eq
 80004f8:	ea52 0c43 	orrseq.w	ip, r2, r3, lsl #1
 80004fc:	ea91 0f03 	teqne	r1, r3
 8000500:	bf02      	ittt	eq
 8000502:	ea90 0f02 	teqeq	r0, r2
 8000506:	2000      	moveq	r0, #0
 8000508:	4770      	bxeq	lr
 800050a:	f110 0f00 	cmn.w	r0, #0
 800050e:	ea91 0f03 	teq	r1, r3
 8000512:	bf58      	it	pl
 8000514:	4299      	cmppl	r1, r3
 8000516:	bf08      	it	eq
 8000518:	4290      	cmpeq	r0, r2
 800051a:	bf2c      	ite	cs
 800051c:	17d8      	asrcs	r0, r3, #31
 800051e:	ea6f 70e3 	mvncc.w	r0, r3, asr #31
 8000522:	f040 0001 	orr.w	r0, r0, #1
 8000526:	4770      	bx	lr
 8000528:	ea4f 0c41 	mov.w	ip, r1, lsl #1
 800052c:	ea7f 5c6c 	mvns.w	ip, ip, asr #21
 8000530:	d102      	bne.n	8000538 <__cmpdf2+0x64>
 8000532:	ea50 3c01 	orrs.w	ip, r0, r1, lsl #12
 8000536:	d107      	bne.n	8000548 <__cmpdf2+0x74>
 8000538:	ea4f 0c43 	mov.w	ip, r3, lsl #1
 800053c:	ea7f 5c6c 	mvns.w	ip, ip, asr #21
 8000540:	d1d6      	bne.n	80004f0 <__cmpdf2+0x1c>
 8000542:	ea52 3c03 	orrs.w	ip, r2, r3, lsl #12
 8000546:	d0d3      	beq.n	80004f0 <__cmpdf2+0x1c>
 8000548:	f85d 0b04 	ldr.w	r0, [sp], #4
 800054c:	4770      	bx	lr
 800054e:	bf00      	nop

08000550 <__aeabi_cdrcmple>:
 8000550:	4684      	mov	ip, r0
 8000552:	4610      	mov	r0, r2
 8000554:	4662      	mov	r2, ip
 8000556:	468c      	mov	ip, r1
 8000558:	4619      	mov	r1, r3
 800055a:	4663      	mov	r3, ip
 800055c:	e000      	b.n	8000560 <__aeabi_cdcmpeq>
 800055e:	bf00      	nop

08000560 <__aeabi_cdcmpeq>:
 8000560:	b501      	push	{r0, lr}
 8000562:	f7ff ffb7 	bl	80004d4 <__cmpdf2>
 8000566:	2800      	cmp	r0, #0
 8000568:	bf48      	it	mi
 800056a:	f110 0f00 	cmnmi.w	r0, #0
 800056e:	bd01      	pop	{r0, pc}

08000570 <__aeabi_dcmpeq>:
 8000570:	f84d ed08 	str.w	lr, [sp, #-8]!
 8000574:	f7ff fff4 	bl	8000560 <__aeabi_cdcmpeq>
 8000578:	bf0c      	ite	eq
 800057a:	2001      	moveq	r0, #1
 800057c:	2000      	movne	r0, #0
 800057e:	f85d fb08 	ldr.w	pc, [sp], #8
 8000582:	bf00      	nop

08000584 <__aeabi_dcmplt>:
 8000584:	f84d ed08 	str.w	lr, [sp, #-8]!
 8000588:	f7ff ffea 	bl	8000560 <__aeabi_cdcmpeq>
 800058c:	bf34      	ite	cc
 800058e:	2001      	movcc	r0, #1
 8000590:	2000      	movcs	r0, #0
 8000592:	f85d fb08 	ldr.w	pc, [sp], #8
 8000596:	bf00      	nop

08000598 <__aeabi_dcmple>:
 8000598:	f84d ed08 	str.w	lr, [sp, #-8]!
 800059c:	f7ff ffe0 	bl	8000560 <__aeabi_cdcmpeq>
 80005a0:	bf94      	ite	ls
 80005a2:	2001      	movls	r0, #1
 80005a4:	2000      	movhi	r0, #0
 80005a6:	f85d fb08 	ldr.w	pc, [sp], #8
 80005aa:	bf00      	nop

080005ac <__aeabi_dcmpge>:
 80005ac:	f84d ed08 	str.w	lr, [sp, #-8]!
 80005b0:	f7ff ffce 	bl	8000550 <__aeabi_cdrcmple>
 80005b4:	bf94      	ite	ls
 80005b6:	2001      	movls	r0, #1
 80005b8:	2000      	movhi	r0, #0
 80005ba:	f85d fb08 	ldr.w	pc, [sp], #8
 80005be:	bf00      	nop

080005c0 <__aeabi_dcmpgt>:
 80005c0:	f84d ed08 	str.w	lr, [sp, #-8]!
 80005c4:	f7ff ffc4 	bl	8000550 <__aeabi_cdrcmple>
 80005c8:	bf34      	ite	cc
 80005ca:	2001      	movcc	r0, #1
 80005cc:	2000      	movcs	r0, #0
 80005ce:	f85d fb08 	ldr.w	pc, [sp], #8
 80005d2:	bf00      	nop

080005d4 <EXTI0_IRQHandler>:
	EXTI0_CallBack = ptr ;
	
}	

void EXTI0_IRQHandler(void)
{
 80005d4:	b580      	push	{r7, lr}
 80005d6:	af00      	add	r7, sp, #0
	EXTI0_CallBack();
 80005d8:	4b05      	ldr	r3, [pc, #20]	; (80005f0 <EXTI0_IRQHandler+0x1c>)
 80005da:	681b      	ldr	r3, [r3, #0]
 80005dc:	4798      	blx	r3
	/*	Clear pending Bit For EXTI0		*/
	SET_BIT(EXTI -> PR , 0);	
 80005de:	4b05      	ldr	r3, [pc, #20]	; (80005f4 <EXTI0_IRQHandler+0x20>)
 80005e0:	695b      	ldr	r3, [r3, #20]
 80005e2:	4a04      	ldr	r2, [pc, #16]	; (80005f4 <EXTI0_IRQHandler+0x20>)
 80005e4:	f043 0301 	orr.w	r3, r3, #1
 80005e8:	6153      	str	r3, [r2, #20]
}	
 80005ea:	bf00      	nop
 80005ec:	bd80      	pop	{r7, pc}
 80005ee:	bf00      	nop
 80005f0:	200000e8 	.word	0x200000e8
 80005f4:	40010400 	.word	0x40010400

080005f8 <GPIO_voidSetPinMode>:
					
}
void  GPIO_VoidDeInit();

u8 GPIO_voidSetPinMode(u8 copy_u8portID,u8 copy_u8PinID,u8 copy_u8Mode)
{
 80005f8:	b480      	push	{r7}
 80005fa:	b085      	sub	sp, #20
 80005fc:	af00      	add	r7, sp, #0
 80005fe:	4603      	mov	r3, r0
 8000600:	71fb      	strb	r3, [r7, #7]
 8000602:	460b      	mov	r3, r1
 8000604:	71bb      	strb	r3, [r7, #6]
 8000606:	4613      	mov	r3, r2
 8000608:	717b      	strb	r3, [r7, #5]
	u8 lacal_u8ErrorState = STD_TYPE_OK;
 800060a:	2301      	movs	r3, #1
 800060c:	73fb      	strb	r3, [r7, #15]
	if(copy_u8portID <= GPIO_PORTG && copy_u8PinID <= GPIO_PIN15 && copy_u8Mode <= GPIO_OUTPUT_50M_AF_OD)
 800060e:	79fb      	ldrb	r3, [r7, #7]
 8000610:	2b07      	cmp	r3, #7
 8000612:	f200 817a 	bhi.w	800090a <GPIO_voidSetPinMode+0x312>
 8000616:	79bb      	ldrb	r3, [r7, #6]
 8000618:	2b0f      	cmp	r3, #15
 800061a:	f200 8176 	bhi.w	800090a <GPIO_voidSetPinMode+0x312>
 800061e:	797b      	ldrb	r3, [r7, #5]
 8000620:	2b0f      	cmp	r3, #15
 8000622:	f200 8172 	bhi.w	800090a <GPIO_voidSetPinMode+0x312>
	{
		switch(copy_u8portID)
 8000626:	79fb      	ldrb	r3, [r7, #7]
 8000628:	3b01      	subs	r3, #1
 800062a:	2b06      	cmp	r3, #6
 800062c:	f200 8170 	bhi.w	8000910 <GPIO_voidSetPinMode+0x318>
 8000630:	a201      	add	r2, pc, #4	; (adr r2, 8000638 <GPIO_voidSetPinMode+0x40>)
 8000632:	f852 f023 	ldr.w	pc, [r2, r3, lsl #2]
 8000636:	bf00      	nop
 8000638:	08000655 	.word	0x08000655
 800063c:	080006b5 	.word	0x080006b5
 8000640:	08000715 	.word	0x08000715
 8000644:	08000775 	.word	0x08000775
 8000648:	080007d5 	.word	0x080007d5
 800064c:	08000833 	.word	0x08000833
 8000650:	08000891 	.word	0x08000891
		{
			case GPIO_PORTA: 
				if(copy_u8PinID<=7)
 8000654:	79bb      	ldrb	r3, [r7, #6]
 8000656:	2b07      	cmp	r3, #7
 8000658:	d812      	bhi.n	8000680 <GPIO_voidSetPinMode+0x88>
				{
					SET_4BIT_Val(GPIOA->CRL,copy_u8PinID*4,copy_u8Mode);
 800065a:	4bb1      	ldr	r3, [pc, #708]	; (8000920 <GPIO_voidSetPinMode+0x328>)
 800065c:	681b      	ldr	r3, [r3, #0]
 800065e:	79ba      	ldrb	r2, [r7, #6]
 8000660:	0092      	lsls	r2, r2, #2
 8000662:	210f      	movs	r1, #15
 8000664:	fa01 f202 	lsl.w	r2, r1, r2
 8000668:	43d2      	mvns	r2, r2
 800066a:	4013      	ands	r3, r2
 800066c:	7979      	ldrb	r1, [r7, #5]
 800066e:	79ba      	ldrb	r2, [r7, #6]
 8000670:	0092      	lsls	r2, r2, #2
 8000672:	fa01 f202 	lsl.w	r2, r1, r2
 8000676:	4611      	mov	r1, r2
 8000678:	4aa9      	ldr	r2, [pc, #676]	; (8000920 <GPIO_voidSetPinMode+0x328>)
 800067a:	430b      	orrs	r3, r1
 800067c:	6013      	str	r3, [r2, #0]
				else if(copy_u8PinID <=15)
				{
					copy_u8PinID-=8;
					SET_4BIT_Val(GPIOA->CRH,copy_u8PinID*4,copy_u8Mode);
				}
				break;
 800067e:	e136      	b.n	80008ee <GPIO_voidSetPinMode+0x2f6>
				else if(copy_u8PinID <=15)
 8000680:	79bb      	ldrb	r3, [r7, #6]
 8000682:	2b0f      	cmp	r3, #15
 8000684:	f200 8133 	bhi.w	80008ee <GPIO_voidSetPinMode+0x2f6>
					copy_u8PinID-=8;
 8000688:	79bb      	ldrb	r3, [r7, #6]
 800068a:	3b08      	subs	r3, #8
 800068c:	71bb      	strb	r3, [r7, #6]
					SET_4BIT_Val(GPIOA->CRH,copy_u8PinID*4,copy_u8Mode);
 800068e:	4ba4      	ldr	r3, [pc, #656]	; (8000920 <GPIO_voidSetPinMode+0x328>)
 8000690:	685b      	ldr	r3, [r3, #4]
 8000692:	79ba      	ldrb	r2, [r7, #6]
 8000694:	0092      	lsls	r2, r2, #2
 8000696:	210f      	movs	r1, #15
 8000698:	fa01 f202 	lsl.w	r2, r1, r2
 800069c:	43d2      	mvns	r2, r2
 800069e:	4013      	ands	r3, r2
 80006a0:	7979      	ldrb	r1, [r7, #5]
 80006a2:	79ba      	ldrb	r2, [r7, #6]
 80006a4:	0092      	lsls	r2, r2, #2
 80006a6:	fa01 f202 	lsl.w	r2, r1, r2
 80006aa:	4611      	mov	r1, r2
 80006ac:	4a9c      	ldr	r2, [pc, #624]	; (8000920 <GPIO_voidSetPinMode+0x328>)
 80006ae:	430b      	orrs	r3, r1
 80006b0:	6053      	str	r3, [r2, #4]
				break;
 80006b2:	e11c      	b.n	80008ee <GPIO_voidSetPinMode+0x2f6>
			case GPIO_PORTB: 
				if(copy_u8PinID<=7)
 80006b4:	79bb      	ldrb	r3, [r7, #6]
 80006b6:	2b07      	cmp	r3, #7
 80006b8:	d812      	bhi.n	80006e0 <GPIO_voidSetPinMode+0xe8>
				{
					SET_4BIT_Val(GPIOB->CRL,copy_u8PinID*4,copy_u8Mode);
 80006ba:	4b9a      	ldr	r3, [pc, #616]	; (8000924 <GPIO_voidSetPinMode+0x32c>)
 80006bc:	681b      	ldr	r3, [r3, #0]
 80006be:	79ba      	ldrb	r2, [r7, #6]
 80006c0:	0092      	lsls	r2, r2, #2
 80006c2:	210f      	movs	r1, #15
 80006c4:	fa01 f202 	lsl.w	r2, r1, r2
 80006c8:	43d2      	mvns	r2, r2
 80006ca:	4013      	ands	r3, r2
 80006cc:	7979      	ldrb	r1, [r7, #5]
 80006ce:	79ba      	ldrb	r2, [r7, #6]
 80006d0:	0092      	lsls	r2, r2, #2
 80006d2:	fa01 f202 	lsl.w	r2, r1, r2
 80006d6:	4611      	mov	r1, r2
 80006d8:	4a92      	ldr	r2, [pc, #584]	; (8000924 <GPIO_voidSetPinMode+0x32c>)
 80006da:	430b      	orrs	r3, r1
 80006dc:	6013      	str	r3, [r2, #0]
				else if(copy_u8PinID <=15)
				{
					copy_u8PinID-=8;
					SET_4BIT_Val(GPIOB->CRH,copy_u8PinID*4,copy_u8Mode);
				}
				break;
 80006de:	e108      	b.n	80008f2 <GPIO_voidSetPinMode+0x2fa>
				else if(copy_u8PinID <=15)
 80006e0:	79bb      	ldrb	r3, [r7, #6]
 80006e2:	2b0f      	cmp	r3, #15
 80006e4:	f200 8105 	bhi.w	80008f2 <GPIO_voidSetPinMode+0x2fa>
					copy_u8PinID-=8;
 80006e8:	79bb      	ldrb	r3, [r7, #6]
 80006ea:	3b08      	subs	r3, #8
 80006ec:	71bb      	strb	r3, [r7, #6]
					SET_4BIT_Val(GPIOB->CRH,copy_u8PinID*4,copy_u8Mode);
 80006ee:	4b8d      	ldr	r3, [pc, #564]	; (8000924 <GPIO_voidSetPinMode+0x32c>)
 80006f0:	685b      	ldr	r3, [r3, #4]
 80006f2:	79ba      	ldrb	r2, [r7, #6]
 80006f4:	0092      	lsls	r2, r2, #2
 80006f6:	210f      	movs	r1, #15
 80006f8:	fa01 f202 	lsl.w	r2, r1, r2
 80006fc:	43d2      	mvns	r2, r2
 80006fe:	4013      	ands	r3, r2
 8000700:	7979      	ldrb	r1, [r7, #5]
 8000702:	79ba      	ldrb	r2, [r7, #6]
 8000704:	0092      	lsls	r2, r2, #2
 8000706:	fa01 f202 	lsl.w	r2, r1, r2
 800070a:	4611      	mov	r1, r2
 800070c:	4a85      	ldr	r2, [pc, #532]	; (8000924 <GPIO_voidSetPinMode+0x32c>)
 800070e:	430b      	orrs	r3, r1
 8000710:	6053      	str	r3, [r2, #4]
				break;
 8000712:	e0ee      	b.n	80008f2 <GPIO_voidSetPinMode+0x2fa>
			case GPIO_PORTC: 
				if(copy_u8PinID<=7)
 8000714:	79bb      	ldrb	r3, [r7, #6]
 8000716:	2b07      	cmp	r3, #7
 8000718:	d812      	bhi.n	8000740 <GPIO_voidSetPinMode+0x148>
				{
					SET_4BIT_Val(GPIOC->CRL,copy_u8PinID*4,copy_u8Mode);
 800071a:	4b83      	ldr	r3, [pc, #524]	; (8000928 <GPIO_voidSetPinMode+0x330>)
 800071c:	681b      	ldr	r3, [r3, #0]
 800071e:	79ba      	ldrb	r2, [r7, #6]
 8000720:	0092      	lsls	r2, r2, #2
 8000722:	210f      	movs	r1, #15
 8000724:	fa01 f202 	lsl.w	r2, r1, r2
 8000728:	43d2      	mvns	r2, r2
 800072a:	4013      	ands	r3, r2
 800072c:	7979      	ldrb	r1, [r7, #5]
 800072e:	79ba      	ldrb	r2, [r7, #6]
 8000730:	0092      	lsls	r2, r2, #2
 8000732:	fa01 f202 	lsl.w	r2, r1, r2
 8000736:	4611      	mov	r1, r2
 8000738:	4a7b      	ldr	r2, [pc, #492]	; (8000928 <GPIO_voidSetPinMode+0x330>)
 800073a:	430b      	orrs	r3, r1
 800073c:	6013      	str	r3, [r2, #0]
				else if(copy_u8PinID <=15)
				{
					copy_u8PinID-=8;
					SET_4BIT_Val(GPIOC->CRH,copy_u8PinID*4,copy_u8Mode);
				}
				break;
 800073e:	e0da      	b.n	80008f6 <GPIO_voidSetPinMode+0x2fe>
				else if(copy_u8PinID <=15)
 8000740:	79bb      	ldrb	r3, [r7, #6]
 8000742:	2b0f      	cmp	r3, #15
 8000744:	f200 80d7 	bhi.w	80008f6 <GPIO_voidSetPinMode+0x2fe>
					copy_u8PinID-=8;
 8000748:	79bb      	ldrb	r3, [r7, #6]
 800074a:	3b08      	subs	r3, #8
 800074c:	71bb      	strb	r3, [r7, #6]
					SET_4BIT_Val(GPIOC->CRH,copy_u8PinID*4,copy_u8Mode);
 800074e:	4b76      	ldr	r3, [pc, #472]	; (8000928 <GPIO_voidSetPinMode+0x330>)
 8000750:	685b      	ldr	r3, [r3, #4]
 8000752:	79ba      	ldrb	r2, [r7, #6]
 8000754:	0092      	lsls	r2, r2, #2
 8000756:	210f      	movs	r1, #15
 8000758:	fa01 f202 	lsl.w	r2, r1, r2
 800075c:	43d2      	mvns	r2, r2
 800075e:	4013      	ands	r3, r2
 8000760:	7979      	ldrb	r1, [r7, #5]
 8000762:	79ba      	ldrb	r2, [r7, #6]
 8000764:	0092      	lsls	r2, r2, #2
 8000766:	fa01 f202 	lsl.w	r2, r1, r2
 800076a:	4611      	mov	r1, r2
 800076c:	4a6e      	ldr	r2, [pc, #440]	; (8000928 <GPIO_voidSetPinMode+0x330>)
 800076e:	430b      	orrs	r3, r1
 8000770:	6053      	str	r3, [r2, #4]
				break;
 8000772:	e0c0      	b.n	80008f6 <GPIO_voidSetPinMode+0x2fe>
			case GPIO_PORTD: 
				if(copy_u8PinID<=7)
 8000774:	79bb      	ldrb	r3, [r7, #6]
 8000776:	2b07      	cmp	r3, #7
 8000778:	d812      	bhi.n	80007a0 <GPIO_voidSetPinMode+0x1a8>
				{
					SET_4BIT_Val(GPIOD->CRL,copy_u8PinID*4,copy_u8Mode);
 800077a:	4b6c      	ldr	r3, [pc, #432]	; (800092c <GPIO_voidSetPinMode+0x334>)
 800077c:	681b      	ldr	r3, [r3, #0]
 800077e:	79ba      	ldrb	r2, [r7, #6]
 8000780:	0092      	lsls	r2, r2, #2
 8000782:	210f      	movs	r1, #15
 8000784:	fa01 f202 	lsl.w	r2, r1, r2
 8000788:	43d2      	mvns	r2, r2
 800078a:	4013      	ands	r3, r2
 800078c:	7979      	ldrb	r1, [r7, #5]
 800078e:	79ba      	ldrb	r2, [r7, #6]
 8000790:	0092      	lsls	r2, r2, #2
 8000792:	fa01 f202 	lsl.w	r2, r1, r2
 8000796:	4611      	mov	r1, r2
 8000798:	4a64      	ldr	r2, [pc, #400]	; (800092c <GPIO_voidSetPinMode+0x334>)
 800079a:	430b      	orrs	r3, r1
 800079c:	6013      	str	r3, [r2, #0]
				else if(copy_u8PinID <=15)
				{
					copy_u8PinID-=8;
					SET_4BIT_Val(GPIOD->CRH,copy_u8PinID*4,copy_u8Mode);
				}
				break;
 800079e:	e0ac      	b.n	80008fa <GPIO_voidSetPinMode+0x302>
				else if(copy_u8PinID <=15)
 80007a0:	79bb      	ldrb	r3, [r7, #6]
 80007a2:	2b0f      	cmp	r3, #15
 80007a4:	f200 80a9 	bhi.w	80008fa <GPIO_voidSetPinMode+0x302>
					copy_u8PinID-=8;
 80007a8:	79bb      	ldrb	r3, [r7, #6]
 80007aa:	3b08      	subs	r3, #8
 80007ac:	71bb      	strb	r3, [r7, #6]
					SET_4BIT_Val(GPIOD->CRH,copy_u8PinID*4,copy_u8Mode);
 80007ae:	4b5f      	ldr	r3, [pc, #380]	; (800092c <GPIO_voidSetPinMode+0x334>)
 80007b0:	685b      	ldr	r3, [r3, #4]
 80007b2:	79ba      	ldrb	r2, [r7, #6]
 80007b4:	0092      	lsls	r2, r2, #2
 80007b6:	210f      	movs	r1, #15
 80007b8:	fa01 f202 	lsl.w	r2, r1, r2
 80007bc:	43d2      	mvns	r2, r2
 80007be:	4013      	ands	r3, r2
 80007c0:	7979      	ldrb	r1, [r7, #5]
 80007c2:	79ba      	ldrb	r2, [r7, #6]
 80007c4:	0092      	lsls	r2, r2, #2
 80007c6:	fa01 f202 	lsl.w	r2, r1, r2
 80007ca:	4611      	mov	r1, r2
 80007cc:	4a57      	ldr	r2, [pc, #348]	; (800092c <GPIO_voidSetPinMode+0x334>)
 80007ce:	430b      	orrs	r3, r1
 80007d0:	6053      	str	r3, [r2, #4]
				break;
 80007d2:	e092      	b.n	80008fa <GPIO_voidSetPinMode+0x302>
			case GPIO_PORTE: 
				if(copy_u8PinID<=7)
 80007d4:	79bb      	ldrb	r3, [r7, #6]
 80007d6:	2b07      	cmp	r3, #7
 80007d8:	d812      	bhi.n	8000800 <GPIO_voidSetPinMode+0x208>
				{
					SET_4BIT_Val(GPIOE->CRL,copy_u8PinID*4,copy_u8Mode);
 80007da:	4b55      	ldr	r3, [pc, #340]	; (8000930 <GPIO_voidSetPinMode+0x338>)
 80007dc:	681b      	ldr	r3, [r3, #0]
 80007de:	79ba      	ldrb	r2, [r7, #6]
 80007e0:	0092      	lsls	r2, r2, #2
 80007e2:	210f      	movs	r1, #15
 80007e4:	fa01 f202 	lsl.w	r2, r1, r2
 80007e8:	43d2      	mvns	r2, r2
 80007ea:	4013      	ands	r3, r2
 80007ec:	7979      	ldrb	r1, [r7, #5]
 80007ee:	79ba      	ldrb	r2, [r7, #6]
 80007f0:	0092      	lsls	r2, r2, #2
 80007f2:	fa01 f202 	lsl.w	r2, r1, r2
 80007f6:	4611      	mov	r1, r2
 80007f8:	4a4d      	ldr	r2, [pc, #308]	; (8000930 <GPIO_voidSetPinMode+0x338>)
 80007fa:	430b      	orrs	r3, r1
 80007fc:	6013      	str	r3, [r2, #0]
				else if(copy_u8PinID <=15)
				{
					copy_u8PinID-=8;
					SET_4BIT_Val(GPIOE->CRH,copy_u8PinID*4,copy_u8Mode);
				}
				break;
 80007fe:	e07e      	b.n	80008fe <GPIO_voidSetPinMode+0x306>
				else if(copy_u8PinID <=15)
 8000800:	79bb      	ldrb	r3, [r7, #6]
 8000802:	2b0f      	cmp	r3, #15
 8000804:	d87b      	bhi.n	80008fe <GPIO_voidSetPinMode+0x306>
					copy_u8PinID-=8;
 8000806:	79bb      	ldrb	r3, [r7, #6]
 8000808:	3b08      	subs	r3, #8
 800080a:	71bb      	strb	r3, [r7, #6]
					SET_4BIT_Val(GPIOE->CRH,copy_u8PinID*4,copy_u8Mode);
 800080c:	4b48      	ldr	r3, [pc, #288]	; (8000930 <GPIO_voidSetPinMode+0x338>)
 800080e:	685b      	ldr	r3, [r3, #4]
 8000810:	79ba      	ldrb	r2, [r7, #6]
 8000812:	0092      	lsls	r2, r2, #2
 8000814:	210f      	movs	r1, #15
 8000816:	fa01 f202 	lsl.w	r2, r1, r2
 800081a:	43d2      	mvns	r2, r2
 800081c:	4013      	ands	r3, r2
 800081e:	7979      	ldrb	r1, [r7, #5]
 8000820:	79ba      	ldrb	r2, [r7, #6]
 8000822:	0092      	lsls	r2, r2, #2
 8000824:	fa01 f202 	lsl.w	r2, r1, r2
 8000828:	4611      	mov	r1, r2
 800082a:	4a41      	ldr	r2, [pc, #260]	; (8000930 <GPIO_voidSetPinMode+0x338>)
 800082c:	430b      	orrs	r3, r1
 800082e:	6053      	str	r3, [r2, #4]
				break;
 8000830:	e065      	b.n	80008fe <GPIO_voidSetPinMode+0x306>
		    case GPIO_PORTF: 
				if(copy_u8PinID<=7)
 8000832:	79bb      	ldrb	r3, [r7, #6]
 8000834:	2b07      	cmp	r3, #7
 8000836:	d812      	bhi.n	800085e <GPIO_voidSetPinMode+0x266>
				{
					SET_4BIT_Val(GPIOF->CRL,copy_u8PinID*4,copy_u8Mode);
 8000838:	4b3e      	ldr	r3, [pc, #248]	; (8000934 <GPIO_voidSetPinMode+0x33c>)
 800083a:	681b      	ldr	r3, [r3, #0]
 800083c:	79ba      	ldrb	r2, [r7, #6]
 800083e:	0092      	lsls	r2, r2, #2
 8000840:	210f      	movs	r1, #15
 8000842:	fa01 f202 	lsl.w	r2, r1, r2
 8000846:	43d2      	mvns	r2, r2
 8000848:	4013      	ands	r3, r2
 800084a:	7979      	ldrb	r1, [r7, #5]
 800084c:	79ba      	ldrb	r2, [r7, #6]
 800084e:	0092      	lsls	r2, r2, #2
 8000850:	fa01 f202 	lsl.w	r2, r1, r2
 8000854:	4611      	mov	r1, r2
 8000856:	4a37      	ldr	r2, [pc, #220]	; (8000934 <GPIO_voidSetPinMode+0x33c>)
 8000858:	430b      	orrs	r3, r1
 800085a:	6013      	str	r3, [r2, #0]
				else if(copy_u8PinID <=15)
				{
					copy_u8PinID-=8;
					SET_4BIT_Val(GPIOF->CRH,copy_u8PinID*4,copy_u8Mode);
				}
				break;
 800085c:	e051      	b.n	8000902 <GPIO_voidSetPinMode+0x30a>
				else if(copy_u8PinID <=15)
 800085e:	79bb      	ldrb	r3, [r7, #6]
 8000860:	2b0f      	cmp	r3, #15
 8000862:	d84e      	bhi.n	8000902 <GPIO_voidSetPinMode+0x30a>
					copy_u8PinID-=8;
 8000864:	79bb      	ldrb	r3, [r7, #6]
 8000866:	3b08      	subs	r3, #8
 8000868:	71bb      	strb	r3, [r7, #6]
					SET_4BIT_Val(GPIOF->CRH,copy_u8PinID*4,copy_u8Mode);
 800086a:	4b32      	ldr	r3, [pc, #200]	; (8000934 <GPIO_voidSetPinMode+0x33c>)
 800086c:	685b      	ldr	r3, [r3, #4]
 800086e:	79ba      	ldrb	r2, [r7, #6]
 8000870:	0092      	lsls	r2, r2, #2
 8000872:	210f      	movs	r1, #15
 8000874:	fa01 f202 	lsl.w	r2, r1, r2
 8000878:	43d2      	mvns	r2, r2
 800087a:	4013      	ands	r3, r2
 800087c:	7979      	ldrb	r1, [r7, #5]
 800087e:	79ba      	ldrb	r2, [r7, #6]
 8000880:	0092      	lsls	r2, r2, #2
 8000882:	fa01 f202 	lsl.w	r2, r1, r2
 8000886:	4611      	mov	r1, r2
 8000888:	4a2a      	ldr	r2, [pc, #168]	; (8000934 <GPIO_voidSetPinMode+0x33c>)
 800088a:	430b      	orrs	r3, r1
 800088c:	6053      	str	r3, [r2, #4]
				break;
 800088e:	e038      	b.n	8000902 <GPIO_voidSetPinMode+0x30a>
			case GPIO_PORTG: 
				if(copy_u8PinID<=7)
 8000890:	79bb      	ldrb	r3, [r7, #6]
 8000892:	2b07      	cmp	r3, #7
 8000894:	d812      	bhi.n	80008bc <GPIO_voidSetPinMode+0x2c4>
				{
					SET_4BIT_Val(GPIOG->CRL,copy_u8PinID*4,copy_u8Mode);
 8000896:	4b28      	ldr	r3, [pc, #160]	; (8000938 <GPIO_voidSetPinMode+0x340>)
 8000898:	681b      	ldr	r3, [r3, #0]
 800089a:	79ba      	ldrb	r2, [r7, #6]
 800089c:	0092      	lsls	r2, r2, #2
 800089e:	210f      	movs	r1, #15
 80008a0:	fa01 f202 	lsl.w	r2, r1, r2
 80008a4:	43d2      	mvns	r2, r2
 80008a6:	4013      	ands	r3, r2
 80008a8:	7979      	ldrb	r1, [r7, #5]
 80008aa:	79ba      	ldrb	r2, [r7, #6]
 80008ac:	0092      	lsls	r2, r2, #2
 80008ae:	fa01 f202 	lsl.w	r2, r1, r2
 80008b2:	4611      	mov	r1, r2
 80008b4:	4a20      	ldr	r2, [pc, #128]	; (8000938 <GPIO_voidSetPinMode+0x340>)
 80008b6:	430b      	orrs	r3, r1
 80008b8:	6013      	str	r3, [r2, #0]
				else if(copy_u8PinID <=15)
				{
					copy_u8PinID-=8;
					SET_4BIT_Val(GPIOG->CRH,copy_u8PinID*4,copy_u8Mode);
				}
				break;
 80008ba:	e024      	b.n	8000906 <GPIO_voidSetPinMode+0x30e>
				else if(copy_u8PinID <=15)
 80008bc:	79bb      	ldrb	r3, [r7, #6]
 80008be:	2b0f      	cmp	r3, #15
 80008c0:	d821      	bhi.n	8000906 <GPIO_voidSetPinMode+0x30e>
					copy_u8PinID-=8;
 80008c2:	79bb      	ldrb	r3, [r7, #6]
 80008c4:	3b08      	subs	r3, #8
 80008c6:	71bb      	strb	r3, [r7, #6]
					SET_4BIT_Val(GPIOG->CRH,copy_u8PinID*4,copy_u8Mode);
 80008c8:	4b1b      	ldr	r3, [pc, #108]	; (8000938 <GPIO_voidSetPinMode+0x340>)
 80008ca:	685b      	ldr	r3, [r3, #4]
 80008cc:	79ba      	ldrb	r2, [r7, #6]
 80008ce:	0092      	lsls	r2, r2, #2
 80008d0:	210f      	movs	r1, #15
 80008d2:	fa01 f202 	lsl.w	r2, r1, r2
 80008d6:	43d2      	mvns	r2, r2
 80008d8:	4013      	ands	r3, r2
 80008da:	7979      	ldrb	r1, [r7, #5]
 80008dc:	79ba      	ldrb	r2, [r7, #6]
 80008de:	0092      	lsls	r2, r2, #2
 80008e0:	fa01 f202 	lsl.w	r2, r1, r2
 80008e4:	4611      	mov	r1, r2
 80008e6:	4a14      	ldr	r2, [pc, #80]	; (8000938 <GPIO_voidSetPinMode+0x340>)
 80008e8:	430b      	orrs	r3, r1
 80008ea:	6053      	str	r3, [r2, #4]
				break;
 80008ec:	e00b      	b.n	8000906 <GPIO_voidSetPinMode+0x30e>
				break;
 80008ee:	bf00      	nop
 80008f0:	e00e      	b.n	8000910 <GPIO_voidSetPinMode+0x318>
				break;
 80008f2:	bf00      	nop
 80008f4:	e00c      	b.n	8000910 <GPIO_voidSetPinMode+0x318>
				break;
 80008f6:	bf00      	nop
 80008f8:	e00a      	b.n	8000910 <GPIO_voidSetPinMode+0x318>
				break;
 80008fa:	bf00      	nop
 80008fc:	e008      	b.n	8000910 <GPIO_voidSetPinMode+0x318>
				break;
 80008fe:	bf00      	nop
 8000900:	e006      	b.n	8000910 <GPIO_voidSetPinMode+0x318>
				break;
 8000902:	bf00      	nop
 8000904:	e004      	b.n	8000910 <GPIO_voidSetPinMode+0x318>
				break;
 8000906:	bf00      	nop
		}
	}
 8000908:	e002      	b.n	8000910 <GPIO_voidSetPinMode+0x318>
	else 
		lacal_u8ErrorState = STD_TYPE_NOK;
 800090a:	2300      	movs	r3, #0
 800090c:	73fb      	strb	r3, [r7, #15]
 800090e:	e000      	b.n	8000912 <GPIO_voidSetPinMode+0x31a>
	}
 8000910:	bf00      	nop
	return lacal_u8ErrorState;
 8000912:	7bfb      	ldrb	r3, [r7, #15]
}
 8000914:	4618      	mov	r0, r3
 8000916:	3714      	adds	r7, #20
 8000918:	46bd      	mov	sp, r7
 800091a:	bc80      	pop	{r7}
 800091c:	4770      	bx	lr
 800091e:	bf00      	nop
 8000920:	40010800 	.word	0x40010800
 8000924:	40010c00 	.word	0x40010c00
 8000928:	40011000 	.word	0x40011000
 800092c:	40011400 	.word	0x40011400
 8000930:	40011800 	.word	0x40011800
 8000934:	40011c00 	.word	0x40011c00
 8000938:	40012000 	.word	0x40012000

0800093c <GPIO_voidSetPinValue>:


u8 GPIO_voidSetPinValue(u8 copy_u8portID,u8 copy_u8PinID,u8 copy_u8PinValue)
{
 800093c:	b480      	push	{r7}
 800093e:	b085      	sub	sp, #20
 8000940:	af00      	add	r7, sp, #0
 8000942:	4603      	mov	r3, r0
 8000944:	71fb      	strb	r3, [r7, #7]
 8000946:	460b      	mov	r3, r1
 8000948:	71bb      	strb	r3, [r7, #6]
 800094a:	4613      	mov	r3, r2
 800094c:	717b      	strb	r3, [r7, #5]
	u8 lacal_u8ErrorState = STD_TYPE_OK;
 800094e:	2301      	movs	r3, #1
 8000950:	73fb      	strb	r3, [r7, #15]
	if(copy_u8portID <= GPIO_PORTG && copy_u8PinID <= GPIO_PIN15 && (copy_u8PinValue == 1 || copy_u8PinValue ==0 ))
 8000952:	79fb      	ldrb	r3, [r7, #7]
 8000954:	2b07      	cmp	r3, #7
 8000956:	f200 80a7 	bhi.w	8000aa8 <GPIO_voidSetPinValue+0x16c>
 800095a:	79bb      	ldrb	r3, [r7, #6]
 800095c:	2b0f      	cmp	r3, #15
 800095e:	f200 80a3 	bhi.w	8000aa8 <GPIO_voidSetPinValue+0x16c>
 8000962:	797b      	ldrb	r3, [r7, #5]
 8000964:	2b01      	cmp	r3, #1
 8000966:	d003      	beq.n	8000970 <GPIO_voidSetPinValue+0x34>
 8000968:	797b      	ldrb	r3, [r7, #5]
 800096a:	2b00      	cmp	r3, #0
 800096c:	f040 809c 	bne.w	8000aa8 <GPIO_voidSetPinValue+0x16c>
	{
		switch(copy_u8portID)
 8000970:	79fb      	ldrb	r3, [r7, #7]
 8000972:	3b01      	subs	r3, #1
 8000974:	2b06      	cmp	r3, #6
 8000976:	f200 809a 	bhi.w	8000aae <GPIO_voidSetPinValue+0x172>
 800097a:	a201      	add	r2, pc, #4	; (adr r2, 8000980 <GPIO_voidSetPinValue+0x44>)
 800097c:	f852 f023 	ldr.w	pc, [r2, r3, lsl #2]
 8000980:	0800099d 	.word	0x0800099d
 8000984:	080009c3 	.word	0x080009c3
 8000988:	080009e9 	.word	0x080009e9
 800098c:	08000a0f 	.word	0x08000a0f
 8000990:	08000a35 	.word	0x08000a35
 8000994:	08000a5b 	.word	0x08000a5b
 8000998:	08000a81 	.word	0x08000a81
		{
			case GPIO_PORTA:
				switch(copy_u8PinValue){
 800099c:	797b      	ldrb	r3, [r7, #5]
 800099e:	2b00      	cmp	r3, #0
 80009a0:	d002      	beq.n	80009a8 <GPIO_voidSetPinValue+0x6c>
 80009a2:	2b01      	cmp	r3, #1
 80009a4:	d006      	beq.n	80009b4 <GPIO_voidSetPinValue+0x78>
				case 0:WRITE_BIT(GPIOA->BRR,copy_u8PinID);break;
				case 1:WRITE_BIT(GPIOA->BSRR,copy_u8PinID);break;}
				break;
 80009a6:	e07e      	b.n	8000aa6 <GPIO_voidSetPinValue+0x16a>
				case 0:WRITE_BIT(GPIOA->BRR,copy_u8PinID);break;
 80009a8:	79bb      	ldrb	r3, [r7, #6]
 80009aa:	2201      	movs	r2, #1
 80009ac:	409a      	lsls	r2, r3
 80009ae:	4b43      	ldr	r3, [pc, #268]	; (8000abc <GPIO_voidSetPinValue+0x180>)
 80009b0:	615a      	str	r2, [r3, #20]
 80009b2:	e005      	b.n	80009c0 <GPIO_voidSetPinValue+0x84>
				case 1:WRITE_BIT(GPIOA->BSRR,copy_u8PinID);break;}
 80009b4:	79bb      	ldrb	r3, [r7, #6]
 80009b6:	2201      	movs	r2, #1
 80009b8:	409a      	lsls	r2, r3
 80009ba:	4b40      	ldr	r3, [pc, #256]	; (8000abc <GPIO_voidSetPinValue+0x180>)
 80009bc:	611a      	str	r2, [r3, #16]
 80009be:	bf00      	nop
				break;
 80009c0:	e071      	b.n	8000aa6 <GPIO_voidSetPinValue+0x16a>
			case GPIO_PORTB:
				switch(copy_u8PinValue){
 80009c2:	797b      	ldrb	r3, [r7, #5]
 80009c4:	2b00      	cmp	r3, #0
 80009c6:	d002      	beq.n	80009ce <GPIO_voidSetPinValue+0x92>
 80009c8:	2b01      	cmp	r3, #1
 80009ca:	d006      	beq.n	80009da <GPIO_voidSetPinValue+0x9e>
				case 0:WRITE_BIT(GPIOB->BRR,copy_u8PinID);break;
				case 1:WRITE_BIT(GPIOB->BSRR,copy_u8PinID);break;}
				break;
 80009cc:	e06b      	b.n	8000aa6 <GPIO_voidSetPinValue+0x16a>
				case 0:WRITE_BIT(GPIOB->BRR,copy_u8PinID);break;
 80009ce:	79bb      	ldrb	r3, [r7, #6]
 80009d0:	2201      	movs	r2, #1
 80009d2:	409a      	lsls	r2, r3
 80009d4:	4b3a      	ldr	r3, [pc, #232]	; (8000ac0 <GPIO_voidSetPinValue+0x184>)
 80009d6:	615a      	str	r2, [r3, #20]
 80009d8:	e005      	b.n	80009e6 <GPIO_voidSetPinValue+0xaa>
				case 1:WRITE_BIT(GPIOB->BSRR,copy_u8PinID);break;}
 80009da:	79bb      	ldrb	r3, [r7, #6]
 80009dc:	2201      	movs	r2, #1
 80009de:	409a      	lsls	r2, r3
 80009e0:	4b37      	ldr	r3, [pc, #220]	; (8000ac0 <GPIO_voidSetPinValue+0x184>)
 80009e2:	611a      	str	r2, [r3, #16]
 80009e4:	bf00      	nop
				break;
 80009e6:	e05e      	b.n	8000aa6 <GPIO_voidSetPinValue+0x16a>
			case GPIO_PORTC:
				switch(copy_u8PinValue){
 80009e8:	797b      	ldrb	r3, [r7, #5]
 80009ea:	2b00      	cmp	r3, #0
 80009ec:	d002      	beq.n	80009f4 <GPIO_voidSetPinValue+0xb8>
 80009ee:	2b01      	cmp	r3, #1
 80009f0:	d006      	beq.n	8000a00 <GPIO_voidSetPinValue+0xc4>
				case 0:WRITE_BIT(GPIOC->BRR,copy_u8PinID);break;
				case 1:WRITE_BIT(GPIOC->BSRR,copy_u8PinID);break;}
				break;
 80009f2:	e058      	b.n	8000aa6 <GPIO_voidSetPinValue+0x16a>
				case 0:WRITE_BIT(GPIOC->BRR,copy_u8PinID);break;
 80009f4:	79bb      	ldrb	r3, [r7, #6]
 80009f6:	2201      	movs	r2, #1
 80009f8:	409a      	lsls	r2, r3
 80009fa:	4b32      	ldr	r3, [pc, #200]	; (8000ac4 <GPIO_voidSetPinValue+0x188>)
 80009fc:	615a      	str	r2, [r3, #20]
 80009fe:	e005      	b.n	8000a0c <GPIO_voidSetPinValue+0xd0>
				case 1:WRITE_BIT(GPIOC->BSRR,copy_u8PinID);break;}
 8000a00:	79bb      	ldrb	r3, [r7, #6]
 8000a02:	2201      	movs	r2, #1
 8000a04:	409a      	lsls	r2, r3
 8000a06:	4b2f      	ldr	r3, [pc, #188]	; (8000ac4 <GPIO_voidSetPinValue+0x188>)
 8000a08:	611a      	str	r2, [r3, #16]
 8000a0a:	bf00      	nop
				break;
 8000a0c:	e04b      	b.n	8000aa6 <GPIO_voidSetPinValue+0x16a>
			case GPIO_PORTD:
				switch(copy_u8PinValue){
 8000a0e:	797b      	ldrb	r3, [r7, #5]
 8000a10:	2b00      	cmp	r3, #0
 8000a12:	d002      	beq.n	8000a1a <GPIO_voidSetPinValue+0xde>
 8000a14:	2b01      	cmp	r3, #1
 8000a16:	d006      	beq.n	8000a26 <GPIO_voidSetPinValue+0xea>
				case 0:WRITE_BIT(GPIOD->BRR,copy_u8PinID);break;
				case 1:WRITE_BIT(GPIOD->BSRR,copy_u8PinID);break;}
				break;
 8000a18:	e045      	b.n	8000aa6 <GPIO_voidSetPinValue+0x16a>
				case 0:WRITE_BIT(GPIOD->BRR,copy_u8PinID);break;
 8000a1a:	79bb      	ldrb	r3, [r7, #6]
 8000a1c:	2201      	movs	r2, #1
 8000a1e:	409a      	lsls	r2, r3
 8000a20:	4b29      	ldr	r3, [pc, #164]	; (8000ac8 <GPIO_voidSetPinValue+0x18c>)
 8000a22:	615a      	str	r2, [r3, #20]
 8000a24:	e005      	b.n	8000a32 <GPIO_voidSetPinValue+0xf6>
				case 1:WRITE_BIT(GPIOD->BSRR,copy_u8PinID);break;}
 8000a26:	79bb      	ldrb	r3, [r7, #6]
 8000a28:	2201      	movs	r2, #1
 8000a2a:	409a      	lsls	r2, r3
 8000a2c:	4b26      	ldr	r3, [pc, #152]	; (8000ac8 <GPIO_voidSetPinValue+0x18c>)
 8000a2e:	611a      	str	r2, [r3, #16]
 8000a30:	bf00      	nop
				break;
 8000a32:	e038      	b.n	8000aa6 <GPIO_voidSetPinValue+0x16a>
			case GPIO_PORTE:
				switch(copy_u8PinValue){
 8000a34:	797b      	ldrb	r3, [r7, #5]
 8000a36:	2b00      	cmp	r3, #0
 8000a38:	d002      	beq.n	8000a40 <GPIO_voidSetPinValue+0x104>
 8000a3a:	2b01      	cmp	r3, #1
 8000a3c:	d006      	beq.n	8000a4c <GPIO_voidSetPinValue+0x110>
				case 0:WRITE_BIT(GPIOE->BRR,copy_u8PinID);break;
				case 1:WRITE_BIT(GPIOE->BSRR,copy_u8PinID);break;}
				break;
 8000a3e:	e032      	b.n	8000aa6 <GPIO_voidSetPinValue+0x16a>
				case 0:WRITE_BIT(GPIOE->BRR,copy_u8PinID);break;
 8000a40:	79bb      	ldrb	r3, [r7, #6]
 8000a42:	2201      	movs	r2, #1
 8000a44:	409a      	lsls	r2, r3
 8000a46:	4b21      	ldr	r3, [pc, #132]	; (8000acc <GPIO_voidSetPinValue+0x190>)
 8000a48:	615a      	str	r2, [r3, #20]
 8000a4a:	e005      	b.n	8000a58 <GPIO_voidSetPinValue+0x11c>
				case 1:WRITE_BIT(GPIOE->BSRR,copy_u8PinID);break;}
 8000a4c:	79bb      	ldrb	r3, [r7, #6]
 8000a4e:	2201      	movs	r2, #1
 8000a50:	409a      	lsls	r2, r3
 8000a52:	4b1e      	ldr	r3, [pc, #120]	; (8000acc <GPIO_voidSetPinValue+0x190>)
 8000a54:	611a      	str	r2, [r3, #16]
 8000a56:	bf00      	nop
				break;
 8000a58:	e025      	b.n	8000aa6 <GPIO_voidSetPinValue+0x16a>
			case GPIO_PORTF:
				switch(copy_u8PinValue){
 8000a5a:	797b      	ldrb	r3, [r7, #5]
 8000a5c:	2b00      	cmp	r3, #0
 8000a5e:	d002      	beq.n	8000a66 <GPIO_voidSetPinValue+0x12a>
 8000a60:	2b01      	cmp	r3, #1
 8000a62:	d006      	beq.n	8000a72 <GPIO_voidSetPinValue+0x136>
				case 0:WRITE_BIT(GPIOF->BRR,copy_u8PinID);break;
				case 1:WRITE_BIT(GPIOF->BSRR,copy_u8PinID);break;}
				break;
 8000a64:	e01f      	b.n	8000aa6 <GPIO_voidSetPinValue+0x16a>
				case 0:WRITE_BIT(GPIOF->BRR,copy_u8PinID);break;
 8000a66:	79bb      	ldrb	r3, [r7, #6]
 8000a68:	2201      	movs	r2, #1
 8000a6a:	409a      	lsls	r2, r3
 8000a6c:	4b18      	ldr	r3, [pc, #96]	; (8000ad0 <GPIO_voidSetPinValue+0x194>)
 8000a6e:	615a      	str	r2, [r3, #20]
 8000a70:	e005      	b.n	8000a7e <GPIO_voidSetPinValue+0x142>
				case 1:WRITE_BIT(GPIOF->BSRR,copy_u8PinID);break;}
 8000a72:	79bb      	ldrb	r3, [r7, #6]
 8000a74:	2201      	movs	r2, #1
 8000a76:	409a      	lsls	r2, r3
 8000a78:	4b15      	ldr	r3, [pc, #84]	; (8000ad0 <GPIO_voidSetPinValue+0x194>)
 8000a7a:	611a      	str	r2, [r3, #16]
 8000a7c:	bf00      	nop
				break;
 8000a7e:	e012      	b.n	8000aa6 <GPIO_voidSetPinValue+0x16a>
			case GPIO_PORTG:
				switch(copy_u8PinValue){
 8000a80:	797b      	ldrb	r3, [r7, #5]
 8000a82:	2b00      	cmp	r3, #0
 8000a84:	d002      	beq.n	8000a8c <GPIO_voidSetPinValue+0x150>
 8000a86:	2b01      	cmp	r3, #1
 8000a88:	d006      	beq.n	8000a98 <GPIO_voidSetPinValue+0x15c>
				case 0:WRITE_BIT(GPIOG->BRR,copy_u8PinID);break;
				case 1:WRITE_BIT(GPIOG->BSRR,copy_u8PinID);break;}
				break;
 8000a8a:	e00b      	b.n	8000aa4 <GPIO_voidSetPinValue+0x168>
				case 0:WRITE_BIT(GPIOG->BRR,copy_u8PinID);break;
 8000a8c:	79bb      	ldrb	r3, [r7, #6]
 8000a8e:	2201      	movs	r2, #1
 8000a90:	409a      	lsls	r2, r3
 8000a92:	4b10      	ldr	r3, [pc, #64]	; (8000ad4 <GPIO_voidSetPinValue+0x198>)
 8000a94:	615a      	str	r2, [r3, #20]
 8000a96:	e005      	b.n	8000aa4 <GPIO_voidSetPinValue+0x168>
				case 1:WRITE_BIT(GPIOG->BSRR,copy_u8PinID);break;}
 8000a98:	79bb      	ldrb	r3, [r7, #6]
 8000a9a:	2201      	movs	r2, #1
 8000a9c:	409a      	lsls	r2, r3
 8000a9e:	4b0d      	ldr	r3, [pc, #52]	; (8000ad4 <GPIO_voidSetPinValue+0x198>)
 8000aa0:	611a      	str	r2, [r3, #16]
 8000aa2:	bf00      	nop
				break;
 8000aa4:	bf00      	nop
		}
	}
 8000aa6:	e002      	b.n	8000aae <GPIO_voidSetPinValue+0x172>
    else 
		lacal_u8ErrorState = STD_TYPE_NOK;
 8000aa8:	2300      	movs	r3, #0
 8000aaa:	73fb      	strb	r3, [r7, #15]
 8000aac:	e000      	b.n	8000ab0 <GPIO_voidSetPinValue+0x174>
	}
 8000aae:	bf00      	nop
	return lacal_u8ErrorState;
 8000ab0:	7bfb      	ldrb	r3, [r7, #15]
}
 8000ab2:	4618      	mov	r0, r3
 8000ab4:	3714      	adds	r7, #20
 8000ab6:	46bd      	mov	sp, r7
 8000ab8:	bc80      	pop	{r7}
 8000aba:	4770      	bx	lr
 8000abc:	40010800 	.word	0x40010800
 8000ac0:	40010c00 	.word	0x40010c00
 8000ac4:	40011000 	.word	0x40011000
 8000ac8:	40011400 	.word	0x40011400
 8000acc:	40011800 	.word	0x40011800
 8000ad0:	40011c00 	.word	0x40011c00
 8000ad4:	40012000 	.word	0x40012000

08000ad8 <MOTOR_init>:
#include "PWM_DCmotor_init.h"
#include "GPIO_interface.h"


void MOTOR_init (u8 A_u8MotorNum)
{
 8000ad8:	b580      	push	{r7, lr}
 8000ada:	b082      	sub	sp, #8
 8000adc:	af00      	add	r7, sp, #0
 8000ade:	4603      	mov	r3, r0
 8000ae0:	71fb      	strb	r3, [r7, #7]
	if (A_u8MotorNum>0)
 8000ae2:	79fb      	ldrb	r3, [r7, #7]
 8000ae4:	2b00      	cmp	r3, #0
 8000ae6:	d021      	beq.n	8000b2c <MOTOR_init+0x54>
	{
		switch(A_u8MotorNum)
 8000ae8:	79fb      	ldrb	r3, [r7, #7]
 8000aea:	2b01      	cmp	r3, #1
 8000aec:	d002      	beq.n	8000af4 <MOTOR_init+0x1c>
 8000aee:	2b02      	cmp	r3, #2
 8000af0:	d00e      	beq.n	8000b10 <MOTOR_init+0x38>
			GPIO_voidSetPinMode(MOTOR2_PORT,MOTOR2_PINL,GPIO_OUTPUT_10M_PP);
//			MTimer_voidInit(MOTOR2_SecondTimerType);
			break;
		}
	}
}
 8000af2:	e01b      	b.n	8000b2c <MOTOR_init+0x54>
			MTimer_voidInit(MOTOR1_FirstTimerType);
 8000af4:	2001      	movs	r0, #1
 8000af6:	f000 f9cb 	bl	8000e90 <MTimer_voidInit>
			GPIO_voidSetPinMode(MOTOR1_PORT,MOTOR1_PINR,GPIO_OUTPUT_10M_PP);
 8000afa:	2201      	movs	r2, #1
 8000afc:	2103      	movs	r1, #3
 8000afe:	2002      	movs	r0, #2
 8000b00:	f7ff fd7a 	bl	80005f8 <GPIO_voidSetPinMode>
		    GPIO_voidSetPinMode(MOTOR1_PORT,MOTOR1_PINL,GPIO_OUTPUT_10M_PP);
 8000b04:	2201      	movs	r2, #1
 8000b06:	2104      	movs	r1, #4
 8000b08:	2002      	movs	r0, #2
 8000b0a:	f7ff fd75 	bl	80005f8 <GPIO_voidSetPinMode>
			break;
 8000b0e:	e00d      	b.n	8000b2c <MOTOR_init+0x54>
			MTimer_voidInit(MOTOR2_FirstTimerType);
 8000b10:	2001      	movs	r0, #1
 8000b12:	f000 f9bd 	bl	8000e90 <MTimer_voidInit>
			GPIO_voidSetPinMode(MOTOR2_PORT,MOTOR2_PINR,GPIO_OUTPUT_10M_PP);
 8000b16:	2201      	movs	r2, #1
 8000b18:	2105      	movs	r1, #5
 8000b1a:	2002      	movs	r0, #2
 8000b1c:	f7ff fd6c 	bl	80005f8 <GPIO_voidSetPinMode>
			GPIO_voidSetPinMode(MOTOR2_PORT,MOTOR2_PINL,GPIO_OUTPUT_10M_PP);
 8000b20:	2201      	movs	r2, #1
 8000b22:	2106      	movs	r1, #6
 8000b24:	2002      	movs	r0, #2
 8000b26:	f7ff fd67 	bl	80005f8 <GPIO_voidSetPinMode>
			break;
 8000b2a:	bf00      	nop
}
 8000b2c:	bf00      	nop
 8000b2e:	3708      	adds	r7, #8
 8000b30:	46bd      	mov	sp, r7
 8000b32:	bd80      	pop	{r7, pc}

08000b34 <MOTOR_CounterClockWise>:

void MOTOR_CounterClockWise  (u8 A_u8MotorNum , u16 A_u16CaptureValue )
{
 8000b34:	b580      	push	{r7, lr}
 8000b36:	b082      	sub	sp, #8
 8000b38:	af00      	add	r7, sp, #0
 8000b3a:	4603      	mov	r3, r0
 8000b3c:	460a      	mov	r2, r1
 8000b3e:	71fb      	strb	r3, [r7, #7]
 8000b40:	4613      	mov	r3, r2
 8000b42:	80bb      	strh	r3, [r7, #4]
	if (A_u8MotorNum >0 &&A_u8MotorNum < 3)
 8000b44:	79fb      	ldrb	r3, [r7, #7]
 8000b46:	2b00      	cmp	r3, #0
 8000b48:	d02a      	beq.n	8000ba0 <MOTOR_CounterClockWise+0x6c>
 8000b4a:	79fb      	ldrb	r3, [r7, #7]
 8000b4c:	2b02      	cmp	r3, #2
 8000b4e:	d827      	bhi.n	8000ba0 <MOTOR_CounterClockWise+0x6c>
	{
		switch(A_u8MotorNum)
 8000b50:	79fb      	ldrb	r3, [r7, #7]
 8000b52:	2b01      	cmp	r3, #1
 8000b54:	d002      	beq.n	8000b5c <MOTOR_CounterClockWise+0x28>
 8000b56:	2b02      	cmp	r3, #2
 8000b58:	d011      	beq.n	8000b7e <MOTOR_CounterClockWise+0x4a>
			GPIO_voidSetPinValue(MOTOR1_PORT, MOTOR2_PINL, GPIO_LOW);
//			MTimer_voidPWM(MOTOR2_FirstTimerType,MOTOR2_SecondChannelNumber,0);
			break;
		}
	}
}
 8000b5a:	e021      	b.n	8000ba0 <MOTOR_CounterClockWise+0x6c>
			MTimer_voidPWM(MOTOR1_FirstTimerType,MOTOR1_FirstChannelNumber,A_u16CaptureValue);
 8000b5c:	88bb      	ldrh	r3, [r7, #4]
 8000b5e:	461a      	mov	r2, r3
 8000b60:	2101      	movs	r1, #1
 8000b62:	2001      	movs	r0, #1
 8000b64:	f000 faae 	bl	80010c4 <MTimer_voidPWM>
			GPIO_voidSetPinValue(MOTOR1_PORT, MOTOR1_PINR, GPIO_HIGH);
 8000b68:	2201      	movs	r2, #1
 8000b6a:	2103      	movs	r1, #3
 8000b6c:	2002      	movs	r0, #2
 8000b6e:	f7ff fee5 	bl	800093c <GPIO_voidSetPinValue>
			GPIO_voidSetPinValue(MOTOR1_PORT, MOTOR1_PINL, GPIO_LOW);
 8000b72:	2200      	movs	r2, #0
 8000b74:	2104      	movs	r1, #4
 8000b76:	2002      	movs	r0, #2
 8000b78:	f7ff fee0 	bl	800093c <GPIO_voidSetPinValue>
			break;
 8000b7c:	e010      	b.n	8000ba0 <MOTOR_CounterClockWise+0x6c>
			MTimer_voidPWM(MOTOR2_FirstTimerType,MOTOR2_FirstChannelNumber,A_u16CaptureValue);
 8000b7e:	88bb      	ldrh	r3, [r7, #4]
 8000b80:	461a      	mov	r2, r3
 8000b82:	2102      	movs	r1, #2
 8000b84:	2001      	movs	r0, #1
 8000b86:	f000 fa9d 	bl	80010c4 <MTimer_voidPWM>
			GPIO_voidSetPinValue(MOTOR1_PORT, MOTOR2_PINR, GPIO_HIGH);
 8000b8a:	2201      	movs	r2, #1
 8000b8c:	2105      	movs	r1, #5
 8000b8e:	2002      	movs	r0, #2
 8000b90:	f7ff fed4 	bl	800093c <GPIO_voidSetPinValue>
			GPIO_voidSetPinValue(MOTOR1_PORT, MOTOR2_PINL, GPIO_LOW);
 8000b94:	2200      	movs	r2, #0
 8000b96:	2106      	movs	r1, #6
 8000b98:	2002      	movs	r0, #2
 8000b9a:	f7ff fecf 	bl	800093c <GPIO_voidSetPinValue>
			break;
 8000b9e:	bf00      	nop
}
 8000ba0:	bf00      	nop
 8000ba2:	3708      	adds	r7, #8
 8000ba4:	46bd      	mov	sp, r7
 8000ba6:	bd80      	pop	{r7, pc}

08000ba8 <MOTOR_ClockWise>:

void MOTOR_ClockWise  (u8 A_u8MotorNum , u16 A_u16CaptureValue)
{
 8000ba8:	b580      	push	{r7, lr}
 8000baa:	b082      	sub	sp, #8
 8000bac:	af00      	add	r7, sp, #0
 8000bae:	4603      	mov	r3, r0
 8000bb0:	460a      	mov	r2, r1
 8000bb2:	71fb      	strb	r3, [r7, #7]
 8000bb4:	4613      	mov	r3, r2
 8000bb6:	80bb      	strh	r3, [r7, #4]
	if (A_u8MotorNum >0 &&A_u8MotorNum < 3)
 8000bb8:	79fb      	ldrb	r3, [r7, #7]
 8000bba:	2b00      	cmp	r3, #0
 8000bbc:	d028      	beq.n	8000c10 <MOTOR_ClockWise+0x68>
 8000bbe:	79fb      	ldrb	r3, [r7, #7]
 8000bc0:	2b02      	cmp	r3, #2
 8000bc2:	d825      	bhi.n	8000c10 <MOTOR_ClockWise+0x68>
	{
		switch(A_u8MotorNum)
 8000bc4:	79fb      	ldrb	r3, [r7, #7]
 8000bc6:	2b01      	cmp	r3, #1
 8000bc8:	d002      	beq.n	8000bd0 <MOTOR_ClockWise+0x28>
 8000bca:	2b02      	cmp	r3, #2
 8000bcc:	d010      	beq.n	8000bf0 <MOTOR_ClockWise+0x48>
			GPIO_voidSetPinValue(MOTOR1_PORT, MOTOR2_PINL, GPIO_HIGH);
//			MTimer_voidPWM(MOTOR1_FirstTimerType,MOTOR2_SecondChannelNumber,A_u16CaptureValue);
			break;
		}
	}
}
 8000bce:	e01f      	b.n	8000c10 <MOTOR_ClockWise+0x68>
			MTimer_voidPWM(MOTOR1_FirstTimerType,MOTOR1_FirstChannelNumber,0);
 8000bd0:	2200      	movs	r2, #0
 8000bd2:	2101      	movs	r1, #1
 8000bd4:	2001      	movs	r0, #1
 8000bd6:	f000 fa75 	bl	80010c4 <MTimer_voidPWM>
			GPIO_voidSetPinValue(MOTOR1_PORT, MOTOR1_PINR, GPIO_LOW);
 8000bda:	2200      	movs	r2, #0
 8000bdc:	2103      	movs	r1, #3
 8000bde:	2002      	movs	r0, #2
 8000be0:	f7ff feac 	bl	800093c <GPIO_voidSetPinValue>
			GPIO_voidSetPinValue(MOTOR1_PORT, MOTOR1_PINL, GPIO_HIGH);
 8000be4:	2201      	movs	r2, #1
 8000be6:	2104      	movs	r1, #4
 8000be8:	2002      	movs	r0, #2
 8000bea:	f7ff fea7 	bl	800093c <GPIO_voidSetPinValue>
			break;
 8000bee:	e00f      	b.n	8000c10 <MOTOR_ClockWise+0x68>
			MTimer_voidPWM(MOTOR1_FirstTimerType,MOTOR2_FirstChannelNumber,0);
 8000bf0:	2200      	movs	r2, #0
 8000bf2:	2102      	movs	r1, #2
 8000bf4:	2001      	movs	r0, #1
 8000bf6:	f000 fa65 	bl	80010c4 <MTimer_voidPWM>
			GPIO_voidSetPinValue(MOTOR1_PORT, MOTOR2_PINR, GPIO_LOW);
 8000bfa:	2200      	movs	r2, #0
 8000bfc:	2105      	movs	r1, #5
 8000bfe:	2002      	movs	r0, #2
 8000c00:	f7ff fe9c 	bl	800093c <GPIO_voidSetPinValue>
			GPIO_voidSetPinValue(MOTOR1_PORT, MOTOR2_PINL, GPIO_HIGH);
 8000c04:	2201      	movs	r2, #1
 8000c06:	2106      	movs	r1, #6
 8000c08:	2002      	movs	r0, #2
 8000c0a:	f7ff fe97 	bl	800093c <GPIO_voidSetPinValue>
			break;
 8000c0e:	bf00      	nop
}
 8000c10:	bf00      	nop
 8000c12:	3708      	adds	r7, #8
 8000c14:	46bd      	mov	sp, r7
 8000c16:	bd80      	pop	{r7, pc}

08000c18 <MOTOR_Stop>:

void MOTOR_Stop  (u8 A_u8MotorNum)
{
 8000c18:	b580      	push	{r7, lr}
 8000c1a:	b082      	sub	sp, #8
 8000c1c:	af00      	add	r7, sp, #0
 8000c1e:	4603      	mov	r3, r0
 8000c20:	71fb      	strb	r3, [r7, #7]
	if (A_u8MotorNum >0 &&A_u8MotorNum < 3)
 8000c22:	79fb      	ldrb	r3, [r7, #7]
 8000c24:	2b00      	cmp	r3, #0
 8000c26:	d014      	beq.n	8000c52 <MOTOR_Stop+0x3a>
 8000c28:	79fb      	ldrb	r3, [r7, #7]
 8000c2a:	2b02      	cmp	r3, #2
 8000c2c:	d811      	bhi.n	8000c52 <MOTOR_Stop+0x3a>
	{
		switch(A_u8MotorNum)
 8000c2e:	79fb      	ldrb	r3, [r7, #7]
 8000c30:	2b01      	cmp	r3, #1
 8000c32:	d002      	beq.n	8000c3a <MOTOR_Stop+0x22>
 8000c34:	2b02      	cmp	r3, #2
 8000c36:	d006      	beq.n	8000c46 <MOTOR_Stop+0x2e>
			MTimer_voidPWM(MOTOR2_FirstTimerType,MOTOR2_FirstChannelNumber,0);
//			MTimer_voidPWM(MOTOR2_FirstTimerType,MOTOR2_SecondChannelNumber,0);
			break;
		}
	}
}
 8000c38:	e00b      	b.n	8000c52 <MOTOR_Stop+0x3a>
			MTimer_voidPWM(MOTOR1_FirstTimerType,MOTOR1_FirstChannelNumber,0);
 8000c3a:	2200      	movs	r2, #0
 8000c3c:	2101      	movs	r1, #1
 8000c3e:	2001      	movs	r0, #1
 8000c40:	f000 fa40 	bl	80010c4 <MTimer_voidPWM>
			break;
 8000c44:	e005      	b.n	8000c52 <MOTOR_Stop+0x3a>
			MTimer_voidPWM(MOTOR2_FirstTimerType,MOTOR2_FirstChannelNumber,0);
 8000c46:	2200      	movs	r2, #0
 8000c48:	2102      	movs	r1, #2
 8000c4a:	2001      	movs	r0, #1
 8000c4c:	f000 fa3a 	bl	80010c4 <MTimer_voidPWM>
			break;
 8000c50:	bf00      	nop
}
 8000c52:	bf00      	nop
 8000c54:	3708      	adds	r7, #8
 8000c56:	46bd      	mov	sp, r7
 8000c58:	bd80      	pop	{r7, pc}
	...

08000c5c <RCC_voidInitSysClock>:
#include "RCC_interface.h"
#include "RCC_config.h"


void RCC_voidInitSysClock(void)
{
 8000c5c:	b480      	push	{r7}
 8000c5e:	af00      	add	r7, sp, #0
	#if RCC_CLOCK_TYPE == RCC_HSE_CRYSTAL
		SET_BIT(RCC->RCC_CR,16);
 8000c60:	4b16      	ldr	r3, [pc, #88]	; (8000cbc <RCC_voidInitSysClock+0x60>)
 8000c62:	681b      	ldr	r3, [r3, #0]
 8000c64:	4a15      	ldr	r2, [pc, #84]	; (8000cbc <RCC_voidInitSysClock+0x60>)
 8000c66:	f443 3380 	orr.w	r3, r3, #65536	; 0x10000
 8000c6a:	6013      	str	r3, [r2, #0]
		SET_BIT(RCC->RCC_CR,18);
 8000c6c:	4b13      	ldr	r3, [pc, #76]	; (8000cbc <RCC_voidInitSysClock+0x60>)
 8000c6e:	681b      	ldr	r3, [r3, #0]
 8000c70:	4a12      	ldr	r2, [pc, #72]	; (8000cbc <RCC_voidInitSysClock+0x60>)
 8000c72:	f443 2380 	orr.w	r3, r3, #262144	; 0x40000
 8000c76:	6013      	str	r3, [r2, #0]
		SET_BIT(RCC->RCC_CFGR,0);
 8000c78:	4b10      	ldr	r3, [pc, #64]	; (8000cbc <RCC_voidInitSysClock+0x60>)
 8000c7a:	685b      	ldr	r3, [r3, #4]
 8000c7c:	4a0f      	ldr	r2, [pc, #60]	; (8000cbc <RCC_voidInitSysClock+0x60>)
 8000c7e:	f043 0301 	orr.w	r3, r3, #1
 8000c82:	6053      	str	r3, [r2, #4]
		CLR_BIT(RCC->RCC_CFGR,1);
 8000c84:	4b0d      	ldr	r3, [pc, #52]	; (8000cbc <RCC_voidInitSysClock+0x60>)
 8000c86:	685b      	ldr	r3, [r3, #4]
 8000c88:	4a0c      	ldr	r2, [pc, #48]	; (8000cbc <RCC_voidInitSysClock+0x60>)
 8000c8a:	f023 0302 	bic.w	r3, r3, #2
 8000c8e:	6053      	str	r3, [r2, #4]
		SET_BIT(RCC->RCC_CFGR,1);
	#else 
		#error("wrong choise")
	#endif
	#if RCC_AHP_PRESCALER   ==RCC_AHP_DIV_1
		CLR_BIT(RCC->RCC_CFGR,7);
 8000c90:	4b0a      	ldr	r3, [pc, #40]	; (8000cbc <RCC_voidInitSysClock+0x60>)
 8000c92:	685b      	ldr	r3, [r3, #4]
 8000c94:	4a09      	ldr	r2, [pc, #36]	; (8000cbc <RCC_voidInitSysClock+0x60>)
 8000c96:	f023 0380 	bic.w	r3, r3, #128	; 0x80
 8000c9a:	6053      	str	r3, [r2, #4]
	     SET_BIT(RCC->RCC_CFGR,7);
	#else 
		#error("wrong choise")
	#endif
	#if RCC_APB1_PRESCALER   ==RCC_APB1_DIV_1
		CLR_BIT(RCC->RCC_CFGR,8);
 8000c9c:	4b07      	ldr	r3, [pc, #28]	; (8000cbc <RCC_voidInitSysClock+0x60>)
 8000c9e:	685b      	ldr	r3, [r3, #4]
 8000ca0:	4a06      	ldr	r2, [pc, #24]	; (8000cbc <RCC_voidInitSysClock+0x60>)
 8000ca2:	f423 7380 	bic.w	r3, r3, #256	; 0x100
 8000ca6:	6053      	str	r3, [r2, #4]
	    SET_BIT(RCC->RCC_CFGR,10);
	#else 
		#error("wrong choise")
	#endif
	#if RCC_APB2_PRESCALER   ==RCC_APB2_DIV_1
		CLR_BIT(RCC->RCC_CFGR,11);
 8000ca8:	4b04      	ldr	r3, [pc, #16]	; (8000cbc <RCC_voidInitSysClock+0x60>)
 8000caa:	685b      	ldr	r3, [r3, #4]
 8000cac:	4a03      	ldr	r2, [pc, #12]	; (8000cbc <RCC_voidInitSysClock+0x60>)
 8000cae:	f423 6300 	bic.w	r3, r3, #2048	; 0x800
 8000cb2:	6053      	str	r3, [r2, #4]
	    SET_BIT(RCC->RCC_CFGR,12);
	    SET_BIT(RCC->RCC_CFGR,13);
	#else 
		#error("wrong choise")
	#endif
}
 8000cb4:	bf00      	nop
 8000cb6:	46bd      	mov	sp, r7
 8000cb8:	bc80      	pop	{r7}
 8000cba:	4770      	bx	lr
 8000cbc:	40021000 	.word	0x40021000

08000cc0 <RCC_voidEnablePeripheral>:
	#endif
}


void RCC_voidEnablePeripheral(u8 Copy_u8Bus, u8 Copy_u8Peripheral)
{
 8000cc0:	b480      	push	{r7}
 8000cc2:	b083      	sub	sp, #12
 8000cc4:	af00      	add	r7, sp, #0
 8000cc6:	4603      	mov	r3, r0
 8000cc8:	460a      	mov	r2, r1
 8000cca:	71fb      	strb	r3, [r7, #7]
 8000ccc:	4613      	mov	r3, r2
 8000cce:	71bb      	strb	r3, [r7, #6]
	switch(Copy_u8Bus)
 8000cd0:	79fb      	ldrb	r3, [r7, #7]
 8000cd2:	2b01      	cmp	r3, #1
 8000cd4:	d00f      	beq.n	8000cf6 <RCC_voidEnablePeripheral+0x36>
 8000cd6:	2b02      	cmp	r3, #2
 8000cd8:	d018      	beq.n	8000d0c <RCC_voidEnablePeripheral+0x4c>
 8000cda:	2b00      	cmp	r3, #0
 8000cdc:	d000      	beq.n	8000ce0 <RCC_voidEnablePeripheral+0x20>
			break;
		case RCC_APB2:
			SET_BIT(RCC->RCC_APB2ENR,Copy_u8Peripheral);
			break;
	}
}
 8000cde:	e020      	b.n	8000d22 <RCC_voidEnablePeripheral+0x62>
			SET_BIT(RCC->RCC_AHBENR,Copy_u8Peripheral);
 8000ce0:	4b12      	ldr	r3, [pc, #72]	; (8000d2c <RCC_voidEnablePeripheral+0x6c>)
 8000ce2:	695b      	ldr	r3, [r3, #20]
 8000ce4:	79ba      	ldrb	r2, [r7, #6]
 8000ce6:	2101      	movs	r1, #1
 8000ce8:	fa01 f202 	lsl.w	r2, r1, r2
 8000cec:	4611      	mov	r1, r2
 8000cee:	4a0f      	ldr	r2, [pc, #60]	; (8000d2c <RCC_voidEnablePeripheral+0x6c>)
 8000cf0:	430b      	orrs	r3, r1
 8000cf2:	6153      	str	r3, [r2, #20]
			break;
 8000cf4:	e015      	b.n	8000d22 <RCC_voidEnablePeripheral+0x62>
			SET_BIT(RCC->RCC_APB1ENR,Copy_u8Peripheral);
 8000cf6:	4b0d      	ldr	r3, [pc, #52]	; (8000d2c <RCC_voidEnablePeripheral+0x6c>)
 8000cf8:	69db      	ldr	r3, [r3, #28]
 8000cfa:	79ba      	ldrb	r2, [r7, #6]
 8000cfc:	2101      	movs	r1, #1
 8000cfe:	fa01 f202 	lsl.w	r2, r1, r2
 8000d02:	4611      	mov	r1, r2
 8000d04:	4a09      	ldr	r2, [pc, #36]	; (8000d2c <RCC_voidEnablePeripheral+0x6c>)
 8000d06:	430b      	orrs	r3, r1
 8000d08:	61d3      	str	r3, [r2, #28]
			break;
 8000d0a:	e00a      	b.n	8000d22 <RCC_voidEnablePeripheral+0x62>
			SET_BIT(RCC->RCC_APB2ENR,Copy_u8Peripheral);
 8000d0c:	4b07      	ldr	r3, [pc, #28]	; (8000d2c <RCC_voidEnablePeripheral+0x6c>)
 8000d0e:	699b      	ldr	r3, [r3, #24]
 8000d10:	79ba      	ldrb	r2, [r7, #6]
 8000d12:	2101      	movs	r1, #1
 8000d14:	fa01 f202 	lsl.w	r2, r1, r2
 8000d18:	4611      	mov	r1, r2
 8000d1a:	4a04      	ldr	r2, [pc, #16]	; (8000d2c <RCC_voidEnablePeripheral+0x6c>)
 8000d1c:	430b      	orrs	r3, r1
 8000d1e:	6193      	str	r3, [r2, #24]
			break;
 8000d20:	bf00      	nop
}
 8000d22:	bf00      	nop
 8000d24:	370c      	adds	r7, #12
 8000d26:	46bd      	mov	sp, r7
 8000d28:	bc80      	pop	{r7}
 8000d2a:	4770      	bx	lr
 8000d2c:	40021000 	.word	0x40021000

08000d30 <truncate_queue>:
}


// function to handle dequeue operation
static SPI_ERROR_STATUS_t truncate_queue(void)
{
 8000d30:	b480      	push	{r7}
 8000d32:	b083      	sub	sp, #12
 8000d34:	af00      	add	r7, sp, #0
	
	//status code
    SPI_ERROR_STATUS_t loc_enu_StatusCode = SPI_OKAY;
 8000d36:	2300      	movs	r3, #0
 8000d38:	71fb      	strb	r3, [r7, #7]
	
	// check if all bytes has been sent OR queue is empty
	if((gl_SPI_data_queue.s16_front_queue > gl_SPI_data_queue.s16_rear_queue) || (gl_SPI_data_queue.s16_front_queue == EMPTY_POSITOIN))
 8000d3a:	4b19      	ldr	r3, [pc, #100]	; (8000da0 <truncate_queue+0x70>)
 8000d3c:	f993 20c8 	ldrsb.w	r2, [r3, #200]	; 0xc8
 8000d40:	4b17      	ldr	r3, [pc, #92]	; (8000da0 <truncate_queue+0x70>)
 8000d42:	f993 30c9 	ldrsb.w	r3, [r3, #201]	; 0xc9
 8000d46:	429a      	cmp	r2, r3
 8000d48:	dc05      	bgt.n	8000d56 <truncate_queue+0x26>
 8000d4a:	4b15      	ldr	r3, [pc, #84]	; (8000da0 <truncate_queue+0x70>)
 8000d4c:	f993 30c8 	ldrsb.w	r3, [r3, #200]	; 0xc8
 8000d50:	f1b3 3fff 	cmp.w	r3, #4294967295
 8000d54:	d10a      	bne.n	8000d6c <truncate_queue+0x3c>
	{
		// set front and rear to defaults
		gl_SPI_data_queue.s16_front_queue = EMPTY_POSITOIN;
 8000d56:	4b12      	ldr	r3, [pc, #72]	; (8000da0 <truncate_queue+0x70>)
 8000d58:	22ff      	movs	r2, #255	; 0xff
 8000d5a:	f883 20c8 	strb.w	r2, [r3, #200]	; 0xc8
		gl_SPI_data_queue.s16_rear_queue  = EMPTY_POSITOIN;
 8000d5e:	4b10      	ldr	r3, [pc, #64]	; (8000da0 <truncate_queue+0x70>)
 8000d60:	22ff      	movs	r2, #255	; 0xff
 8000d62:	f883 20c9 	strb.w	r2, [r3, #201]	; 0xc9
		
		//status code queue is empty
		loc_enu_StatusCode = QUEUE_EMPTY;
 8000d66:	2302      	movs	r3, #2
 8000d68:	71fb      	strb	r3, [r7, #7]
 8000d6a:	e012      	b.n	8000d92 <truncate_queue+0x62>
	}
	else
	{
		//send current byte and increment front
		SPI1->DR = gl_SPI_data_queue.u16_arr_data[gl_SPI_data_queue.s16_front_queue];
 8000d6c:	4b0c      	ldr	r3, [pc, #48]	; (8000da0 <truncate_queue+0x70>)
 8000d6e:	f993 30c8 	ldrsb.w	r3, [r3, #200]	; 0xc8
 8000d72:	461a      	mov	r2, r3
 8000d74:	4b0a      	ldr	r3, [pc, #40]	; (8000da0 <truncate_queue+0x70>)
 8000d76:	f833 2012 	ldrh.w	r2, [r3, r2, lsl #1]
 8000d7a:	4b0a      	ldr	r3, [pc, #40]	; (8000da4 <truncate_queue+0x74>)
 8000d7c:	60da      	str	r2, [r3, #12]
		gl_SPI_data_queue.s16_front_queue++;
 8000d7e:	4b08      	ldr	r3, [pc, #32]	; (8000da0 <truncate_queue+0x70>)
 8000d80:	f993 30c8 	ldrsb.w	r3, [r3, #200]	; 0xc8
 8000d84:	b2db      	uxtb	r3, r3
 8000d86:	3301      	adds	r3, #1
 8000d88:	b2db      	uxtb	r3, r3
 8000d8a:	b25a      	sxtb	r2, r3
 8000d8c:	4b04      	ldr	r3, [pc, #16]	; (8000da0 <truncate_queue+0x70>)
 8000d8e:	f883 20c8 	strb.w	r2, [r3, #200]	; 0xc8
	}
	return loc_enu_StatusCode;
 8000d92:	79fb      	ldrb	r3, [r7, #7]
}
 8000d94:	4618      	mov	r0, r3
 8000d96:	370c      	adds	r7, #12
 8000d98:	46bd      	mov	sp, r7
 8000d9a:	bc80      	pop	{r7}
 8000d9c:	4770      	bx	lr
 8000d9e:	bf00      	nop
 8000da0:	20000000 	.word	0x20000000
 8000da4:	40013000 	.word	0x40013000

08000da8 <SPI1_IRQHandler>:


void SPI1_IRQHandler(void)
{
 8000da8:	b580      	push	{r7, lr}
 8000daa:	af00      	add	r7, sp, #0
    // TODO HANDLE ISR FOR RECEPTION
	#if   SPI1_MASTER_SLAVE == SPI_SLAVE
       sgl_Recieve_Index = (u8)SPI1->DR;
       gl_ptr_Function();
    #elif SPI1_MASTER_SLAVE == SPI_MASTER
      if (truncate_queue() == QUEUE_EMPTY)
 8000dac:	f7ff ffc0 	bl	8000d30 <truncate_queue>
 8000db0:	4603      	mov	r3, r0
 8000db2:	2b02      	cmp	r3, #2
 8000db4:	d106      	bne.n	8000dc4 <SPI1_IRQHandler+0x1c>
      {
        if (gl_ptr_Function != PTR_NULL)
 8000db6:	4b04      	ldr	r3, [pc, #16]	; (8000dc8 <SPI1_IRQHandler+0x20>)
 8000db8:	681b      	ldr	r3, [r3, #0]
 8000dba:	2b00      	cmp	r3, #0
 8000dbc:	d002      	beq.n	8000dc4 <SPI1_IRQHandler+0x1c>
        {
            gl_ptr_Function();
 8000dbe:	4b02      	ldr	r3, [pc, #8]	; (8000dc8 <SPI1_IRQHandler+0x20>)
 8000dc0:	681b      	ldr	r3, [r3, #0]
 8000dc2:	4798      	blx	r3
        }
      }
    #endif

}
 8000dc4:	bf00      	nop
 8000dc6:	bd80      	pop	{r7, pc}
 8000dc8:	200000ec 	.word	0x200000ec

08000dcc <MSTK_voidInit>:

/* Define Variable for interval mode */
static u8 MSTK_u8ModeOfInterval;

void MSTK_voidInit(void)
{
 8000dcc:	b480      	push	{r7}
 8000dce:	af00      	add	r7, sp, #0
#if MSTK_CLK_SRC == MSTK_SRC_AHB
    /* Disable STK - Disable STK Interrupt - Set clock source AHB */
	MSTK -> CTRL = 0x00000004;
#else
    /* Disable STK - Disable STK Interrupt - Set clock source AHB/8 */
	MSTK -> CTRL = 0;
 8000dd0:	4b03      	ldr	r3, [pc, #12]	; (8000de0 <MSTK_voidInit+0x14>)
 8000dd2:	2200      	movs	r2, #0
 8000dd4:	601a      	str	r2, [r3, #0]

#endif
}
 8000dd6:	bf00      	nop
 8000dd8:	46bd      	mov	sp, r7
 8000dda:	bc80      	pop	{r7}
 8000ddc:	4770      	bx	lr
 8000dde:	bf00      	nop
 8000de0:	e000e010 	.word	0xe000e010

08000de4 <MSTK_voidSetBusyWait>:

void MSTK_voidSetBusyWait( u32 Copy_u32Ticks )
{
 8000de4:	b480      	push	{r7}
 8000de6:	b083      	sub	sp, #12
 8000de8:	af00      	add	r7, sp, #0
 8000dea:	6078      	str	r0, [r7, #4]
	/* Load ticks to load register */
	MSTK -> LOAD = Copy_u32Ticks;
 8000dec:	4a10      	ldr	r2, [pc, #64]	; (8000e30 <MSTK_voidSetBusyWait+0x4c>)
 8000dee:	687b      	ldr	r3, [r7, #4]
 8000df0:	6053      	str	r3, [r2, #4]

	/* Start Timer */
	SET_BIT(MSTK->CTRL, 0);
 8000df2:	4b0f      	ldr	r3, [pc, #60]	; (8000e30 <MSTK_voidSetBusyWait+0x4c>)
 8000df4:	681b      	ldr	r3, [r3, #0]
 8000df6:	4a0e      	ldr	r2, [pc, #56]	; (8000e30 <MSTK_voidSetBusyWait+0x4c>)
 8000df8:	f043 0301 	orr.w	r3, r3, #1
 8000dfc:	6013      	str	r3, [r2, #0]

	/* Wait till flag is raised */
	while( (GET_BIT(MSTK->CTRL,16)) == 0);
 8000dfe:	bf00      	nop
 8000e00:	4b0b      	ldr	r3, [pc, #44]	; (8000e30 <MSTK_voidSetBusyWait+0x4c>)
 8000e02:	681b      	ldr	r3, [r3, #0]
 8000e04:	0c1b      	lsrs	r3, r3, #16
 8000e06:	f003 0301 	and.w	r3, r3, #1
 8000e0a:	2b00      	cmp	r3, #0
 8000e0c:	d0f8      	beq.n	8000e00 <MSTK_voidSetBusyWait+0x1c>

	/* Stop Timer */
	SET_BIT(MSTK->CTRL, 0);
 8000e0e:	4b08      	ldr	r3, [pc, #32]	; (8000e30 <MSTK_voidSetBusyWait+0x4c>)
 8000e10:	681b      	ldr	r3, [r3, #0]
 8000e12:	4a07      	ldr	r2, [pc, #28]	; (8000e30 <MSTK_voidSetBusyWait+0x4c>)
 8000e14:	f043 0301 	orr.w	r3, r3, #1
 8000e18:	6013      	str	r3, [r2, #0]
	MSTK -> LOAD = 0;
 8000e1a:	4b05      	ldr	r3, [pc, #20]	; (8000e30 <MSTK_voidSetBusyWait+0x4c>)
 8000e1c:	2200      	movs	r2, #0
 8000e1e:	605a      	str	r2, [r3, #4]
	MSTK -> VAL  = 0;
 8000e20:	4b03      	ldr	r3, [pc, #12]	; (8000e30 <MSTK_voidSetBusyWait+0x4c>)
 8000e22:	2200      	movs	r2, #0
 8000e24:	609a      	str	r2, [r3, #8]
	
}
 8000e26:	bf00      	nop
 8000e28:	370c      	adds	r7, #12
 8000e2a:	46bd      	mov	sp, r7
 8000e2c:	bc80      	pop	{r7}
 8000e2e:	4770      	bx	lr
 8000e30:	e000e010 	.word	0xe000e010

08000e34 <SysTick_Handler>:

	return Local_u32RemainTime;
}

void SysTick_Handler(void)
{
 8000e34:	b580      	push	{r7, lr}
 8000e36:	b082      	sub	sp, #8
 8000e38:	af00      	add	r7, sp, #0
	u8 Local_u8Temporary ;

	if (MSTK_u8ModeOfInterval == MSTK_SINGLE_INTERVAL)
 8000e3a:	4b12      	ldr	r3, [pc, #72]	; (8000e84 <SysTick_Handler+0x50>)
 8000e3c:	781b      	ldrb	r3, [r3, #0]
 8000e3e:	2b00      	cmp	r3, #0
 8000e40:	d111      	bne.n	8000e66 <SysTick_Handler+0x32>
	{
		/* Disable STK Interrupt */
		CLR_BIT(MSTK->CTRL, 1);
 8000e42:	4b11      	ldr	r3, [pc, #68]	; (8000e88 <SysTick_Handler+0x54>)
 8000e44:	681b      	ldr	r3, [r3, #0]
 8000e46:	4a10      	ldr	r2, [pc, #64]	; (8000e88 <SysTick_Handler+0x54>)
 8000e48:	f023 0302 	bic.w	r3, r3, #2
 8000e4c:	6013      	str	r3, [r2, #0]

		/* Stop Timer */
		SET_BIT(MSTK->CTRL, 0);
 8000e4e:	4b0e      	ldr	r3, [pc, #56]	; (8000e88 <SysTick_Handler+0x54>)
 8000e50:	681b      	ldr	r3, [r3, #0]
 8000e52:	4a0d      	ldr	r2, [pc, #52]	; (8000e88 <SysTick_Handler+0x54>)
 8000e54:	f043 0301 	orr.w	r3, r3, #1
 8000e58:	6013      	str	r3, [r2, #0]
		MSTK -> LOAD = 0;
 8000e5a:	4b0b      	ldr	r3, [pc, #44]	; (8000e88 <SysTick_Handler+0x54>)
 8000e5c:	2200      	movs	r2, #0
 8000e5e:	605a      	str	r2, [r3, #4]
		MSTK -> VAL  = 0;
 8000e60:	4b09      	ldr	r3, [pc, #36]	; (8000e88 <SysTick_Handler+0x54>)
 8000e62:	2200      	movs	r2, #0
 8000e64:	609a      	str	r2, [r3, #8]
	}

	/* Callback notification */
	MSTK_CallBack();
 8000e66:	4b09      	ldr	r3, [pc, #36]	; (8000e8c <SysTick_Handler+0x58>)
 8000e68:	681b      	ldr	r3, [r3, #0]
 8000e6a:	4798      	blx	r3

	/* Clear interrupt flag */
	Local_u8Temporary = GET_BIT(MSTK->CTRL,16);
 8000e6c:	4b06      	ldr	r3, [pc, #24]	; (8000e88 <SysTick_Handler+0x54>)
 8000e6e:	681b      	ldr	r3, [r3, #0]
 8000e70:	0c1b      	lsrs	r3, r3, #16
 8000e72:	b2db      	uxtb	r3, r3
 8000e74:	f003 0301 	and.w	r3, r3, #1
 8000e78:	71fb      	strb	r3, [r7, #7]
}
 8000e7a:	bf00      	nop
 8000e7c:	3708      	adds	r7, #8
 8000e7e:	46bd      	mov	sp, r7
 8000e80:	bd80      	pop	{r7, pc}
 8000e82:	bf00      	nop
 8000e84:	200000f4 	.word	0x200000f4
 8000e88:	e000e010 	.word	0xe000e010
 8000e8c:	200000f0 	.word	0x200000f0

08000e90 <MTimer_voidInit>:

u8 channel1_set=0;
u8 channel2_set=0;

void MTimer_voidInit (u8 A_u8TimerSelected)
{
 8000e90:	b480      	push	{r7}
 8000e92:	b083      	sub	sp, #12
 8000e94:	af00      	add	r7, sp, #0
 8000e96:	4603      	mov	r3, r0
 8000e98:	71fb      	strb	r3, [r7, #7]

	/* Enable pinout of ADC (PortA , PORTB) from RCC */
	//MRCC_voidEnablePerephiralClock(RCC_AHB1 , RCC_EN_GPIOA) ;
	//MRCC_voidEnablePerephiralClock(RCC_AHB1 , RCC_EN_GPIOB) ;

	switch (A_u8TimerSelected)
 8000e9a:	79fb      	ldrb	r3, [r7, #7]
 8000e9c:	3b01      	subs	r3, #1
 8000e9e:	2b03      	cmp	r3, #3
 8000ea0:	f200 8107 	bhi.w	80010b2 <MTimer_voidInit+0x222>
 8000ea4:	a201      	add	r2, pc, #4	; (adr r2, 8000eac <MTimer_voidInit+0x1c>)
 8000ea6:	f852 f023 	ldr.w	pc, [r2, r3, lsl #2]
 8000eaa:	bf00      	nop
 8000eac:	08000ebd 	.word	0x08000ebd
 8000eb0:	08000f21 	.word	0x08000f21
 8000eb4:	08000fb3 	.word	0x08000fb3
 8000eb8:	08001045 	.word	0x08001045
		/**                             Init TIM1                                    **/
		/******************************************************************************/

			/* Select the Direction */
            #if   TIM1_DIRECTION == UP_COUNTER
			      CLR_BIT(TIM_1->CR1 , TIM1_CR1_DIR_BIT) ;
 8000ebc:	4b7f      	ldr	r3, [pc, #508]	; (80010bc <MTimer_voidInit+0x22c>)
 8000ebe:	681b      	ldr	r3, [r3, #0]
 8000ec0:	4a7e      	ldr	r2, [pc, #504]	; (80010bc <MTimer_voidInit+0x22c>)
 8000ec2:	f023 0310 	bic.w	r3, r3, #16
 8000ec6:	6013      	str	r3, [r2, #0]
            #else
                  #error "Invalid Selection of TIM1_DIRECTION"
            #endif

			/* Edge-aligned mode */
			CLR_BIT(TIM_1->CR1 , TIM1_CR1_CMS_BIT0) ;
 8000ec8:	4b7c      	ldr	r3, [pc, #496]	; (80010bc <MTimer_voidInit+0x22c>)
 8000eca:	681b      	ldr	r3, [r3, #0]
 8000ecc:	4a7b      	ldr	r2, [pc, #492]	; (80010bc <MTimer_voidInit+0x22c>)
 8000ece:	f023 0320 	bic.w	r3, r3, #32
 8000ed2:	6013      	str	r3, [r2, #0]
			CLR_BIT(TIM_1->CR1 , TIM1_CR1_CMS_BIT1) ;
 8000ed4:	4b79      	ldr	r3, [pc, #484]	; (80010bc <MTimer_voidInit+0x22c>)
 8000ed6:	681b      	ldr	r3, [r3, #0]
 8000ed8:	4a78      	ldr	r2, [pc, #480]	; (80010bc <MTimer_voidInit+0x22c>)
 8000eda:	f023 0340 	bic.w	r3, r3, #64	; 0x40
 8000ede:	6013      	str	r3, [r2, #0]

			/* set the timer division */
            #if   TIM1_DIVISION == tCK_INT_x_1
			      CLR_BIT(TIM_1->CR1 , TIM1_CR1_CKD_BIT0) ;
 8000ee0:	4b76      	ldr	r3, [pc, #472]	; (80010bc <MTimer_voidInit+0x22c>)
 8000ee2:	681b      	ldr	r3, [r3, #0]
 8000ee4:	4a75      	ldr	r2, [pc, #468]	; (80010bc <MTimer_voidInit+0x22c>)
 8000ee6:	f423 7380 	bic.w	r3, r3, #256	; 0x100
 8000eea:	6013      	str	r3, [r2, #0]
			      CLR_BIT(TIM_1->CR1 , TIM1_CR1_CKD_BIT1) ;
 8000eec:	4b73      	ldr	r3, [pc, #460]	; (80010bc <MTimer_voidInit+0x22c>)
 8000eee:	681b      	ldr	r3, [r3, #0]
 8000ef0:	4a72      	ldr	r2, [pc, #456]	; (80010bc <MTimer_voidInit+0x22c>)
 8000ef2:	f423 7300 	bic.w	r3, r3, #512	; 0x200
 8000ef6:	6013      	str	r3, [r2, #0]
                  #error "Invalid Selection of TIM1_DIVISION"
            #endif

			/* set the timer prescaller */
            #if    TIM1_PRESCALLER <= MAX_TIM_PRESCALLER
            	   TIM_1 ->PSC = TIM1_PRESCALLER ;
 8000ef8:	4b70      	ldr	r3, [pc, #448]	; (80010bc <MTimer_voidInit+0x22c>)
 8000efa:	2208      	movs	r2, #8
 8000efc:	629a      	str	r2, [r3, #40]	; 0x28
            #else
                   #error "TIM1_PRESCALLER out of range"
            #endif

            /* Enable auto-reload preload */
            SET_BIT(TIM_1->CR1 , TIM1_CR1_ARPE_BIT) ;
 8000efe:	4b6f      	ldr	r3, [pc, #444]	; (80010bc <MTimer_voidInit+0x22c>)
 8000f00:	681b      	ldr	r3, [r3, #0]
 8000f02:	4a6e      	ldr	r2, [pc, #440]	; (80010bc <MTimer_voidInit+0x22c>)
 8000f04:	f043 0380 	orr.w	r3, r3, #128	; 0x80
 8000f08:	6013      	str	r3, [r2, #0]

            /* Set the Auto-reload value */
            #if  TIM1_PRELOAD_VALUE <= MAX_TIM_PRELOAD_VALUE
            	   TIM_1->ARR = TIM1_PRELOAD_VALUE ;
 8000f0a:	4b6c      	ldr	r3, [pc, #432]	; (80010bc <MTimer_voidInit+0x22c>)
 8000f0c:	f64f 72ff 	movw	r2, #65535	; 0xffff
 8000f10:	62da      	str	r2, [r3, #44]	; 0x2c
           //       #error "REPETATION_COUNTER out of range"
           // #endif

            /* Generate an update event to reload the Prescaler
            and the repetition counter(only for TIM1 and TIM5) value immediately */
            SET_BIT(TIM_1->EGR , TIM1_EGR_UG_BIT );
 8000f12:	4b6a      	ldr	r3, [pc, #424]	; (80010bc <MTimer_voidInit+0x22c>)
 8000f14:	695b      	ldr	r3, [r3, #20]
 8000f16:	4a69      	ldr	r2, [pc, #420]	; (80010bc <MTimer_voidInit+0x22c>)
 8000f18:	f043 0301 	orr.w	r3, r3, #1
 8000f1c:	6153      	str	r3, [r2, #20]

		break ;
 8000f1e:	e0c8      	b.n	80010b2 <MTimer_voidInit+0x222>
		/******************************************************************************/
		/**                             Init TIM2                                    **/
		/******************************************************************************/

			/* Disable slave mode to clock the prescaler directly with the internal clock */
			SET_BIT(TIM_2 -> SMCR , TIM2_TO_TIM5_SMCR_MSM_BIT );
 8000f20:	f04f 4380 	mov.w	r3, #1073741824	; 0x40000000
 8000f24:	689b      	ldr	r3, [r3, #8]
 8000f26:	f04f 4280 	mov.w	r2, #1073741824	; 0x40000000
 8000f2a:	f043 0380 	orr.w	r3, r3, #128	; 0x80
 8000f2e:	6093      	str	r3, [r2, #8]

			/* Select the Direction */
            #if   TIM2_DIRECTION == UP_COUNTER
			      CLR_BIT(TIM_2->CR1 , TIM2_TO_TIM5_CR1_DIR_BIT) ;
 8000f30:	f04f 4380 	mov.w	r3, #1073741824	; 0x40000000
 8000f34:	681b      	ldr	r3, [r3, #0]
 8000f36:	f04f 4280 	mov.w	r2, #1073741824	; 0x40000000
 8000f3a:	f023 0310 	bic.w	r3, r3, #16
 8000f3e:	6013      	str	r3, [r2, #0]
            #else
                  #error "Invalid Selection of TIM2_DIRECTION"
            #endif

			/* Edge-aligned mode */
			CLR_BIT(TIM_2->CR1 , TIM2_TO_TIM5_CR1_CMS_BIT0) ;
 8000f40:	f04f 4380 	mov.w	r3, #1073741824	; 0x40000000
 8000f44:	681b      	ldr	r3, [r3, #0]
 8000f46:	f04f 4280 	mov.w	r2, #1073741824	; 0x40000000
 8000f4a:	f023 0320 	bic.w	r3, r3, #32
 8000f4e:	6013      	str	r3, [r2, #0]
			CLR_BIT(TIM_2->CR1 , TIM2_TO_TIM5_CR1_CMS_BIT1) ;
 8000f50:	f04f 4380 	mov.w	r3, #1073741824	; 0x40000000
 8000f54:	681b      	ldr	r3, [r3, #0]
 8000f56:	f04f 4280 	mov.w	r2, #1073741824	; 0x40000000
 8000f5a:	f023 0340 	bic.w	r3, r3, #64	; 0x40
 8000f5e:	6013      	str	r3, [r2, #0]

			/* set the timer division */
			#if   TIM2_DIVISION == tCK_INT_x_1
		      CLR_BIT(TIM_2->CR1 , TIM2_TO_TIM5_CR1_CKD_BIT0) ;
 8000f60:	f04f 4380 	mov.w	r3, #1073741824	; 0x40000000
 8000f64:	681b      	ldr	r3, [r3, #0]
 8000f66:	f04f 4280 	mov.w	r2, #1073741824	; 0x40000000
 8000f6a:	f423 7380 	bic.w	r3, r3, #256	; 0x100
 8000f6e:	6013      	str	r3, [r2, #0]
		      CLR_BIT(TIM_2->CR1 , TIM2_TO_TIM5_CR1_CKD_BIT1) ;
 8000f70:	f04f 4380 	mov.w	r3, #1073741824	; 0x40000000
 8000f74:	681b      	ldr	r3, [r3, #0]
 8000f76:	f04f 4280 	mov.w	r2, #1073741824	; 0x40000000
 8000f7a:	f423 7300 	bic.w	r3, r3, #512	; 0x200
 8000f7e:	6013      	str	r3, [r2, #0]
			      #error "Invalid Selection of TIM2_DIVISION"
			#endif

		    /* set the timer prescaller */
	        #if    TIM2_PRESCALLER <= MAX_TIM_PRESCALLER
	        	   TIM_2 ->PSC = TIM2_PRESCALLER ;
 8000f80:	f04f 4380 	mov.w	r3, #1073741824	; 0x40000000
 8000f84:	2208      	movs	r2, #8
 8000f86:	629a      	str	r2, [r3, #40]	; 0x28
	        #else
	               #error "TIM2_PRESCALLER out of range"
	        #endif

	        /* Enable auto-reload preload */
	        SET_BIT(TIM_2->CR1 , TIM2_TO_TIM5_CR1_ARPE_BIT) ;
 8000f88:	f04f 4380 	mov.w	r3, #1073741824	; 0x40000000
 8000f8c:	681b      	ldr	r3, [r3, #0]
 8000f8e:	f04f 4280 	mov.w	r2, #1073741824	; 0x40000000
 8000f92:	f043 0380 	orr.w	r3, r3, #128	; 0x80
 8000f96:	6013      	str	r3, [r2, #0]

	        /* Set the Auto-reload value */
	        #if  TIM2_PRELOAD_VALUE <= MAX_TIM_PRELOAD_VALUE
	        	   TIM_2->ARR = TIM2_PRELOAD_VALUE ;
 8000f98:	f04f 4380 	mov.w	r3, #1073741824	; 0x40000000
 8000f9c:	220f      	movs	r2, #15
 8000f9e:	62da      	str	r2, [r3, #44]	; 0x2c
	              #error "TIM2_PRELOAD_VALUE out of range"
	        #endif

	        /* Generate an update event to reload the Prescaler
	         and the repetition counter(only for TIM1 and TIM5) value immediately */
	        SET_BIT(TIM_2->EGR , TIM2_TO_TIM5_EGR_UG_BIT );
 8000fa0:	f04f 4380 	mov.w	r3, #1073741824	; 0x40000000
 8000fa4:	695b      	ldr	r3, [r3, #20]
 8000fa6:	f04f 4280 	mov.w	r2, #1073741824	; 0x40000000
 8000faa:	f043 0301 	orr.w	r3, r3, #1
 8000fae:	6153      	str	r3, [r2, #20]

		break ;
 8000fb0:	e07f      	b.n	80010b2 <MTimer_voidInit+0x222>
		/******************************************************************************/
		/**                             Init TIM3                                    **/
		/******************************************************************************/

			/* Disable slave mode to clock the prescaler directly with the internal clock */
			SET_BIT(TIM_3 -> SMCR , TIM2_TO_TIM5_SMCR_MSM_BIT );
 8000fb2:	f04f 2340 	mov.w	r3, #1073758208	; 0x40004000
 8000fb6:	689b      	ldr	r3, [r3, #8]
 8000fb8:	f04f 2240 	mov.w	r2, #1073758208	; 0x40004000
 8000fbc:	f043 0380 	orr.w	r3, r3, #128	; 0x80
 8000fc0:	6093      	str	r3, [r2, #8]

			/* Select the Direction */
            #if   TIM3_DIRECTION == UP_COUNTER
	           CLR_BIT(TIM_3->CR1 , TIM2_TO_TIM5_CR1_DIR_BIT) ;
 8000fc2:	f04f 2340 	mov.w	r3, #1073758208	; 0x40004000
 8000fc6:	681b      	ldr	r3, [r3, #0]
 8000fc8:	f04f 2240 	mov.w	r2, #1073758208	; 0x40004000
 8000fcc:	f023 0310 	bic.w	r3, r3, #16
 8000fd0:	6013      	str	r3, [r2, #0]
            #else
                  #error "Invalid Selection of TIM3_DIRECTION"
            #endif

	        /* Edge-aligned mode */
	        CLR_BIT(TIM_3->CR1 , TIM2_TO_TIM5_CR1_CMS_BIT0) ;
 8000fd2:	f04f 2340 	mov.w	r3, #1073758208	; 0x40004000
 8000fd6:	681b      	ldr	r3, [r3, #0]
 8000fd8:	f04f 2240 	mov.w	r2, #1073758208	; 0x40004000
 8000fdc:	f023 0320 	bic.w	r3, r3, #32
 8000fe0:	6013      	str	r3, [r2, #0]
	        CLR_BIT(TIM_3->CR1 , TIM2_TO_TIM5_CR1_CMS_BIT1) ;
 8000fe2:	f04f 2340 	mov.w	r3, #1073758208	; 0x40004000
 8000fe6:	681b      	ldr	r3, [r3, #0]
 8000fe8:	f04f 2240 	mov.w	r2, #1073758208	; 0x40004000
 8000fec:	f023 0340 	bic.w	r3, r3, #64	; 0x40
 8000ff0:	6013      	str	r3, [r2, #0]

			/* set the timer division */
			#if   TIM3_DIVISION == tCK_INT_x_1
		      CLR_BIT(TIM_3->CR1 , TIM2_TO_TIM5_CR1_CKD_BIT0) ;
 8000ff2:	f04f 2340 	mov.w	r3, #1073758208	; 0x40004000
 8000ff6:	681b      	ldr	r3, [r3, #0]
 8000ff8:	f04f 2240 	mov.w	r2, #1073758208	; 0x40004000
 8000ffc:	f423 7380 	bic.w	r3, r3, #256	; 0x100
 8001000:	6013      	str	r3, [r2, #0]
		      CLR_BIT(TIM_3->CR1 , TIM2_TO_TIM5_CR1_CKD_BIT1) ;
 8001002:	f04f 2340 	mov.w	r3, #1073758208	; 0x40004000
 8001006:	681b      	ldr	r3, [r3, #0]
 8001008:	f04f 2240 	mov.w	r2, #1073758208	; 0x40004000
 800100c:	f423 7300 	bic.w	r3, r3, #512	; 0x200
 8001010:	6013      	str	r3, [r2, #0]
			      #error "Invalid Selection of TIM3_DIVISION"
			#endif

			/* set the timer prescaller */
		    #if    TIM3_PRESCALLER <= MAX_TIM_PRESCALLER
		    	   TIM_3 ->PSC = TIM3_PRESCALLER ;
 8001012:	f04f 2340 	mov.w	r3, #1073758208	; 0x40004000
 8001016:	2208      	movs	r2, #8
 8001018:	629a      	str	r2, [r3, #40]	; 0x28
		    #else
		           #error "TIM3_PRESCALLER out of range"
		    #endif

		    /* Enable auto-reload preload */
			SET_BIT(TIM_3->CR1 , TIM2_TO_TIM5_CR1_ARPE_BIT) ;
 800101a:	f04f 2340 	mov.w	r3, #1073758208	; 0x40004000
 800101e:	681b      	ldr	r3, [r3, #0]
 8001020:	f04f 2240 	mov.w	r2, #1073758208	; 0x40004000
 8001024:	f043 0380 	orr.w	r3, r3, #128	; 0x80
 8001028:	6013      	str	r3, [r2, #0]

			/* Set the Auto-reload value */
			#if  TIM3_PRELOAD_VALUE <= MAX_TIM_PRELOAD_VALUE
				   TIM_3->ARR = TIM3_PRELOAD_VALUE ;
 800102a:	f04f 2340 	mov.w	r3, #1073758208	; 0x40004000
 800102e:	220f      	movs	r2, #15
 8001030:	62da      	str	r2, [r3, #44]	; 0x2c
			      #error "TIM3_PRELOAD_VALUE out of range"
			#endif

			/* Generate an update event to reload the Prescaler
			 and the repetition counter(only for TIM1 and TIM5) value immediately */
			SET_BIT(TIM_3->EGR , TIM2_TO_TIM5_EGR_UG_BIT );
 8001032:	f04f 2340 	mov.w	r3, #1073758208	; 0x40004000
 8001036:	695b      	ldr	r3, [r3, #20]
 8001038:	f04f 2240 	mov.w	r2, #1073758208	; 0x40004000
 800103c:	f043 0301 	orr.w	r3, r3, #1
 8001040:	6153      	str	r3, [r2, #20]

		break ;
 8001042:	e036      	b.n	80010b2 <MTimer_voidInit+0x222>
		/******************************************************************************/
		/**                             Init TIM4                                    **/
		/******************************************************************************/

			/* Disable slave mode to clock the prescaler directly with the internal clock */
			SET_BIT(TIM_4 -> SMCR , TIM2_TO_TIM5_SMCR_MSM_BIT );
 8001044:	4b1e      	ldr	r3, [pc, #120]	; (80010c0 <MTimer_voidInit+0x230>)
 8001046:	689b      	ldr	r3, [r3, #8]
 8001048:	4a1d      	ldr	r2, [pc, #116]	; (80010c0 <MTimer_voidInit+0x230>)
 800104a:	f043 0380 	orr.w	r3, r3, #128	; 0x80
 800104e:	6093      	str	r3, [r2, #8]

			/* Select the Direction */
			#if   TIM4_DIRECTION == UP_COUNTER
			     CLR_BIT(TIM_4->CR1 , TIM2_TO_TIM5_CR1_DIR_BIT) ;
 8001050:	4b1b      	ldr	r3, [pc, #108]	; (80010c0 <MTimer_voidInit+0x230>)
 8001052:	681b      	ldr	r3, [r3, #0]
 8001054:	4a1a      	ldr	r2, [pc, #104]	; (80010c0 <MTimer_voidInit+0x230>)
 8001056:	f023 0310 	bic.w	r3, r3, #16
 800105a:	6013      	str	r3, [r2, #0]
			#else
			      #error "Invalid Selection of TIM4_DIRECTION"
			#endif

			/* Edge-aligned mode */
			CLR_BIT(TIM_4->CR1 , TIM2_TO_TIM5_CR1_CMS_BIT0) ;
 800105c:	4b18      	ldr	r3, [pc, #96]	; (80010c0 <MTimer_voidInit+0x230>)
 800105e:	681b      	ldr	r3, [r3, #0]
 8001060:	4a17      	ldr	r2, [pc, #92]	; (80010c0 <MTimer_voidInit+0x230>)
 8001062:	f023 0320 	bic.w	r3, r3, #32
 8001066:	6013      	str	r3, [r2, #0]
			CLR_BIT(TIM_4->CR1 , TIM2_TO_TIM5_CR1_CMS_BIT1) ;
 8001068:	4b15      	ldr	r3, [pc, #84]	; (80010c0 <MTimer_voidInit+0x230>)
 800106a:	681b      	ldr	r3, [r3, #0]
 800106c:	4a14      	ldr	r2, [pc, #80]	; (80010c0 <MTimer_voidInit+0x230>)
 800106e:	f023 0340 	bic.w	r3, r3, #64	; 0x40
 8001072:	6013      	str	r3, [r2, #0]

			/* set the timer division */
			#if   TIM4_DIVISION == tCK_INT_x_1
		      CLR_BIT(TIM_4->CR1 , TIM2_TO_TIM5_CR1_CKD_BIT0) ;
 8001074:	4b12      	ldr	r3, [pc, #72]	; (80010c0 <MTimer_voidInit+0x230>)
 8001076:	681b      	ldr	r3, [r3, #0]
 8001078:	4a11      	ldr	r2, [pc, #68]	; (80010c0 <MTimer_voidInit+0x230>)
 800107a:	f423 7380 	bic.w	r3, r3, #256	; 0x100
 800107e:	6013      	str	r3, [r2, #0]
		      CLR_BIT(TIM_4->CR1 , TIM2_TO_TIM5_CR1_CKD_BIT1) ;
 8001080:	4b0f      	ldr	r3, [pc, #60]	; (80010c0 <MTimer_voidInit+0x230>)
 8001082:	681b      	ldr	r3, [r3, #0]
 8001084:	4a0e      	ldr	r2, [pc, #56]	; (80010c0 <MTimer_voidInit+0x230>)
 8001086:	f423 7300 	bic.w	r3, r3, #512	; 0x200
 800108a:	6013      	str	r3, [r2, #0]
			      #error "Invalid Selection of TIM4_DIVISION"
			#endif

		    /* set the timer prescaller */
			#if    TIM4_PRESCALLER <= MAX_TIM_PRESCALLER
				   TIM_4 ->PSC = TIM4_PRESCALLER ;
 800108c:	4b0c      	ldr	r3, [pc, #48]	; (80010c0 <MTimer_voidInit+0x230>)
 800108e:	2208      	movs	r2, #8
 8001090:	629a      	str	r2, [r3, #40]	; 0x28
			#else
			       #error "TIM4_PRESCALLER out of range"
			#endif

			/* Enable auto-reload preload */
			SET_BIT(TIM_4->CR1 , TIM2_TO_TIM5_CR1_ARPE_BIT) ;
 8001092:	4b0b      	ldr	r3, [pc, #44]	; (80010c0 <MTimer_voidInit+0x230>)
 8001094:	681b      	ldr	r3, [r3, #0]
 8001096:	4a0a      	ldr	r2, [pc, #40]	; (80010c0 <MTimer_voidInit+0x230>)
 8001098:	f043 0380 	orr.w	r3, r3, #128	; 0x80
 800109c:	6013      	str	r3, [r2, #0]

			/* Set the Auto-reload value */
			#if  TIM4_PRELOAD_VALUE <= MAX_TIM_PRELOAD_VALUE
				   TIM_4->ARR = TIM4_PRELOAD_VALUE ;
 800109e:	4b08      	ldr	r3, [pc, #32]	; (80010c0 <MTimer_voidInit+0x230>)
 80010a0:	220f      	movs	r2, #15
 80010a2:	62da      	str	r2, [r3, #44]	; 0x2c
			      #error "TIM4_PRELOAD_VALUE out of range"
			#endif

		    /* Generate an update event to reload the Prescaler
		    	  and the repetition counter(only for TIM1 and TIM5) value immediately */
		    SET_BIT(TIM_4->EGR , TIM2_TO_TIM5_EGR_UG_BIT );
 80010a4:	4b06      	ldr	r3, [pc, #24]	; (80010c0 <MTimer_voidInit+0x230>)
 80010a6:	695b      	ldr	r3, [r3, #20]
 80010a8:	4a05      	ldr	r2, [pc, #20]	; (80010c0 <MTimer_voidInit+0x230>)
 80010aa:	f043 0301 	orr.w	r3, r3, #1
 80010ae:	6153      	str	r3, [r2, #20]
		break ;
 80010b0:	bf00      	nop
	}
}
 80010b2:	bf00      	nop
 80010b4:	370c      	adds	r7, #12
 80010b6:	46bd      	mov	sp, r7
 80010b8:	bc80      	pop	{r7}
 80010ba:	4770      	bx	lr
 80010bc:	40012c00 	.word	0x40012c00
 80010c0:	40008000 	.word	0x40008000

080010c4 <MTimer_voidPWM>:

void MTimer_voidPWM (u8 A_u8TimerSelected , u8 A_u8Channel , u16 A_u16CompareValue)
{
 80010c4:	b580      	push	{r7, lr}
 80010c6:	b0b2      	sub	sp, #200	; 0xc8
 80010c8:	af00      	add	r7, sp, #0
 80010ca:	4603      	mov	r3, r0
 80010cc:	71fb      	strb	r3, [r7, #7]
 80010ce:	460b      	mov	r3, r1
 80010d0:	71bb      	strb	r3, [r7, #6]
 80010d2:	4613      	mov	r3, r2
 80010d4:	80bb      	strh	r3, [r7, #4]
	if (A_u8TimerSelected == TIM1_TYPE)
 80010d6:	79fb      	ldrb	r3, [r7, #7]
 80010d8:	2b01      	cmp	r3, #1
 80010da:	f040 81d0 	bne.w	800147e <MTimer_voidPWM+0x3ba>
	{
		if (A_u8Channel == TIM_CHANNEL_1)
 80010de:	79bb      	ldrb	r3, [r7, #6]
 80010e0:	2b01      	cmp	r3, #1
 80010e2:	d178      	bne.n	80011d6 <MTimer_voidPWM+0x112>
		{
			if (channel1_set==0)
 80010e4:	4b7a      	ldr	r3, [pc, #488]	; (80012d0 <MTimer_voidPWM+0x20c>)
 80010e6:	781b      	ldrb	r3, [r3, #0]
 80010e8:	2b00      	cmp	r3, #0
 80010ea:	d107      	bne.n	80010fc <MTimer_voidPWM+0x38>
			{
				GPIO_voidSetPinMode(GPIO_PORTA,GPIO_PIN8,GPIO_OUTPUT_10M_AF_PP);
 80010ec:	2209      	movs	r2, #9
 80010ee:	2108      	movs	r1, #8
 80010f0:	2001      	movs	r0, #1
 80010f2:	f7ff fa81 	bl	80005f8 <GPIO_voidSetPinMode>
				channel1_set=1;
 80010f6:	4b76      	ldr	r3, [pc, #472]	; (80012d0 <MTimer_voidPWM+0x20c>)
 80010f8:	2201      	movs	r2, #1
 80010fa:	701a      	strb	r2, [r3, #0]
			}

			u32 L_u32TempCCMRX = 0 ;
 80010fc:	2300      	movs	r3, #0
 80010fe:	613b      	str	r3, [r7, #16]
			u32 L_u32TempCCER  = 0 ;
 8001100:	2300      	movs	r3, #0
 8001102:	60fb      	str	r3, [r7, #12]
		    u32 L_u32TempCR2   = 0 ;
 8001104:	2300      	movs	r3, #0
 8001106:	60bb      	str	r3, [r7, #8]

			/* Disable the Channel 1: Reset the CC1E Bit */
			CLR_BIT(TIM_1->CCER , TIM1_CCER_CC1E_BIT) ;
 8001108:	4b72      	ldr	r3, [pc, #456]	; (80012d4 <MTimer_voidPWM+0x210>)
 800110a:	6a1b      	ldr	r3, [r3, #32]
 800110c:	4a71      	ldr	r2, [pc, #452]	; (80012d4 <MTimer_voidPWM+0x210>)
 800110e:	f023 0301 	bic.w	r3, r3, #1
 8001112:	6213      	str	r3, [r2, #32]

			/* Get the TIM CCER register value */
			L_u32TempCCMRX = TIM_1->CCER;
 8001114:	4b6f      	ldr	r3, [pc, #444]	; (80012d4 <MTimer_voidPWM+0x210>)
 8001116:	6a1b      	ldr	r3, [r3, #32]
 8001118:	613b      	str	r3, [r7, #16]
			/* Get the TIM CR2 register value */
			L_u32TempCR2 = TIM_1->CR2;
 800111a:	4b6e      	ldr	r3, [pc, #440]	; (80012d4 <MTimer_voidPWM+0x210>)
 800111c:	685b      	ldr	r3, [r3, #4]
 800111e:	60bb      	str	r3, [r7, #8]

			/* Get the TIM CCMR1 register value */
			L_u32TempCCMRX = TIM_1->CCMR1;
 8001120:	4b6c      	ldr	r3, [pc, #432]	; (80012d4 <MTimer_voidPWM+0x210>)
 8001122:	699b      	ldr	r3, [r3, #24]
 8001124:	613b      	str	r3, [r7, #16]

			/* Reset the Output Compare Mode Bits */
			CLR_BIT(L_u32TempCCMRX , TIM1_CCMR1_OC1M_BIT0) ;
 8001126:	693b      	ldr	r3, [r7, #16]
 8001128:	f023 0310 	bic.w	r3, r3, #16
 800112c:	613b      	str	r3, [r7, #16]
			CLR_BIT(L_u32TempCCMRX , TIM1_CCMR1_OC1M_BIT1) ;
 800112e:	693b      	ldr	r3, [r7, #16]
 8001130:	f023 0320 	bic.w	r3, r3, #32
 8001134:	613b      	str	r3, [r7, #16]
			CLR_BIT(L_u32TempCCMRX , TIM1_CCMR1_OC1M_BIT2) ;
 8001136:	693b      	ldr	r3, [r7, #16]
 8001138:	f023 0340 	bic.w	r3, r3, #64	; 0x40
 800113c:	613b      	str	r3, [r7, #16]
			CLR_BIT(L_u32TempCCMRX , TIM1_CCMR1_CC1S_BIT0) ;
 800113e:	693b      	ldr	r3, [r7, #16]
 8001140:	f023 0301 	bic.w	r3, r3, #1
 8001144:	613b      	str	r3, [r7, #16]
			CLR_BIT(L_u32TempCCMRX , TIM1_CCMR1_CC1S_BIT1) ;
 8001146:	693b      	ldr	r3, [r7, #16]
 8001148:	f023 0302 	bic.w	r3, r3, #2
 800114c:	613b      	str	r3, [r7, #16]
			/* Select the Output Compare Mode1 */
			L_u32TempCCMRX |= (TIM_PWM_MODE1 << 4U) ;
 800114e:	693b      	ldr	r3, [r7, #16]
 8001150:	f043 0360 	orr.w	r3, r3, #96	; 0x60
 8001154:	613b      	str	r3, [r7, #16]

			/* Set the Output Compare Polarity as active high */
			CLR_BIT(L_u32TempCCER , TIM1_CCER_CC1P_BIT);
 8001156:	68fb      	ldr	r3, [r7, #12]
 8001158:	f023 0302 	bic.w	r3, r3, #2
 800115c:	60fb      	str	r3, [r7, #12]

			/* Set the Output N Polarity as active high */
			CLR_BIT(L_u32TempCCER , TIM1_CCER_CC1NP_BIT) ;
 800115e:	68fb      	ldr	r3, [r7, #12]
 8001160:	f023 0308 	bic.w	r3, r3, #8
 8001164:	60fb      	str	r3, [r7, #12]
			/* Reset the Output N State */
			CLR_BIT(L_u32TempCCER , TIM1_CCER_CC1NE_BIT) ;
 8001166:	68fb      	ldr	r3, [r7, #12]
 8001168:	f023 0304 	bic.w	r3, r3, #4
 800116c:	60fb      	str	r3, [r7, #12]

			/* Reset the Output Compare and Output Compare N IDLE State */
			CLR_BIT(L_u32TempCR2 , TIM1_CR2_OIS1N_BIT) ;
 800116e:	68bb      	ldr	r3, [r7, #8]
 8001170:	f423 7300 	bic.w	r3, r3, #512	; 0x200
 8001174:	60bb      	str	r3, [r7, #8]
			CLR_BIT(L_u32TempCR2 , TIM1_CR2_OIS1N_BIT) ;
 8001176:	68bb      	ldr	r3, [r7, #8]
 8001178:	f423 7300 	bic.w	r3, r3, #512	; 0x200
 800117c:	60bb      	str	r3, [r7, #8]

			/* Write to TIM CR2 */
			TIM_1->CR2 = L_u32TempCR2;
 800117e:	4a55      	ldr	r2, [pc, #340]	; (80012d4 <MTimer_voidPWM+0x210>)
 8001180:	68bb      	ldr	r3, [r7, #8]
 8001182:	6053      	str	r3, [r2, #4]

			/* Write to TIM CCMR1 */
			TIM_1->CCMR1 = L_u32TempCCMRX;
 8001184:	4a53      	ldr	r2, [pc, #332]	; (80012d4 <MTimer_voidPWM+0x210>)
 8001186:	693b      	ldr	r3, [r7, #16]
 8001188:	6193      	str	r3, [r2, #24]

			/* Set the Capture Compare Register value */
			TIM_1->CCR1 = A_u16CompareValue ;
 800118a:	4a52      	ldr	r2, [pc, #328]	; (80012d4 <MTimer_voidPWM+0x210>)
 800118c:	88bb      	ldrh	r3, [r7, #4]
 800118e:	6353      	str	r3, [r2, #52]	; 0x34

			/* Write to TIM CCER */
			TIM_1->CCER = L_u32TempCCER;
 8001190:	4a50      	ldr	r2, [pc, #320]	; (80012d4 <MTimer_voidPWM+0x210>)
 8001192:	68fb      	ldr	r3, [r7, #12]
 8001194:	6213      	str	r3, [r2, #32]

			/* Set the Preload enable bit for channel1 */
			SET_BIT (TIM_1->CCMR1 , TIM1_CCMR1_OC1PE_BIT);
 8001196:	4b4f      	ldr	r3, [pc, #316]	; (80012d4 <MTimer_voidPWM+0x210>)
 8001198:	699b      	ldr	r3, [r3, #24]
 800119a:	4a4e      	ldr	r2, [pc, #312]	; (80012d4 <MTimer_voidPWM+0x210>)
 800119c:	f043 0308 	orr.w	r3, r3, #8
 80011a0:	6193      	str	r3, [r2, #24]

			/* Configure the Output Fast mode */
			SET_BIT (TIM_1->CCMR1 , TIM1_CCMR1_OC1FE_BIT) ;
 80011a2:	4b4c      	ldr	r3, [pc, #304]	; (80012d4 <MTimer_voidPWM+0x210>)
 80011a4:	699b      	ldr	r3, [r3, #24]
 80011a6:	4a4b      	ldr	r2, [pc, #300]	; (80012d4 <MTimer_voidPWM+0x210>)
 80011a8:	f043 0304 	orr.w	r3, r3, #4
 80011ac:	6193      	str	r3, [r2, #24]

			/* Enable the Capture compare channel */
			SET_BIT(TIM_1-> CCER , TIM1_CCER_CC1E_BIT) ;
 80011ae:	4b49      	ldr	r3, [pc, #292]	; (80012d4 <MTimer_voidPWM+0x210>)
 80011b0:	6a1b      	ldr	r3, [r3, #32]
 80011b2:	4a48      	ldr	r2, [pc, #288]	; (80012d4 <MTimer_voidPWM+0x210>)
 80011b4:	f043 0301 	orr.w	r3, r3, #1
 80011b8:	6213      	str	r3, [r2, #32]

			/* Enable the main output */
			SET_BIT(TIM_1 ->BDTR , TIM1_BDTR_MOE_BIT ) ;
 80011ba:	4b46      	ldr	r3, [pc, #280]	; (80012d4 <MTimer_voidPWM+0x210>)
 80011bc:	6c5b      	ldr	r3, [r3, #68]	; 0x44
 80011be:	4a45      	ldr	r2, [pc, #276]	; (80012d4 <MTimer_voidPWM+0x210>)
 80011c0:	f443 4300 	orr.w	r3, r3, #32768	; 0x8000
 80011c4:	6453      	str	r3, [r2, #68]	; 0x44

			/* Enable the timer */
			SET_BIT(TIM_1 -> CR1 , TIM1_CR1_CEN_BIT) ;
 80011c6:	4b43      	ldr	r3, [pc, #268]	; (80012d4 <MTimer_voidPWM+0x210>)
 80011c8:	681b      	ldr	r3, [r3, #0]
 80011ca:	4a42      	ldr	r2, [pc, #264]	; (80012d4 <MTimer_voidPWM+0x210>)
 80011cc:	f043 0301 	orr.w	r3, r3, #1
 80011d0:	6013      	str	r3, [r2, #0]
	}
	else
	{
		// error type of A_u8TimerSelected
	}
}
 80011d2:	f000 be96 	b.w	8001f02 <MTimer_voidPWM+0xe3e>
		else if (A_u8Channel == TIM_CHANNEL_2)
 80011d6:	79bb      	ldrb	r3, [r7, #6]
 80011d8:	2b02      	cmp	r3, #2
 80011da:	d17f      	bne.n	80012dc <MTimer_voidPWM+0x218>
			if (channel2_set==0)
 80011dc:	4b3e      	ldr	r3, [pc, #248]	; (80012d8 <MTimer_voidPWM+0x214>)
 80011de:	781b      	ldrb	r3, [r3, #0]
 80011e0:	2b00      	cmp	r3, #0
 80011e2:	d107      	bne.n	80011f4 <MTimer_voidPWM+0x130>
					GPIO_voidSetPinMode(GPIO_PORTA,GPIO_PIN9,GPIO_OUTPUT_10M_AF_PP);
 80011e4:	2209      	movs	r2, #9
 80011e6:	2109      	movs	r1, #9
 80011e8:	2001      	movs	r0, #1
 80011ea:	f7ff fa05 	bl	80005f8 <GPIO_voidSetPinMode>
					channel2_set=1;
 80011ee:	4b3a      	ldr	r3, [pc, #232]	; (80012d8 <MTimer_voidPWM+0x214>)
 80011f0:	2201      	movs	r2, #1
 80011f2:	701a      	strb	r2, [r3, #0]
			u32 L_u32TempCCMRX = 0 ;
 80011f4:	2300      	movs	r3, #0
 80011f6:	61fb      	str	r3, [r7, #28]
			u32 L_u32TempCCER  = 0 ;
 80011f8:	2300      	movs	r3, #0
 80011fa:	61bb      	str	r3, [r7, #24]
		    u32 L_u32TempCR2   = 0 ;
 80011fc:	2300      	movs	r3, #0
 80011fe:	617b      	str	r3, [r7, #20]
		    CLR_BIT(TIM_1->CCER , TIM1_CCER_CC2E_BIT);
 8001200:	4b34      	ldr	r3, [pc, #208]	; (80012d4 <MTimer_voidPWM+0x210>)
 8001202:	6a1b      	ldr	r3, [r3, #32]
 8001204:	4a33      	ldr	r2, [pc, #204]	; (80012d4 <MTimer_voidPWM+0x210>)
 8001206:	f023 0310 	bic.w	r3, r3, #16
 800120a:	6213      	str	r3, [r2, #32]
		    L_u32TempCCER = TIM_1->CCER;
 800120c:	4b31      	ldr	r3, [pc, #196]	; (80012d4 <MTimer_voidPWM+0x210>)
 800120e:	6a1b      	ldr	r3, [r3, #32]
 8001210:	61bb      	str	r3, [r7, #24]
		    L_u32TempCR2 = TIM_1->CR2;
 8001212:	4b30      	ldr	r3, [pc, #192]	; (80012d4 <MTimer_voidPWM+0x210>)
 8001214:	685b      	ldr	r3, [r3, #4]
 8001216:	617b      	str	r3, [r7, #20]
		    L_u32TempCCMRX = TIM_1->CCMR1;
 8001218:	4b2e      	ldr	r3, [pc, #184]	; (80012d4 <MTimer_voidPWM+0x210>)
 800121a:	699b      	ldr	r3, [r3, #24]
 800121c:	61fb      	str	r3, [r7, #28]
		    CLR_BIT(L_u32TempCCMRX , TIM1_CCMR1_OC2M_BIT0);
 800121e:	69fb      	ldr	r3, [r7, #28]
 8001220:	f423 5380 	bic.w	r3, r3, #4096	; 0x1000
 8001224:	61fb      	str	r3, [r7, #28]
		    CLR_BIT(L_u32TempCCMRX , TIM1_CCMR1_OC2M_BIT1);
 8001226:	69fb      	ldr	r3, [r7, #28]
 8001228:	f423 5300 	bic.w	r3, r3, #8192	; 0x2000
 800122c:	61fb      	str	r3, [r7, #28]
		    CLR_BIT(L_u32TempCCMRX , TIM1_CCMR1_CC2S_BIT0);
 800122e:	69fb      	ldr	r3, [r7, #28]
 8001230:	f423 7380 	bic.w	r3, r3, #256	; 0x100
 8001234:	61fb      	str	r3, [r7, #28]
		    CLR_BIT(L_u32TempCCMRX , TIM1_CCMR1_CC2S_BIT1);
 8001236:	69fb      	ldr	r3, [r7, #28]
 8001238:	f423 7300 	bic.w	r3, r3, #512	; 0x200
 800123c:	61fb      	str	r3, [r7, #28]
		    L_u32TempCCMRX |= (TIM_PWM_MODE1 << 12U) ;
 800123e:	69fb      	ldr	r3, [r7, #28]
 8001240:	f443 43c0 	orr.w	r3, r3, #24576	; 0x6000
 8001244:	61fb      	str	r3, [r7, #28]
		    CLR_BIT(L_u32TempCCER , TIM1_CCER_CC2P_BIT);
 8001246:	69bb      	ldr	r3, [r7, #24]
 8001248:	f023 0320 	bic.w	r3, r3, #32
 800124c:	61bb      	str	r3, [r7, #24]
		    CLR_BIT(L_u32TempCCER , TIM1_CCER_CC2NP_BIT) ;
 800124e:	69bb      	ldr	r3, [r7, #24]
 8001250:	f023 0380 	bic.w	r3, r3, #128	; 0x80
 8001254:	61bb      	str	r3, [r7, #24]
		    CLR_BIT(L_u32TempCCER , TIM1_CCER_CC2NP_BIT) ;
 8001256:	69bb      	ldr	r3, [r7, #24]
 8001258:	f023 0380 	bic.w	r3, r3, #128	; 0x80
 800125c:	61bb      	str	r3, [r7, #24]
		    CLR_BIT(L_u32TempCCER , TIM1_CCER_CC2NE_BIT);
 800125e:	69bb      	ldr	r3, [r7, #24]
 8001260:	f023 0340 	bic.w	r3, r3, #64	; 0x40
 8001264:	61bb      	str	r3, [r7, #24]
		    CLR_BIT(L_u32TempCR2 , TIM1_CR2_OIS2_BIT);
 8001266:	697b      	ldr	r3, [r7, #20]
 8001268:	f423 6380 	bic.w	r3, r3, #1024	; 0x400
 800126c:	617b      	str	r3, [r7, #20]
		    CLR_BIT(L_u32TempCR2 , TIM1_CR2_OIS2N_BIT);
 800126e:	697b      	ldr	r3, [r7, #20]
 8001270:	f423 6300 	bic.w	r3, r3, #2048	; 0x800
 8001274:	617b      	str	r3, [r7, #20]
		    TIM_1->CR2 = L_u32TempCR2;
 8001276:	4a17      	ldr	r2, [pc, #92]	; (80012d4 <MTimer_voidPWM+0x210>)
 8001278:	697b      	ldr	r3, [r7, #20]
 800127a:	6053      	str	r3, [r2, #4]
		    TIM_1->CCMR1 = L_u32TempCCMRX;
 800127c:	4a15      	ldr	r2, [pc, #84]	; (80012d4 <MTimer_voidPWM+0x210>)
 800127e:	69fb      	ldr	r3, [r7, #28]
 8001280:	6193      	str	r3, [r2, #24]
		    TIM_1->CCR2 = A_u16CompareValue;
 8001282:	4a14      	ldr	r2, [pc, #80]	; (80012d4 <MTimer_voidPWM+0x210>)
 8001284:	88bb      	ldrh	r3, [r7, #4]
 8001286:	6393      	str	r3, [r2, #56]	; 0x38
		    TIM_1->CCER = L_u32TempCCER;
 8001288:	4a12      	ldr	r2, [pc, #72]	; (80012d4 <MTimer_voidPWM+0x210>)
 800128a:	69bb      	ldr	r3, [r7, #24]
 800128c:	6213      	str	r3, [r2, #32]
		    SET_BIT (TIM_1->CCMR1 , TIM1_CCMR1_OC2PE_BIT);
 800128e:	4b11      	ldr	r3, [pc, #68]	; (80012d4 <MTimer_voidPWM+0x210>)
 8001290:	699b      	ldr	r3, [r3, #24]
 8001292:	4a10      	ldr	r2, [pc, #64]	; (80012d4 <MTimer_voidPWM+0x210>)
 8001294:	f443 6300 	orr.w	r3, r3, #2048	; 0x800
 8001298:	6193      	str	r3, [r2, #24]
		    SET_BIT (TIM_1->CCMR1 , TIM1_CCMR1_OC2FE_BIT) ;
 800129a:	4b0e      	ldr	r3, [pc, #56]	; (80012d4 <MTimer_voidPWM+0x210>)
 800129c:	699b      	ldr	r3, [r3, #24]
 800129e:	4a0d      	ldr	r2, [pc, #52]	; (80012d4 <MTimer_voidPWM+0x210>)
 80012a0:	f443 6380 	orr.w	r3, r3, #1024	; 0x400
 80012a4:	6193      	str	r3, [r2, #24]
		    SET_BIT(TIM_1-> CCER , TIM1_CCER_CC2E_BIT) ;
 80012a6:	4b0b      	ldr	r3, [pc, #44]	; (80012d4 <MTimer_voidPWM+0x210>)
 80012a8:	6a1b      	ldr	r3, [r3, #32]
 80012aa:	4a0a      	ldr	r2, [pc, #40]	; (80012d4 <MTimer_voidPWM+0x210>)
 80012ac:	f043 0310 	orr.w	r3, r3, #16
 80012b0:	6213      	str	r3, [r2, #32]
		    SET_BIT(TIM_1 ->BDTR , TIM1_BDTR_MOE_BIT ) ;
 80012b2:	4b08      	ldr	r3, [pc, #32]	; (80012d4 <MTimer_voidPWM+0x210>)
 80012b4:	6c5b      	ldr	r3, [r3, #68]	; 0x44
 80012b6:	4a07      	ldr	r2, [pc, #28]	; (80012d4 <MTimer_voidPWM+0x210>)
 80012b8:	f443 4300 	orr.w	r3, r3, #32768	; 0x8000
 80012bc:	6453      	str	r3, [r2, #68]	; 0x44
		    SET_BIT(TIM_1 -> CR1 , TIM1_CR1_CEN_BIT) ;
 80012be:	4b05      	ldr	r3, [pc, #20]	; (80012d4 <MTimer_voidPWM+0x210>)
 80012c0:	681b      	ldr	r3, [r3, #0]
 80012c2:	4a04      	ldr	r2, [pc, #16]	; (80012d4 <MTimer_voidPWM+0x210>)
 80012c4:	f043 0301 	orr.w	r3, r3, #1
 80012c8:	6013      	str	r3, [r2, #0]
}
 80012ca:	f000 be1a 	b.w	8001f02 <MTimer_voidPWM+0xe3e>
 80012ce:	bf00      	nop
 80012d0:	200000f5 	.word	0x200000f5
 80012d4:	40012c00 	.word	0x40012c00
 80012d8:	200000f6 	.word	0x200000f6
		else if (A_u8Channel == TIM_CHANNEL_3)
 80012dc:	79bb      	ldrb	r3, [r7, #6]
 80012de:	2b03      	cmp	r3, #3
 80012e0:	d16c      	bne.n	80013bc <MTimer_voidPWM+0x2f8>
			u32 L_u32TempCCMRX = 0 ;
 80012e2:	2300      	movs	r3, #0
 80012e4:	62bb      	str	r3, [r7, #40]	; 0x28
			u32 L_u32TempCCER  = 0 ;
 80012e6:	2300      	movs	r3, #0
 80012e8:	627b      	str	r3, [r7, #36]	; 0x24
			u32 L_u32TempCR2   = 0 ;
 80012ea:	2300      	movs	r3, #0
 80012ec:	623b      	str	r3, [r7, #32]
			CLR_BIT(TIM_1->CCER , TIM1_CCER_CC3E_BIT);
 80012ee:	4b9b      	ldr	r3, [pc, #620]	; (800155c <MTimer_voidPWM+0x498>)
 80012f0:	6a1b      	ldr	r3, [r3, #32]
 80012f2:	4a9a      	ldr	r2, [pc, #616]	; (800155c <MTimer_voidPWM+0x498>)
 80012f4:	f423 7380 	bic.w	r3, r3, #256	; 0x100
 80012f8:	6213      	str	r3, [r2, #32]
			L_u32TempCCER = TIM_1->CCER;
 80012fa:	4b98      	ldr	r3, [pc, #608]	; (800155c <MTimer_voidPWM+0x498>)
 80012fc:	6a1b      	ldr	r3, [r3, #32]
 80012fe:	627b      	str	r3, [r7, #36]	; 0x24
			L_u32TempCR2 = TIM_1->CR2;
 8001300:	4b96      	ldr	r3, [pc, #600]	; (800155c <MTimer_voidPWM+0x498>)
 8001302:	685b      	ldr	r3, [r3, #4]
 8001304:	623b      	str	r3, [r7, #32]
			L_u32TempCCMRX = TIM_1->CCMR2;
 8001306:	4b95      	ldr	r3, [pc, #596]	; (800155c <MTimer_voidPWM+0x498>)
 8001308:	69db      	ldr	r3, [r3, #28]
 800130a:	62bb      	str	r3, [r7, #40]	; 0x28
			CLR_BIT(L_u32TempCCMRX , TIM1_CCMR2_OC3M_BIT0);
 800130c:	6abb      	ldr	r3, [r7, #40]	; 0x28
 800130e:	f023 0310 	bic.w	r3, r3, #16
 8001312:	62bb      	str	r3, [r7, #40]	; 0x28
			CLR_BIT(L_u32TempCCMRX , TIM1_CCMR2_OC3M_BIT1);
 8001314:	6abb      	ldr	r3, [r7, #40]	; 0x28
 8001316:	f023 0320 	bic.w	r3, r3, #32
 800131a:	62bb      	str	r3, [r7, #40]	; 0x28
			CLR_BIT(L_u32TempCCMRX , TIM1_CCMR2_CC3S_BIT0);
 800131c:	6abb      	ldr	r3, [r7, #40]	; 0x28
 800131e:	f023 0301 	bic.w	r3, r3, #1
 8001322:	62bb      	str	r3, [r7, #40]	; 0x28
			CLR_BIT(L_u32TempCCMRX , TIM1_CCMR2_CC3S_BIT1);
 8001324:	6abb      	ldr	r3, [r7, #40]	; 0x28
 8001326:	f023 0302 	bic.w	r3, r3, #2
 800132a:	62bb      	str	r3, [r7, #40]	; 0x28
			L_u32TempCCMRX |= (TIM_PWM_MODE1 << 4U);
 800132c:	6abb      	ldr	r3, [r7, #40]	; 0x28
 800132e:	f043 0360 	orr.w	r3, r3, #96	; 0x60
 8001332:	62bb      	str	r3, [r7, #40]	; 0x28
			CLR_BIT(L_u32TempCCER , TIM1_CCER_CC3P_BIT);
 8001334:	6a7b      	ldr	r3, [r7, #36]	; 0x24
 8001336:	f423 7300 	bic.w	r3, r3, #512	; 0x200
 800133a:	627b      	str	r3, [r7, #36]	; 0x24
			CLR_BIT(L_u32TempCCER , TIM1_CCER_CC3NP_BIT) ;
 800133c:	6a7b      	ldr	r3, [r7, #36]	; 0x24
 800133e:	f423 6300 	bic.w	r3, r3, #2048	; 0x800
 8001342:	627b      	str	r3, [r7, #36]	; 0x24
			CLR_BIT(L_u32TempCCER , TIM1_CCER_CC3NP_BIT) ;
 8001344:	6a7b      	ldr	r3, [r7, #36]	; 0x24
 8001346:	f423 6300 	bic.w	r3, r3, #2048	; 0x800
 800134a:	627b      	str	r3, [r7, #36]	; 0x24
			CLR_BIT(L_u32TempCCER , TIM1_CCER_CC3NE_BIT);
 800134c:	6a7b      	ldr	r3, [r7, #36]	; 0x24
 800134e:	f423 6380 	bic.w	r3, r3, #1024	; 0x400
 8001352:	627b      	str	r3, [r7, #36]	; 0x24
			CLR_BIT(L_u32TempCR2 , TIM1_CR2_OIS3_BIT);
 8001354:	6a3b      	ldr	r3, [r7, #32]
 8001356:	f423 5380 	bic.w	r3, r3, #4096	; 0x1000
 800135a:	623b      	str	r3, [r7, #32]
			CLR_BIT(L_u32TempCR2 , TIM1_CR2_OIS3N_BIT);
 800135c:	6a3b      	ldr	r3, [r7, #32]
 800135e:	f423 5300 	bic.w	r3, r3, #8192	; 0x2000
 8001362:	623b      	str	r3, [r7, #32]
			TIM_1->CR2 = L_u32TempCR2;
 8001364:	4a7d      	ldr	r2, [pc, #500]	; (800155c <MTimer_voidPWM+0x498>)
 8001366:	6a3b      	ldr	r3, [r7, #32]
 8001368:	6053      	str	r3, [r2, #4]
			TIM_1->CCMR2 = L_u32TempCCMRX;
 800136a:	4a7c      	ldr	r2, [pc, #496]	; (800155c <MTimer_voidPWM+0x498>)
 800136c:	6abb      	ldr	r3, [r7, #40]	; 0x28
 800136e:	61d3      	str	r3, [r2, #28]
			TIM_1->CCR3 = A_u16CompareValue;
 8001370:	4a7a      	ldr	r2, [pc, #488]	; (800155c <MTimer_voidPWM+0x498>)
 8001372:	88bb      	ldrh	r3, [r7, #4]
 8001374:	63d3      	str	r3, [r2, #60]	; 0x3c
			TIM_1->CCER = L_u32TempCCER;
 8001376:	4a79      	ldr	r2, [pc, #484]	; (800155c <MTimer_voidPWM+0x498>)
 8001378:	6a7b      	ldr	r3, [r7, #36]	; 0x24
 800137a:	6213      	str	r3, [r2, #32]
		    SET_BIT (TIM_1->CCMR2 , TIM1_CCMR2_OC3PE_BIT);
 800137c:	4b77      	ldr	r3, [pc, #476]	; (800155c <MTimer_voidPWM+0x498>)
 800137e:	69db      	ldr	r3, [r3, #28]
 8001380:	4a76      	ldr	r2, [pc, #472]	; (800155c <MTimer_voidPWM+0x498>)
 8001382:	f043 0308 	orr.w	r3, r3, #8
 8001386:	61d3      	str	r3, [r2, #28]
		    SET_BIT (TIM_1->CCMR2 , TIM1_CCMR2_OC3FE_BIT) ;
 8001388:	4b74      	ldr	r3, [pc, #464]	; (800155c <MTimer_voidPWM+0x498>)
 800138a:	69db      	ldr	r3, [r3, #28]
 800138c:	4a73      	ldr	r2, [pc, #460]	; (800155c <MTimer_voidPWM+0x498>)
 800138e:	f043 0304 	orr.w	r3, r3, #4
 8001392:	61d3      	str	r3, [r2, #28]
		    SET_BIT(TIM_1-> CCER , TIM1_CCER_CC3E_BIT) ;
 8001394:	4b71      	ldr	r3, [pc, #452]	; (800155c <MTimer_voidPWM+0x498>)
 8001396:	6a1b      	ldr	r3, [r3, #32]
 8001398:	4a70      	ldr	r2, [pc, #448]	; (800155c <MTimer_voidPWM+0x498>)
 800139a:	f443 7380 	orr.w	r3, r3, #256	; 0x100
 800139e:	6213      	str	r3, [r2, #32]
		    SET_BIT(TIM_1 ->BDTR , TIM1_BDTR_MOE_BIT ) ;
 80013a0:	4b6e      	ldr	r3, [pc, #440]	; (800155c <MTimer_voidPWM+0x498>)
 80013a2:	6c5b      	ldr	r3, [r3, #68]	; 0x44
 80013a4:	4a6d      	ldr	r2, [pc, #436]	; (800155c <MTimer_voidPWM+0x498>)
 80013a6:	f443 4300 	orr.w	r3, r3, #32768	; 0x8000
 80013aa:	6453      	str	r3, [r2, #68]	; 0x44
		    SET_BIT(TIM_1 -> CR1 , TIM1_CR1_CEN_BIT) ;
 80013ac:	4b6b      	ldr	r3, [pc, #428]	; (800155c <MTimer_voidPWM+0x498>)
 80013ae:	681b      	ldr	r3, [r3, #0]
 80013b0:	4a6a      	ldr	r2, [pc, #424]	; (800155c <MTimer_voidPWM+0x498>)
 80013b2:	f043 0301 	orr.w	r3, r3, #1
 80013b6:	6013      	str	r3, [r2, #0]
}
 80013b8:	f000 bda3 	b.w	8001f02 <MTimer_voidPWM+0xe3e>
		else if (A_u8Channel == TIM_CHANNEL_4)
 80013bc:	79bb      	ldrb	r3, [r7, #6]
 80013be:	2b04      	cmp	r3, #4
 80013c0:	f040 859f 	bne.w	8001f02 <MTimer_voidPWM+0xe3e>
			u32 L_u32TempCCMRX = 0 ;
 80013c4:	2300      	movs	r3, #0
 80013c6:	637b      	str	r3, [r7, #52]	; 0x34
			u32 L_u32TempCCER  = 0 ;
 80013c8:	2300      	movs	r3, #0
 80013ca:	633b      	str	r3, [r7, #48]	; 0x30
			u32 L_u32TempCR2   = 0 ;
 80013cc:	2300      	movs	r3, #0
 80013ce:	62fb      	str	r3, [r7, #44]	; 0x2c
			CLR_BIT(TIM_1->CCER , TIM1_CCER_CC4E_BIT);
 80013d0:	4b62      	ldr	r3, [pc, #392]	; (800155c <MTimer_voidPWM+0x498>)
 80013d2:	6a1b      	ldr	r3, [r3, #32]
 80013d4:	4a61      	ldr	r2, [pc, #388]	; (800155c <MTimer_voidPWM+0x498>)
 80013d6:	f423 5380 	bic.w	r3, r3, #4096	; 0x1000
 80013da:	6213      	str	r3, [r2, #32]
			L_u32TempCCER = TIM_1->CCER;
 80013dc:	4b5f      	ldr	r3, [pc, #380]	; (800155c <MTimer_voidPWM+0x498>)
 80013de:	6a1b      	ldr	r3, [r3, #32]
 80013e0:	633b      	str	r3, [r7, #48]	; 0x30
			L_u32TempCR2 = TIM_1->CR2;
 80013e2:	4b5e      	ldr	r3, [pc, #376]	; (800155c <MTimer_voidPWM+0x498>)
 80013e4:	685b      	ldr	r3, [r3, #4]
 80013e6:	62fb      	str	r3, [r7, #44]	; 0x2c
			L_u32TempCCMRX = TIM_1->CCMR2;
 80013e8:	4b5c      	ldr	r3, [pc, #368]	; (800155c <MTimer_voidPWM+0x498>)
 80013ea:	69db      	ldr	r3, [r3, #28]
 80013ec:	637b      	str	r3, [r7, #52]	; 0x34
			CLR_BIT(L_u32TempCCMRX , TIM1_CCMR1_OC2M_BIT0);
 80013ee:	6b7b      	ldr	r3, [r7, #52]	; 0x34
 80013f0:	f423 5380 	bic.w	r3, r3, #4096	; 0x1000
 80013f4:	637b      	str	r3, [r7, #52]	; 0x34
			CLR_BIT(L_u32TempCCMRX , TIM1_CCMR1_OC2M_BIT1);
 80013f6:	6b7b      	ldr	r3, [r7, #52]	; 0x34
 80013f8:	f423 5300 	bic.w	r3, r3, #8192	; 0x2000
 80013fc:	637b      	str	r3, [r7, #52]	; 0x34
			CLR_BIT(L_u32TempCCMRX , TIM1_CCMR1_CC2S_BIT0);
 80013fe:	6b7b      	ldr	r3, [r7, #52]	; 0x34
 8001400:	f423 7380 	bic.w	r3, r3, #256	; 0x100
 8001404:	637b      	str	r3, [r7, #52]	; 0x34
			CLR_BIT(L_u32TempCCMRX , TIM1_CCMR1_CC2S_BIT1);
 8001406:	6b7b      	ldr	r3, [r7, #52]	; 0x34
 8001408:	f423 7300 	bic.w	r3, r3, #512	; 0x200
 800140c:	637b      	str	r3, [r7, #52]	; 0x34
			L_u32TempCCMRX |= (TIM_PWM_MODE1 << 12U) ;
 800140e:	6b7b      	ldr	r3, [r7, #52]	; 0x34
 8001410:	f443 43c0 	orr.w	r3, r3, #24576	; 0x6000
 8001414:	637b      	str	r3, [r7, #52]	; 0x34
			CLR_BIT(L_u32TempCCER , TIM1_CCER_CC4P_BIT);
 8001416:	6b3b      	ldr	r3, [r7, #48]	; 0x30
 8001418:	f423 5300 	bic.w	r3, r3, #8192	; 0x2000
 800141c:	633b      	str	r3, [r7, #48]	; 0x30
			CLR_BIT(L_u32TempCR2 , TIM1_CR2_OIS4_BIT);
 800141e:	6afb      	ldr	r3, [r7, #44]	; 0x2c
 8001420:	f423 4380 	bic.w	r3, r3, #16384	; 0x4000
 8001424:	62fb      	str	r3, [r7, #44]	; 0x2c
			TIM_1->CR2 = L_u32TempCR2;
 8001426:	4a4d      	ldr	r2, [pc, #308]	; (800155c <MTimer_voidPWM+0x498>)
 8001428:	6afb      	ldr	r3, [r7, #44]	; 0x2c
 800142a:	6053      	str	r3, [r2, #4]
			TIM_1->CCMR2 = L_u32TempCCMRX;
 800142c:	4a4b      	ldr	r2, [pc, #300]	; (800155c <MTimer_voidPWM+0x498>)
 800142e:	6b7b      	ldr	r3, [r7, #52]	; 0x34
 8001430:	61d3      	str	r3, [r2, #28]
			TIM_1->CCR4 = A_u16CompareValue;
 8001432:	4a4a      	ldr	r2, [pc, #296]	; (800155c <MTimer_voidPWM+0x498>)
 8001434:	88bb      	ldrh	r3, [r7, #4]
 8001436:	6413      	str	r3, [r2, #64]	; 0x40
			TIM_1->CCER = L_u32TempCCER;
 8001438:	4a48      	ldr	r2, [pc, #288]	; (800155c <MTimer_voidPWM+0x498>)
 800143a:	6b3b      	ldr	r3, [r7, #48]	; 0x30
 800143c:	6213      	str	r3, [r2, #32]
			SET_BIT (TIM_1->CCMR2 , TIM1_CCMR2_OC4PE_BIT);
 800143e:	4b47      	ldr	r3, [pc, #284]	; (800155c <MTimer_voidPWM+0x498>)
 8001440:	69db      	ldr	r3, [r3, #28]
 8001442:	4a46      	ldr	r2, [pc, #280]	; (800155c <MTimer_voidPWM+0x498>)
 8001444:	f443 6300 	orr.w	r3, r3, #2048	; 0x800
 8001448:	61d3      	str	r3, [r2, #28]
			SET_BIT (TIM_1->CCMR2 , TIM1_CCMR2_OC4FE_BIT) ;
 800144a:	4b44      	ldr	r3, [pc, #272]	; (800155c <MTimer_voidPWM+0x498>)
 800144c:	69db      	ldr	r3, [r3, #28]
 800144e:	4a43      	ldr	r2, [pc, #268]	; (800155c <MTimer_voidPWM+0x498>)
 8001450:	f443 6380 	orr.w	r3, r3, #1024	; 0x400
 8001454:	61d3      	str	r3, [r2, #28]
			SET_BIT(TIM_1-> CCER , TIM1_CCER_CC4E_BIT) ;
 8001456:	4b41      	ldr	r3, [pc, #260]	; (800155c <MTimer_voidPWM+0x498>)
 8001458:	6a1b      	ldr	r3, [r3, #32]
 800145a:	4a40      	ldr	r2, [pc, #256]	; (800155c <MTimer_voidPWM+0x498>)
 800145c:	f443 5380 	orr.w	r3, r3, #4096	; 0x1000
 8001460:	6213      	str	r3, [r2, #32]
			SET_BIT(TIM_1 ->BDTR , TIM1_BDTR_MOE_BIT ) ;
 8001462:	4b3e      	ldr	r3, [pc, #248]	; (800155c <MTimer_voidPWM+0x498>)
 8001464:	6c5b      	ldr	r3, [r3, #68]	; 0x44
 8001466:	4a3d      	ldr	r2, [pc, #244]	; (800155c <MTimer_voidPWM+0x498>)
 8001468:	f443 4300 	orr.w	r3, r3, #32768	; 0x8000
 800146c:	6453      	str	r3, [r2, #68]	; 0x44
			SET_BIT(TIM_1 -> CR1 , TIM1_CR1_CEN_BIT) ;
 800146e:	4b3b      	ldr	r3, [pc, #236]	; (800155c <MTimer_voidPWM+0x498>)
 8001470:	681b      	ldr	r3, [r3, #0]
 8001472:	4a3a      	ldr	r2, [pc, #232]	; (800155c <MTimer_voidPWM+0x498>)
 8001474:	f043 0301 	orr.w	r3, r3, #1
 8001478:	6013      	str	r3, [r2, #0]
}
 800147a:	f000 bd42 	b.w	8001f02 <MTimer_voidPWM+0xe3e>
	else if (A_u8TimerSelected == TIM2_TYPE)
 800147e:	79fb      	ldrb	r3, [r7, #7]
 8001480:	2b02      	cmp	r3, #2
 8001482:	f040 81a9 	bne.w	80017d8 <MTimer_voidPWM+0x714>
		if (A_u8Channel == TIM_CHANNEL_1)
 8001486:	79bb      	ldrb	r3, [r7, #6]
 8001488:	2b01      	cmp	r3, #1
 800148a:	d169      	bne.n	8001560 <MTimer_voidPWM+0x49c>
			u32 L_u32TempCCMRX = 0 ;
 800148c:	2300      	movs	r3, #0
 800148e:	643b      	str	r3, [r7, #64]	; 0x40
			u32 L_u32TempCCER  = 0 ;
 8001490:	2300      	movs	r3, #0
 8001492:	63fb      	str	r3, [r7, #60]	; 0x3c
			u32 L_u32TempCR2   = 0 ;
 8001494:	2300      	movs	r3, #0
 8001496:	63bb      	str	r3, [r7, #56]	; 0x38
			CLR_BIT(TIM_2->CCER , TIM2_TO_TIM5_CCER_CC1E_BIT) ;
 8001498:	f04f 4380 	mov.w	r3, #1073741824	; 0x40000000
 800149c:	6a1b      	ldr	r3, [r3, #32]
 800149e:	f04f 4280 	mov.w	r2, #1073741824	; 0x40000000
 80014a2:	f023 0301 	bic.w	r3, r3, #1
 80014a6:	6213      	str	r3, [r2, #32]
			L_u32TempCCMRX = TIM_2->CCER;
 80014a8:	f04f 4380 	mov.w	r3, #1073741824	; 0x40000000
 80014ac:	6a1b      	ldr	r3, [r3, #32]
 80014ae:	643b      	str	r3, [r7, #64]	; 0x40
			L_u32TempCR2 = TIM_2->CR2;
 80014b0:	f04f 4380 	mov.w	r3, #1073741824	; 0x40000000
 80014b4:	685b      	ldr	r3, [r3, #4]
 80014b6:	63bb      	str	r3, [r7, #56]	; 0x38
			L_u32TempCCMRX = TIM_2->CCMR1;
 80014b8:	f04f 4380 	mov.w	r3, #1073741824	; 0x40000000
 80014bc:	699b      	ldr	r3, [r3, #24]
 80014be:	643b      	str	r3, [r7, #64]	; 0x40
			CLR_BIT(L_u32TempCCMRX , TIM2_TO_TIM5_CCMR1_OC1M_BIT0) ;
 80014c0:	6c3b      	ldr	r3, [r7, #64]	; 0x40
 80014c2:	f023 0310 	bic.w	r3, r3, #16
 80014c6:	643b      	str	r3, [r7, #64]	; 0x40
			CLR_BIT(L_u32TempCCMRX , TIM2_TO_TIM5_CCMR1_OC1M_BIT1) ;
 80014c8:	6c3b      	ldr	r3, [r7, #64]	; 0x40
 80014ca:	f023 0320 	bic.w	r3, r3, #32
 80014ce:	643b      	str	r3, [r7, #64]	; 0x40
			CLR_BIT(L_u32TempCCMRX , TIM2_TO_TIM5_CCMR1_OC1M_BIT2) ;
 80014d0:	6c3b      	ldr	r3, [r7, #64]	; 0x40
 80014d2:	f023 0340 	bic.w	r3, r3, #64	; 0x40
 80014d6:	643b      	str	r3, [r7, #64]	; 0x40
			CLR_BIT(L_u32TempCCMRX , TIM2_TO_TIM5_CCMR1_CC1S_BIT0) ;
 80014d8:	6c3b      	ldr	r3, [r7, #64]	; 0x40
 80014da:	f023 0301 	bic.w	r3, r3, #1
 80014de:	643b      	str	r3, [r7, #64]	; 0x40
			CLR_BIT(L_u32TempCCMRX , TIM2_TO_TIM5_CCMR1_CC1S_BIT1) ;
 80014e0:	6c3b      	ldr	r3, [r7, #64]	; 0x40
 80014e2:	f023 0302 	bic.w	r3, r3, #2
 80014e6:	643b      	str	r3, [r7, #64]	; 0x40
			L_u32TempCCMRX |= (TIM_PWM_MODE1 << 4U) ;
 80014e8:	6c3b      	ldr	r3, [r7, #64]	; 0x40
 80014ea:	f043 0360 	orr.w	r3, r3, #96	; 0x60
 80014ee:	643b      	str	r3, [r7, #64]	; 0x40
			CLR_BIT(L_u32TempCCER , TIM2_TO_TIM5_CCER_CC1P_BIT);
 80014f0:	6bfb      	ldr	r3, [r7, #60]	; 0x3c
 80014f2:	f023 0302 	bic.w	r3, r3, #2
 80014f6:	63fb      	str	r3, [r7, #60]	; 0x3c
			TIM_2->CR2 = L_u32TempCR2;
 80014f8:	f04f 4280 	mov.w	r2, #1073741824	; 0x40000000
 80014fc:	6bbb      	ldr	r3, [r7, #56]	; 0x38
 80014fe:	6053      	str	r3, [r2, #4]
			TIM_2->CCMR1 = L_u32TempCCMRX;
 8001500:	f04f 4280 	mov.w	r2, #1073741824	; 0x40000000
 8001504:	6c3b      	ldr	r3, [r7, #64]	; 0x40
 8001506:	6193      	str	r3, [r2, #24]
			TIM_2->CCR1 = A_u16CompareValue;
 8001508:	f04f 4280 	mov.w	r2, #1073741824	; 0x40000000
 800150c:	88bb      	ldrh	r3, [r7, #4]
 800150e:	6353      	str	r3, [r2, #52]	; 0x34
			TIM_2->CCER = L_u32TempCCER;
 8001510:	f04f 4280 	mov.w	r2, #1073741824	; 0x40000000
 8001514:	6bfb      	ldr	r3, [r7, #60]	; 0x3c
 8001516:	6213      	str	r3, [r2, #32]
			SET_BIT (TIM_2->CCMR1 , TIM2_TO_TIM5_CCMR1_OC1PE_BIT);
 8001518:	f04f 4380 	mov.w	r3, #1073741824	; 0x40000000
 800151c:	699b      	ldr	r3, [r3, #24]
 800151e:	f04f 4280 	mov.w	r2, #1073741824	; 0x40000000
 8001522:	f043 0308 	orr.w	r3, r3, #8
 8001526:	6193      	str	r3, [r2, #24]
			SET_BIT (TIM_2->CCMR1 , TIM2_TO_TIM5_CCMR1_OC1FE_BIT) ;
 8001528:	f04f 4380 	mov.w	r3, #1073741824	; 0x40000000
 800152c:	699b      	ldr	r3, [r3, #24]
 800152e:	f04f 4280 	mov.w	r2, #1073741824	; 0x40000000
 8001532:	f043 0304 	orr.w	r3, r3, #4
 8001536:	6193      	str	r3, [r2, #24]
			SET_BIT(TIM_2-> CCER , TIM2_TO_TIM5_CCER_CC1E_BIT) ;
 8001538:	f04f 4380 	mov.w	r3, #1073741824	; 0x40000000
 800153c:	6a1b      	ldr	r3, [r3, #32]
 800153e:	f04f 4280 	mov.w	r2, #1073741824	; 0x40000000
 8001542:	f043 0301 	orr.w	r3, r3, #1
 8001546:	6213      	str	r3, [r2, #32]
			SET_BIT(TIM_2 -> CR1 , TIM2_TO_TIM5_CR1_CEN_BIT) ;
 8001548:	f04f 4380 	mov.w	r3, #1073741824	; 0x40000000
 800154c:	681b      	ldr	r3, [r3, #0]
 800154e:	f04f 4280 	mov.w	r2, #1073741824	; 0x40000000
 8001552:	f043 0301 	orr.w	r3, r3, #1
 8001556:	6013      	str	r3, [r2, #0]
}
 8001558:	f000 bcd3 	b.w	8001f02 <MTimer_voidPWM+0xe3e>
 800155c:	40012c00 	.word	0x40012c00
		else if (A_u8Channel == TIM_CHANNEL_2)
 8001560:	79bb      	ldrb	r3, [r7, #6]
 8001562:	2b02      	cmp	r3, #2
 8001564:	d167      	bne.n	8001636 <MTimer_voidPWM+0x572>
			u32 L_u32TempCCMRX = 0 ;
 8001566:	2300      	movs	r3, #0
 8001568:	64fb      	str	r3, [r7, #76]	; 0x4c
			u32 L_u32TempCCER  = 0 ;
 800156a:	2300      	movs	r3, #0
 800156c:	64bb      	str	r3, [r7, #72]	; 0x48
		    u32 L_u32TempCR2   = 0 ;
 800156e:	2300      	movs	r3, #0
 8001570:	647b      	str	r3, [r7, #68]	; 0x44
		    CLR_BIT(TIM_2->CCER , TIM2_TO_TIM5_CCER_CC2E_BIT);
 8001572:	f04f 4380 	mov.w	r3, #1073741824	; 0x40000000
 8001576:	6a1b      	ldr	r3, [r3, #32]
 8001578:	f04f 4280 	mov.w	r2, #1073741824	; 0x40000000
 800157c:	f023 0310 	bic.w	r3, r3, #16
 8001580:	6213      	str	r3, [r2, #32]
		    L_u32TempCCER = TIM_2->CCER;
 8001582:	f04f 4380 	mov.w	r3, #1073741824	; 0x40000000
 8001586:	6a1b      	ldr	r3, [r3, #32]
 8001588:	64bb      	str	r3, [r7, #72]	; 0x48
		    L_u32TempCR2 = TIM_2->CR2;
 800158a:	f04f 4380 	mov.w	r3, #1073741824	; 0x40000000
 800158e:	685b      	ldr	r3, [r3, #4]
 8001590:	647b      	str	r3, [r7, #68]	; 0x44
		    L_u32TempCCMRX = TIM_2->CCMR1;
 8001592:	f04f 4380 	mov.w	r3, #1073741824	; 0x40000000
 8001596:	699b      	ldr	r3, [r3, #24]
 8001598:	64fb      	str	r3, [r7, #76]	; 0x4c
		    CLR_BIT(L_u32TempCCMRX , TIM2_TO_TIM5_CCMR1_OC2M_BIT0);
 800159a:	6cfb      	ldr	r3, [r7, #76]	; 0x4c
 800159c:	f423 5380 	bic.w	r3, r3, #4096	; 0x1000
 80015a0:	64fb      	str	r3, [r7, #76]	; 0x4c
		    CLR_BIT(L_u32TempCCMRX , TIM2_TO_TIM5_CCMR1_OC2M_BIT1);
 80015a2:	6cfb      	ldr	r3, [r7, #76]	; 0x4c
 80015a4:	f423 5300 	bic.w	r3, r3, #8192	; 0x2000
 80015a8:	64fb      	str	r3, [r7, #76]	; 0x4c
		    CLR_BIT(L_u32TempCCMRX , TIM2_TO_TIM5_CCMR1_CC2S_BIT0);
 80015aa:	6cfb      	ldr	r3, [r7, #76]	; 0x4c
 80015ac:	f423 7380 	bic.w	r3, r3, #256	; 0x100
 80015b0:	64fb      	str	r3, [r7, #76]	; 0x4c
		    CLR_BIT(L_u32TempCCMRX , TIM2_TO_TIM5_CCMR1_CC2S_BIT1);
 80015b2:	6cfb      	ldr	r3, [r7, #76]	; 0x4c
 80015b4:	f423 7300 	bic.w	r3, r3, #512	; 0x200
 80015b8:	64fb      	str	r3, [r7, #76]	; 0x4c
		    L_u32TempCCMRX |= (TIM_PWM_MODE1 << 12U) ;
 80015ba:	6cfb      	ldr	r3, [r7, #76]	; 0x4c
 80015bc:	f443 43c0 	orr.w	r3, r3, #24576	; 0x6000
 80015c0:	64fb      	str	r3, [r7, #76]	; 0x4c
		    CLR_BIT(L_u32TempCCER , TIM2_TO_TIM5_CCER_CC2P_BIT);
 80015c2:	6cbb      	ldr	r3, [r7, #72]	; 0x48
 80015c4:	f023 0320 	bic.w	r3, r3, #32
 80015c8:	64bb      	str	r3, [r7, #72]	; 0x48
		    CLR_BIT(L_u32TempCCER , TIM2_TO_TIM5_CCER_CC2NP_BIT) ;
 80015ca:	6cbb      	ldr	r3, [r7, #72]	; 0x48
 80015cc:	f023 0380 	bic.w	r3, r3, #128	; 0x80
 80015d0:	64bb      	str	r3, [r7, #72]	; 0x48
		    TIM_2->CR2 = L_u32TempCR2;
 80015d2:	f04f 4280 	mov.w	r2, #1073741824	; 0x40000000
 80015d6:	6c7b      	ldr	r3, [r7, #68]	; 0x44
 80015d8:	6053      	str	r3, [r2, #4]
		    TIM_2->CCMR1 = L_u32TempCCMRX;
 80015da:	f04f 4280 	mov.w	r2, #1073741824	; 0x40000000
 80015de:	6cfb      	ldr	r3, [r7, #76]	; 0x4c
 80015e0:	6193      	str	r3, [r2, #24]
		    TIM_2->CCR2 = A_u16CompareValue;
 80015e2:	f04f 4280 	mov.w	r2, #1073741824	; 0x40000000
 80015e6:	88bb      	ldrh	r3, [r7, #4]
 80015e8:	6393      	str	r3, [r2, #56]	; 0x38
		    TIM_2->CCER = L_u32TempCCER;
 80015ea:	f04f 4280 	mov.w	r2, #1073741824	; 0x40000000
 80015ee:	6cbb      	ldr	r3, [r7, #72]	; 0x48
 80015f0:	6213      	str	r3, [r2, #32]
		    SET_BIT (TIM_2->CCMR1 , TIM2_TO_TIM5_CCMR1_OC2PE_BIT);
 80015f2:	f04f 4380 	mov.w	r3, #1073741824	; 0x40000000
 80015f6:	699b      	ldr	r3, [r3, #24]
 80015f8:	f04f 4280 	mov.w	r2, #1073741824	; 0x40000000
 80015fc:	f443 6300 	orr.w	r3, r3, #2048	; 0x800
 8001600:	6193      	str	r3, [r2, #24]
		    SET_BIT (TIM_2->CCMR1 , TIM2_TO_TIM5_CCMR1_OC2FE_BIT) ;
 8001602:	f04f 4380 	mov.w	r3, #1073741824	; 0x40000000
 8001606:	699b      	ldr	r3, [r3, #24]
 8001608:	f04f 4280 	mov.w	r2, #1073741824	; 0x40000000
 800160c:	f443 6380 	orr.w	r3, r3, #1024	; 0x400
 8001610:	6193      	str	r3, [r2, #24]
		    SET_BIT(TIM_2-> CCER , TIM2_TO_TIM5_CCER_CC2E_BIT) ;
 8001612:	f04f 4380 	mov.w	r3, #1073741824	; 0x40000000
 8001616:	6a1b      	ldr	r3, [r3, #32]
 8001618:	f04f 4280 	mov.w	r2, #1073741824	; 0x40000000
 800161c:	f043 0310 	orr.w	r3, r3, #16
 8001620:	6213      	str	r3, [r2, #32]
		    SET_BIT(TIM_2 -> CR1 , TIM2_TO_TIM5_CR1_CEN_BIT) ;
 8001622:	f04f 4380 	mov.w	r3, #1073741824	; 0x40000000
 8001626:	681b      	ldr	r3, [r3, #0]
 8001628:	f04f 4280 	mov.w	r2, #1073741824	; 0x40000000
 800162c:	f043 0301 	orr.w	r3, r3, #1
 8001630:	6013      	str	r3, [r2, #0]
}
 8001632:	f000 bc66 	b.w	8001f02 <MTimer_voidPWM+0xe3e>
		else if (A_u8Channel == TIM_CHANNEL_3)
 8001636:	79bb      	ldrb	r3, [r7, #6]
 8001638:	2b03      	cmp	r3, #3
 800163a:	d166      	bne.n	800170a <MTimer_voidPWM+0x646>
			u32 L_u32TempCCMRX = 0 ;
 800163c:	2300      	movs	r3, #0
 800163e:	65bb      	str	r3, [r7, #88]	; 0x58
			u32 L_u32TempCCER  = 0 ;
 8001640:	2300      	movs	r3, #0
 8001642:	657b      	str	r3, [r7, #84]	; 0x54
			u32 L_u32TempCR2   = 0 ;
 8001644:	2300      	movs	r3, #0
 8001646:	653b      	str	r3, [r7, #80]	; 0x50
			CLR_BIT(TIM_2->CCER , TIM2_TO_TIM5_CCER_CC3E_BIT);
 8001648:	f04f 4380 	mov.w	r3, #1073741824	; 0x40000000
 800164c:	6a1b      	ldr	r3, [r3, #32]
 800164e:	f04f 4280 	mov.w	r2, #1073741824	; 0x40000000
 8001652:	f423 7380 	bic.w	r3, r3, #256	; 0x100
 8001656:	6213      	str	r3, [r2, #32]
			L_u32TempCCER = TIM_2->CCER;
 8001658:	f04f 4380 	mov.w	r3, #1073741824	; 0x40000000
 800165c:	6a1b      	ldr	r3, [r3, #32]
 800165e:	657b      	str	r3, [r7, #84]	; 0x54
			L_u32TempCR2 = TIM_2->CR2;
 8001660:	f04f 4380 	mov.w	r3, #1073741824	; 0x40000000
 8001664:	685b      	ldr	r3, [r3, #4]
 8001666:	653b      	str	r3, [r7, #80]	; 0x50
			L_u32TempCCMRX = TIM_2->CCMR2;
 8001668:	f04f 4380 	mov.w	r3, #1073741824	; 0x40000000
 800166c:	69db      	ldr	r3, [r3, #28]
 800166e:	65bb      	str	r3, [r7, #88]	; 0x58
			CLR_BIT(L_u32TempCCMRX , TIM2_TO_TIM5_CCMR2_OC3M_BIT0);
 8001670:	6dbb      	ldr	r3, [r7, #88]	; 0x58
 8001672:	f023 0310 	bic.w	r3, r3, #16
 8001676:	65bb      	str	r3, [r7, #88]	; 0x58
			CLR_BIT(L_u32TempCCMRX , TIM2_TO_TIM5_CCMR2_OC3M_BIT1);
 8001678:	6dbb      	ldr	r3, [r7, #88]	; 0x58
 800167a:	f023 0320 	bic.w	r3, r3, #32
 800167e:	65bb      	str	r3, [r7, #88]	; 0x58
			CLR_BIT(L_u32TempCCMRX , TIM2_TO_TIM5_CCMR2_CC3S_BIT0);
 8001680:	6dbb      	ldr	r3, [r7, #88]	; 0x58
 8001682:	f023 0301 	bic.w	r3, r3, #1
 8001686:	65bb      	str	r3, [r7, #88]	; 0x58
			CLR_BIT(L_u32TempCCMRX , TIM2_TO_TIM5_CCMR2_CC3S_BIT1);
 8001688:	6dbb      	ldr	r3, [r7, #88]	; 0x58
 800168a:	f023 0302 	bic.w	r3, r3, #2
 800168e:	65bb      	str	r3, [r7, #88]	; 0x58
			L_u32TempCCMRX |= (TIM_PWM_MODE1 << 4U) ;
 8001690:	6dbb      	ldr	r3, [r7, #88]	; 0x58
 8001692:	f043 0360 	orr.w	r3, r3, #96	; 0x60
 8001696:	65bb      	str	r3, [r7, #88]	; 0x58
			CLR_BIT(L_u32TempCCER , TIM2_TO_TIM5_CCER_CC3P_BIT);
 8001698:	6d7b      	ldr	r3, [r7, #84]	; 0x54
 800169a:	f423 7300 	bic.w	r3, r3, #512	; 0x200
 800169e:	657b      	str	r3, [r7, #84]	; 0x54
			CLR_BIT(L_u32TempCCER , TIM2_TO_TIM5_CCER_CC3NP_BIT) ;
 80016a0:	6d7b      	ldr	r3, [r7, #84]	; 0x54
 80016a2:	f423 6300 	bic.w	r3, r3, #2048	; 0x800
 80016a6:	657b      	str	r3, [r7, #84]	; 0x54
			TIM_2->CR2 = L_u32TempCR2;
 80016a8:	f04f 4280 	mov.w	r2, #1073741824	; 0x40000000
 80016ac:	6d3b      	ldr	r3, [r7, #80]	; 0x50
 80016ae:	6053      	str	r3, [r2, #4]
			TIM_2->CCMR2 = L_u32TempCCMRX;
 80016b0:	f04f 4280 	mov.w	r2, #1073741824	; 0x40000000
 80016b4:	6dbb      	ldr	r3, [r7, #88]	; 0x58
 80016b6:	61d3      	str	r3, [r2, #28]
			TIM_2->CCR3 = A_u16CompareValue;
 80016b8:	f04f 4280 	mov.w	r2, #1073741824	; 0x40000000
 80016bc:	88bb      	ldrh	r3, [r7, #4]
 80016be:	63d3      	str	r3, [r2, #60]	; 0x3c
			TIM_2->CCER = L_u32TempCCER;
 80016c0:	f04f 4280 	mov.w	r2, #1073741824	; 0x40000000
 80016c4:	6d7b      	ldr	r3, [r7, #84]	; 0x54
 80016c6:	6213      	str	r3, [r2, #32]
			SET_BIT (TIM_2->CCMR2 , TIM2_TO_TIM5_CCMR2_OC3PE_BIT);
 80016c8:	f04f 4380 	mov.w	r3, #1073741824	; 0x40000000
 80016cc:	69db      	ldr	r3, [r3, #28]
 80016ce:	f04f 4280 	mov.w	r2, #1073741824	; 0x40000000
 80016d2:	f043 0308 	orr.w	r3, r3, #8
 80016d6:	61d3      	str	r3, [r2, #28]
			SET_BIT (TIM_2->CCMR2 , TIM2_TO_TIM5_CCMR2_OC3FE_BIT) ;
 80016d8:	f04f 4380 	mov.w	r3, #1073741824	; 0x40000000
 80016dc:	69db      	ldr	r3, [r3, #28]
 80016de:	f04f 4280 	mov.w	r2, #1073741824	; 0x40000000
 80016e2:	f043 0304 	orr.w	r3, r3, #4
 80016e6:	61d3      	str	r3, [r2, #28]
			SET_BIT(TIM_2-> CCER , TIM2_TO_TIM5_CCER_CC3E_BIT) ;
 80016e8:	f04f 4380 	mov.w	r3, #1073741824	; 0x40000000
 80016ec:	6a1b      	ldr	r3, [r3, #32]
 80016ee:	f04f 4280 	mov.w	r2, #1073741824	; 0x40000000
 80016f2:	f443 7380 	orr.w	r3, r3, #256	; 0x100
 80016f6:	6213      	str	r3, [r2, #32]
			SET_BIT(TIM_2 -> CR1 , TIM2_TO_TIM5_CR1_CEN_BIT) ;
 80016f8:	f04f 4380 	mov.w	r3, #1073741824	; 0x40000000
 80016fc:	681b      	ldr	r3, [r3, #0]
 80016fe:	f04f 4280 	mov.w	r2, #1073741824	; 0x40000000
 8001702:	f043 0301 	orr.w	r3, r3, #1
 8001706:	6013      	str	r3, [r2, #0]
}
 8001708:	e3fb      	b.n	8001f02 <MTimer_voidPWM+0xe3e>
		else if (A_u8Channel == TIM_CHANNEL_4)
 800170a:	79bb      	ldrb	r3, [r7, #6]
 800170c:	2b04      	cmp	r3, #4
 800170e:	f040 83f8 	bne.w	8001f02 <MTimer_voidPWM+0xe3e>
			u32 L_u32TempCCMRX = 0 ;
 8001712:	2300      	movs	r3, #0
 8001714:	667b      	str	r3, [r7, #100]	; 0x64
			u32 L_u32TempCCER  = 0 ;
 8001716:	2300      	movs	r3, #0
 8001718:	663b      	str	r3, [r7, #96]	; 0x60
			u32 L_u32TempCR2   = 0 ;
 800171a:	2300      	movs	r3, #0
 800171c:	65fb      	str	r3, [r7, #92]	; 0x5c
			CLR_BIT(TIM_2->CCER , TIM2_TO_TIM5_CCER_CC4E_BIT);
 800171e:	f04f 4380 	mov.w	r3, #1073741824	; 0x40000000
 8001722:	6a1b      	ldr	r3, [r3, #32]
 8001724:	f04f 4280 	mov.w	r2, #1073741824	; 0x40000000
 8001728:	f423 5380 	bic.w	r3, r3, #4096	; 0x1000
 800172c:	6213      	str	r3, [r2, #32]
			L_u32TempCCER = TIM_2->CCER;
 800172e:	f04f 4380 	mov.w	r3, #1073741824	; 0x40000000
 8001732:	6a1b      	ldr	r3, [r3, #32]
 8001734:	663b      	str	r3, [r7, #96]	; 0x60
			L_u32TempCR2 = TIM_2->CR2;
 8001736:	f04f 4380 	mov.w	r3, #1073741824	; 0x40000000
 800173a:	685b      	ldr	r3, [r3, #4]
 800173c:	65fb      	str	r3, [r7, #92]	; 0x5c
			L_u32TempCCMRX = TIM_2->CCMR2;
 800173e:	f04f 4380 	mov.w	r3, #1073741824	; 0x40000000
 8001742:	69db      	ldr	r3, [r3, #28]
 8001744:	667b      	str	r3, [r7, #100]	; 0x64
			CLR_BIT(L_u32TempCCMRX , TIM2_TO_TIM5_CCMR2_OC4M_BIT0);
 8001746:	6e7b      	ldr	r3, [r7, #100]	; 0x64
 8001748:	f423 5380 	bic.w	r3, r3, #4096	; 0x1000
 800174c:	667b      	str	r3, [r7, #100]	; 0x64
			CLR_BIT(L_u32TempCCMRX , TIM2_TO_TIM5_CCMR2_OC4M_BIT1);
 800174e:	6e7b      	ldr	r3, [r7, #100]	; 0x64
 8001750:	f423 5300 	bic.w	r3, r3, #8192	; 0x2000
 8001754:	667b      	str	r3, [r7, #100]	; 0x64
			CLR_BIT(L_u32TempCCMRX , TIM2_TO_TIM5_CCMR2_CC4S_BIT0);
 8001756:	6e7b      	ldr	r3, [r7, #100]	; 0x64
 8001758:	f423 7380 	bic.w	r3, r3, #256	; 0x100
 800175c:	667b      	str	r3, [r7, #100]	; 0x64
			CLR_BIT(L_u32TempCCMRX , TIM2_TO_TIM5_CCMR2_CC4S_BIT1);
 800175e:	6e7b      	ldr	r3, [r7, #100]	; 0x64
 8001760:	f423 7300 	bic.w	r3, r3, #512	; 0x200
 8001764:	667b      	str	r3, [r7, #100]	; 0x64
			L_u32TempCCMRX |= (TIM_PWM_MODE1 << 12U) ;
 8001766:	6e7b      	ldr	r3, [r7, #100]	; 0x64
 8001768:	f443 43c0 	orr.w	r3, r3, #24576	; 0x6000
 800176c:	667b      	str	r3, [r7, #100]	; 0x64
			CLR_BIT(L_u32TempCCER , TIM2_TO_TIM5_CCER_CC4P_BIT);
 800176e:	6e3b      	ldr	r3, [r7, #96]	; 0x60
 8001770:	f423 5300 	bic.w	r3, r3, #8192	; 0x2000
 8001774:	663b      	str	r3, [r7, #96]	; 0x60
			TIM_2->CR2 = L_u32TempCR2;
 8001776:	f04f 4280 	mov.w	r2, #1073741824	; 0x40000000
 800177a:	6dfb      	ldr	r3, [r7, #92]	; 0x5c
 800177c:	6053      	str	r3, [r2, #4]
			TIM_2->CCMR2 = L_u32TempCCMRX;
 800177e:	f04f 4280 	mov.w	r2, #1073741824	; 0x40000000
 8001782:	6e7b      	ldr	r3, [r7, #100]	; 0x64
 8001784:	61d3      	str	r3, [r2, #28]
			TIM_2->CCR4 = A_u16CompareValue;
 8001786:	f04f 4280 	mov.w	r2, #1073741824	; 0x40000000
 800178a:	88bb      	ldrh	r3, [r7, #4]
 800178c:	6413      	str	r3, [r2, #64]	; 0x40
			TIM_2->CCER = L_u32TempCCER;
 800178e:	f04f 4280 	mov.w	r2, #1073741824	; 0x40000000
 8001792:	6e3b      	ldr	r3, [r7, #96]	; 0x60
 8001794:	6213      	str	r3, [r2, #32]
			SET_BIT (TIM_2->CCMR2 , TIM2_TO_TIM5_CCMR2_OC4PE_BIT);
 8001796:	f04f 4380 	mov.w	r3, #1073741824	; 0x40000000
 800179a:	69db      	ldr	r3, [r3, #28]
 800179c:	f04f 4280 	mov.w	r2, #1073741824	; 0x40000000
 80017a0:	f443 6300 	orr.w	r3, r3, #2048	; 0x800
 80017a4:	61d3      	str	r3, [r2, #28]
			SET_BIT (TIM_2->CCMR2 , TIM2_TO_TIM5_CCMR2_OC4FE_BIT) ;
 80017a6:	f04f 4380 	mov.w	r3, #1073741824	; 0x40000000
 80017aa:	69db      	ldr	r3, [r3, #28]
 80017ac:	f04f 4280 	mov.w	r2, #1073741824	; 0x40000000
 80017b0:	f443 6380 	orr.w	r3, r3, #1024	; 0x400
 80017b4:	61d3      	str	r3, [r2, #28]
			SET_BIT(TIM_2-> CCER , TIM2_TO_TIM5_CCER_CC4E_BIT) ;
 80017b6:	f04f 4380 	mov.w	r3, #1073741824	; 0x40000000
 80017ba:	6a1b      	ldr	r3, [r3, #32]
 80017bc:	f04f 4280 	mov.w	r2, #1073741824	; 0x40000000
 80017c0:	f443 5380 	orr.w	r3, r3, #4096	; 0x1000
 80017c4:	6213      	str	r3, [r2, #32]
			SET_BIT(TIM_2 -> CR1 , TIM2_TO_TIM5_CR1_CEN_BIT) ;
 80017c6:	f04f 4380 	mov.w	r3, #1073741824	; 0x40000000
 80017ca:	681b      	ldr	r3, [r3, #0]
 80017cc:	f04f 4280 	mov.w	r2, #1073741824	; 0x40000000
 80017d0:	f043 0301 	orr.w	r3, r3, #1
 80017d4:	6013      	str	r3, [r2, #0]
}
 80017d6:	e394      	b.n	8001f02 <MTimer_voidPWM+0xe3e>
	else if (A_u8TimerSelected == TIM3_TYPE)
 80017d8:	79fb      	ldrb	r3, [r7, #7]
 80017da:	2b03      	cmp	r3, #3
 80017dc:	f040 81d1 	bne.w	8001b82 <MTimer_voidPWM+0xabe>
		if (A_u8Channel == TIM_CHANNEL_1)
 80017e0:	79bb      	ldrb	r3, [r7, #6]
 80017e2:	2b01      	cmp	r3, #1
 80017e4:	d166      	bne.n	80018b4 <MTimer_voidPWM+0x7f0>
			u32 L_u32TempCCMRX = 0 ;
 80017e6:	2300      	movs	r3, #0
 80017e8:	673b      	str	r3, [r7, #112]	; 0x70
			u32 L_u32TempCCER  = 0 ;
 80017ea:	2300      	movs	r3, #0
 80017ec:	66fb      	str	r3, [r7, #108]	; 0x6c
			u32 L_u32TempCR2   = 0 ;
 80017ee:	2300      	movs	r3, #0
 80017f0:	66bb      	str	r3, [r7, #104]	; 0x68
			CLR_BIT(TIM_3->CCER , TIM2_TO_TIM5_CCER_CC1E_BIT) ;
 80017f2:	f04f 2340 	mov.w	r3, #1073758208	; 0x40004000
 80017f6:	6a1b      	ldr	r3, [r3, #32]
 80017f8:	f04f 2240 	mov.w	r2, #1073758208	; 0x40004000
 80017fc:	f023 0301 	bic.w	r3, r3, #1
 8001800:	6213      	str	r3, [r2, #32]
			L_u32TempCCMRX = TIM_3->CCER;
 8001802:	f04f 2340 	mov.w	r3, #1073758208	; 0x40004000
 8001806:	6a1b      	ldr	r3, [r3, #32]
 8001808:	673b      	str	r3, [r7, #112]	; 0x70
			L_u32TempCR2 = TIM_3->CR2;
 800180a:	f04f 2340 	mov.w	r3, #1073758208	; 0x40004000
 800180e:	685b      	ldr	r3, [r3, #4]
 8001810:	66bb      	str	r3, [r7, #104]	; 0x68
			L_u32TempCCMRX = TIM_3->CCMR1;
 8001812:	f04f 2340 	mov.w	r3, #1073758208	; 0x40004000
 8001816:	699b      	ldr	r3, [r3, #24]
 8001818:	673b      	str	r3, [r7, #112]	; 0x70
			CLR_BIT(L_u32TempCCMRX , TIM2_TO_TIM5_CCMR1_OC1M_BIT0) ;
 800181a:	6f3b      	ldr	r3, [r7, #112]	; 0x70
 800181c:	f023 0310 	bic.w	r3, r3, #16
 8001820:	673b      	str	r3, [r7, #112]	; 0x70
			CLR_BIT(L_u32TempCCMRX , TIM2_TO_TIM5_CCMR1_OC1M_BIT1) ;
 8001822:	6f3b      	ldr	r3, [r7, #112]	; 0x70
 8001824:	f023 0320 	bic.w	r3, r3, #32
 8001828:	673b      	str	r3, [r7, #112]	; 0x70
			CLR_BIT(L_u32TempCCMRX , TIM2_TO_TIM5_CCMR1_OC1M_BIT2) ;
 800182a:	6f3b      	ldr	r3, [r7, #112]	; 0x70
 800182c:	f023 0340 	bic.w	r3, r3, #64	; 0x40
 8001830:	673b      	str	r3, [r7, #112]	; 0x70
			CLR_BIT(L_u32TempCCMRX , TIM2_TO_TIM5_CCMR1_CC1S_BIT0) ;
 8001832:	6f3b      	ldr	r3, [r7, #112]	; 0x70
 8001834:	f023 0301 	bic.w	r3, r3, #1
 8001838:	673b      	str	r3, [r7, #112]	; 0x70
			CLR_BIT(L_u32TempCCMRX , TIM2_TO_TIM5_CCMR1_CC1S_BIT1) ;
 800183a:	6f3b      	ldr	r3, [r7, #112]	; 0x70
 800183c:	f023 0302 	bic.w	r3, r3, #2
 8001840:	673b      	str	r3, [r7, #112]	; 0x70
			L_u32TempCCMRX |= (TIM_PWM_MODE1 << 4U) ;
 8001842:	6f3b      	ldr	r3, [r7, #112]	; 0x70
 8001844:	f043 0360 	orr.w	r3, r3, #96	; 0x60
 8001848:	673b      	str	r3, [r7, #112]	; 0x70
			CLR_BIT(L_u32TempCCER , TIM2_TO_TIM5_CCER_CC1P_BIT);
 800184a:	6efb      	ldr	r3, [r7, #108]	; 0x6c
 800184c:	f023 0302 	bic.w	r3, r3, #2
 8001850:	66fb      	str	r3, [r7, #108]	; 0x6c
			TIM_3->CR2 = L_u32TempCR2;
 8001852:	f04f 2240 	mov.w	r2, #1073758208	; 0x40004000
 8001856:	6ebb      	ldr	r3, [r7, #104]	; 0x68
 8001858:	6053      	str	r3, [r2, #4]
			TIM_3->CCMR1 = L_u32TempCCMRX;
 800185a:	f04f 2240 	mov.w	r2, #1073758208	; 0x40004000
 800185e:	6f3b      	ldr	r3, [r7, #112]	; 0x70
 8001860:	6193      	str	r3, [r2, #24]
			TIM_3->CCR1 = A_u16CompareValue;
 8001862:	f04f 2240 	mov.w	r2, #1073758208	; 0x40004000
 8001866:	88bb      	ldrh	r3, [r7, #4]
 8001868:	6353      	str	r3, [r2, #52]	; 0x34
			TIM_3->CCER = L_u32TempCCER;
 800186a:	f04f 2240 	mov.w	r2, #1073758208	; 0x40004000
 800186e:	6efb      	ldr	r3, [r7, #108]	; 0x6c
 8001870:	6213      	str	r3, [r2, #32]
			SET_BIT (TIM_3->CCMR1 , TIM2_TO_TIM5_CCMR1_OC1PE_BIT);
 8001872:	f04f 2340 	mov.w	r3, #1073758208	; 0x40004000
 8001876:	699b      	ldr	r3, [r3, #24]
 8001878:	f04f 2240 	mov.w	r2, #1073758208	; 0x40004000
 800187c:	f043 0308 	orr.w	r3, r3, #8
 8001880:	6193      	str	r3, [r2, #24]
			SET_BIT (TIM_3->CCMR1 , TIM2_TO_TIM5_CCMR1_OC1FE_BIT) ;
 8001882:	f04f 2340 	mov.w	r3, #1073758208	; 0x40004000
 8001886:	699b      	ldr	r3, [r3, #24]
 8001888:	f04f 2240 	mov.w	r2, #1073758208	; 0x40004000
 800188c:	f043 0304 	orr.w	r3, r3, #4
 8001890:	6193      	str	r3, [r2, #24]
			SET_BIT(TIM_3-> CCER , TIM2_TO_TIM5_CCER_CC1E_BIT) ;
 8001892:	f04f 2340 	mov.w	r3, #1073758208	; 0x40004000
 8001896:	6a1b      	ldr	r3, [r3, #32]
 8001898:	f04f 2240 	mov.w	r2, #1073758208	; 0x40004000
 800189c:	f043 0301 	orr.w	r3, r3, #1
 80018a0:	6213      	str	r3, [r2, #32]
			SET_BIT(TIM_3 -> CR1 , TIM2_TO_TIM5_CR1_CEN_BIT) ;
 80018a2:	f04f 2340 	mov.w	r3, #1073758208	; 0x40004000
 80018a6:	681b      	ldr	r3, [r3, #0]
 80018a8:	f04f 2240 	mov.w	r2, #1073758208	; 0x40004000
 80018ac:	f043 0301 	orr.w	r3, r3, #1
 80018b0:	6013      	str	r3, [r2, #0]
}
 80018b2:	e326      	b.n	8001f02 <MTimer_voidPWM+0xe3e>
		else if (A_u8Channel == TIM_CHANNEL_2)
 80018b4:	79bb      	ldrb	r3, [r7, #6]
 80018b6:	2b02      	cmp	r3, #2
 80018b8:	d166      	bne.n	8001988 <MTimer_voidPWM+0x8c4>
			u32 L_u32TempCCMRX = 0 ;
 80018ba:	2300      	movs	r3, #0
 80018bc:	67fb      	str	r3, [r7, #124]	; 0x7c
			u32 L_u32TempCCER  = 0 ;
 80018be:	2300      	movs	r3, #0
 80018c0:	67bb      	str	r3, [r7, #120]	; 0x78
		    u32 L_u32TempCR2   = 0 ;
 80018c2:	2300      	movs	r3, #0
 80018c4:	677b      	str	r3, [r7, #116]	; 0x74
		    CLR_BIT(TIM_3->CCER , TIM2_TO_TIM5_CCER_CC2E_BIT);
 80018c6:	f04f 2340 	mov.w	r3, #1073758208	; 0x40004000
 80018ca:	6a1b      	ldr	r3, [r3, #32]
 80018cc:	f04f 2240 	mov.w	r2, #1073758208	; 0x40004000
 80018d0:	f023 0310 	bic.w	r3, r3, #16
 80018d4:	6213      	str	r3, [r2, #32]
		    L_u32TempCCER = TIM_3->CCER;
 80018d6:	f04f 2340 	mov.w	r3, #1073758208	; 0x40004000
 80018da:	6a1b      	ldr	r3, [r3, #32]
 80018dc:	67bb      	str	r3, [r7, #120]	; 0x78
		    L_u32TempCR2 = TIM_3->CR2;
 80018de:	f04f 2340 	mov.w	r3, #1073758208	; 0x40004000
 80018e2:	685b      	ldr	r3, [r3, #4]
 80018e4:	677b      	str	r3, [r7, #116]	; 0x74
		    L_u32TempCCMRX = TIM_3->CCMR1;
 80018e6:	f04f 2340 	mov.w	r3, #1073758208	; 0x40004000
 80018ea:	699b      	ldr	r3, [r3, #24]
 80018ec:	67fb      	str	r3, [r7, #124]	; 0x7c
		    CLR_BIT(L_u32TempCCMRX , TIM2_TO_TIM5_CCMR1_OC2M_BIT0);
 80018ee:	6ffb      	ldr	r3, [r7, #124]	; 0x7c
 80018f0:	f423 5380 	bic.w	r3, r3, #4096	; 0x1000
 80018f4:	67fb      	str	r3, [r7, #124]	; 0x7c
		    CLR_BIT(L_u32TempCCMRX , TIM2_TO_TIM5_CCMR1_OC2M_BIT1);
 80018f6:	6ffb      	ldr	r3, [r7, #124]	; 0x7c
 80018f8:	f423 5300 	bic.w	r3, r3, #8192	; 0x2000
 80018fc:	67fb      	str	r3, [r7, #124]	; 0x7c
		    CLR_BIT(L_u32TempCCMRX , TIM2_TO_TIM5_CCMR1_CC2S_BIT0);
 80018fe:	6ffb      	ldr	r3, [r7, #124]	; 0x7c
 8001900:	f423 7380 	bic.w	r3, r3, #256	; 0x100
 8001904:	67fb      	str	r3, [r7, #124]	; 0x7c
		    CLR_BIT(L_u32TempCCMRX , TIM2_TO_TIM5_CCMR1_CC2S_BIT1);
 8001906:	6ffb      	ldr	r3, [r7, #124]	; 0x7c
 8001908:	f423 7300 	bic.w	r3, r3, #512	; 0x200
 800190c:	67fb      	str	r3, [r7, #124]	; 0x7c
		    L_u32TempCCMRX |= (TIM_PWM_MODE1 << 12U) ;
 800190e:	6ffb      	ldr	r3, [r7, #124]	; 0x7c
 8001910:	f443 43c0 	orr.w	r3, r3, #24576	; 0x6000
 8001914:	67fb      	str	r3, [r7, #124]	; 0x7c
		    CLR_BIT(L_u32TempCCER , TIM2_TO_TIM5_CCER_CC2P_BIT);
 8001916:	6fbb      	ldr	r3, [r7, #120]	; 0x78
 8001918:	f023 0320 	bic.w	r3, r3, #32
 800191c:	67bb      	str	r3, [r7, #120]	; 0x78
		    CLR_BIT(L_u32TempCCER , TIM2_TO_TIM5_CCER_CC2NP_BIT) ;
 800191e:	6fbb      	ldr	r3, [r7, #120]	; 0x78
 8001920:	f023 0380 	bic.w	r3, r3, #128	; 0x80
 8001924:	67bb      	str	r3, [r7, #120]	; 0x78
		    TIM_3->CR2 = L_u32TempCR2;
 8001926:	f04f 2240 	mov.w	r2, #1073758208	; 0x40004000
 800192a:	6f7b      	ldr	r3, [r7, #116]	; 0x74
 800192c:	6053      	str	r3, [r2, #4]
		    TIM_3->CCMR1 = L_u32TempCCMRX;
 800192e:	f04f 2240 	mov.w	r2, #1073758208	; 0x40004000
 8001932:	6ffb      	ldr	r3, [r7, #124]	; 0x7c
 8001934:	6193      	str	r3, [r2, #24]
		    TIM_3->CCR2 = A_u16CompareValue;
 8001936:	f04f 2240 	mov.w	r2, #1073758208	; 0x40004000
 800193a:	88bb      	ldrh	r3, [r7, #4]
 800193c:	6393      	str	r3, [r2, #56]	; 0x38
		    TIM_3->CCER = L_u32TempCCER;
 800193e:	f04f 2240 	mov.w	r2, #1073758208	; 0x40004000
 8001942:	6fbb      	ldr	r3, [r7, #120]	; 0x78
 8001944:	6213      	str	r3, [r2, #32]
		    SET_BIT (TIM_3->CCMR1 , TIM2_TO_TIM5_CCMR1_OC2PE_BIT);
 8001946:	f04f 2340 	mov.w	r3, #1073758208	; 0x40004000
 800194a:	699b      	ldr	r3, [r3, #24]
 800194c:	f04f 2240 	mov.w	r2, #1073758208	; 0x40004000
 8001950:	f443 6300 	orr.w	r3, r3, #2048	; 0x800
 8001954:	6193      	str	r3, [r2, #24]
		    SET_BIT (TIM_3->CCMR1 , TIM2_TO_TIM5_CCMR1_OC2FE_BIT) ;
 8001956:	f04f 2340 	mov.w	r3, #1073758208	; 0x40004000
 800195a:	699b      	ldr	r3, [r3, #24]
 800195c:	f04f 2240 	mov.w	r2, #1073758208	; 0x40004000
 8001960:	f443 6380 	orr.w	r3, r3, #1024	; 0x400
 8001964:	6193      	str	r3, [r2, #24]
		    SET_BIT(TIM_3-> CCER , TIM2_TO_TIM5_CCER_CC2E_BIT) ;
 8001966:	f04f 2340 	mov.w	r3, #1073758208	; 0x40004000
 800196a:	6a1b      	ldr	r3, [r3, #32]
 800196c:	f04f 2240 	mov.w	r2, #1073758208	; 0x40004000
 8001970:	f043 0310 	orr.w	r3, r3, #16
 8001974:	6213      	str	r3, [r2, #32]
		    SET_BIT(TIM_3 -> CR1 , TIM2_TO_TIM5_CR1_CEN_BIT) ;
 8001976:	f04f 2340 	mov.w	r3, #1073758208	; 0x40004000
 800197a:	681b      	ldr	r3, [r3, #0]
 800197c:	f04f 2240 	mov.w	r2, #1073758208	; 0x40004000
 8001980:	f043 0301 	orr.w	r3, r3, #1
 8001984:	6013      	str	r3, [r2, #0]
}
 8001986:	e2bc      	b.n	8001f02 <MTimer_voidPWM+0xe3e>
		else if (A_u8Channel == TIM_CHANNEL_3)
 8001988:	79bb      	ldrb	r3, [r7, #6]
 800198a:	2b03      	cmp	r3, #3
 800198c:	d17d      	bne.n	8001a8a <MTimer_voidPWM+0x9c6>
			u32 L_u32TempCCMRX = 0 ;
 800198e:	2300      	movs	r3, #0
 8001990:	f8c7 3088 	str.w	r3, [r7, #136]	; 0x88
			u32 L_u32TempCCER  = 0 ;
 8001994:	2300      	movs	r3, #0
 8001996:	f8c7 3084 	str.w	r3, [r7, #132]	; 0x84
			u32 L_u32TempCR2   = 0 ;
 800199a:	2300      	movs	r3, #0
 800199c:	f8c7 3080 	str.w	r3, [r7, #128]	; 0x80
            CLR_BIT(TIM_3->CCER , TIM2_TO_TIM5_CCER_CC3E_BIT);
 80019a0:	f04f 2340 	mov.w	r3, #1073758208	; 0x40004000
 80019a4:	6a1b      	ldr	r3, [r3, #32]
 80019a6:	f04f 2240 	mov.w	r2, #1073758208	; 0x40004000
 80019aa:	f423 7380 	bic.w	r3, r3, #256	; 0x100
 80019ae:	6213      	str	r3, [r2, #32]
			L_u32TempCCER = TIM_3->CCER;
 80019b0:	f04f 2340 	mov.w	r3, #1073758208	; 0x40004000
 80019b4:	6a1b      	ldr	r3, [r3, #32]
 80019b6:	f8c7 3084 	str.w	r3, [r7, #132]	; 0x84
			L_u32TempCR2 = TIM_3->CR2;
 80019ba:	f04f 2340 	mov.w	r3, #1073758208	; 0x40004000
 80019be:	685b      	ldr	r3, [r3, #4]
 80019c0:	f8c7 3080 	str.w	r3, [r7, #128]	; 0x80
			L_u32TempCCMRX = TIM_3->CCMR2;
 80019c4:	f04f 2340 	mov.w	r3, #1073758208	; 0x40004000
 80019c8:	69db      	ldr	r3, [r3, #28]
 80019ca:	f8c7 3088 	str.w	r3, [r7, #136]	; 0x88
			CLR_BIT(L_u32TempCCMRX , TIM2_TO_TIM5_CCMR2_OC3M_BIT0);
 80019ce:	f8d7 3088 	ldr.w	r3, [r7, #136]	; 0x88
 80019d2:	f023 0310 	bic.w	r3, r3, #16
 80019d6:	f8c7 3088 	str.w	r3, [r7, #136]	; 0x88
			CLR_BIT(L_u32TempCCMRX , TIM2_TO_TIM5_CCMR2_OC3M_BIT1);
 80019da:	f8d7 3088 	ldr.w	r3, [r7, #136]	; 0x88
 80019de:	f023 0320 	bic.w	r3, r3, #32
 80019e2:	f8c7 3088 	str.w	r3, [r7, #136]	; 0x88
			CLR_BIT(L_u32TempCCMRX , TIM2_TO_TIM5_CCMR2_CC3S_BIT0);
 80019e6:	f8d7 3088 	ldr.w	r3, [r7, #136]	; 0x88
 80019ea:	f023 0301 	bic.w	r3, r3, #1
 80019ee:	f8c7 3088 	str.w	r3, [r7, #136]	; 0x88
			CLR_BIT(L_u32TempCCMRX , TIM2_TO_TIM5_CCMR2_CC3S_BIT1);
 80019f2:	f8d7 3088 	ldr.w	r3, [r7, #136]	; 0x88
 80019f6:	f023 0302 	bic.w	r3, r3, #2
 80019fa:	f8c7 3088 	str.w	r3, [r7, #136]	; 0x88
			L_u32TempCCMRX |= (TIM_PWM_MODE1 <<4U) ;
 80019fe:	f8d7 3088 	ldr.w	r3, [r7, #136]	; 0x88
 8001a02:	f043 0360 	orr.w	r3, r3, #96	; 0x60
 8001a06:	f8c7 3088 	str.w	r3, [r7, #136]	; 0x88
			CLR_BIT(L_u32TempCCER , TIM2_TO_TIM5_CCER_CC3P_BIT);
 8001a0a:	f8d7 3084 	ldr.w	r3, [r7, #132]	; 0x84
 8001a0e:	f423 7300 	bic.w	r3, r3, #512	; 0x200
 8001a12:	f8c7 3084 	str.w	r3, [r7, #132]	; 0x84
			CLR_BIT(L_u32TempCCER , TIM2_TO_TIM5_CCER_CC3NP_BIT) ;
 8001a16:	f8d7 3084 	ldr.w	r3, [r7, #132]	; 0x84
 8001a1a:	f423 6300 	bic.w	r3, r3, #2048	; 0x800
 8001a1e:	f8c7 3084 	str.w	r3, [r7, #132]	; 0x84
			TIM_3->CR2 = L_u32TempCR2;
 8001a22:	f04f 2240 	mov.w	r2, #1073758208	; 0x40004000
 8001a26:	f8d7 3080 	ldr.w	r3, [r7, #128]	; 0x80
 8001a2a:	6053      	str	r3, [r2, #4]
			TIM_3->CCMR2 = L_u32TempCCMRX;
 8001a2c:	f04f 2240 	mov.w	r2, #1073758208	; 0x40004000
 8001a30:	f8d7 3088 	ldr.w	r3, [r7, #136]	; 0x88
 8001a34:	61d3      	str	r3, [r2, #28]
			TIM_3->CCR3 = A_u16CompareValue;
 8001a36:	f04f 2240 	mov.w	r2, #1073758208	; 0x40004000
 8001a3a:	88bb      	ldrh	r3, [r7, #4]
 8001a3c:	63d3      	str	r3, [r2, #60]	; 0x3c
			TIM_3->CCER = L_u32TempCCER;
 8001a3e:	f04f 2240 	mov.w	r2, #1073758208	; 0x40004000
 8001a42:	f8d7 3084 	ldr.w	r3, [r7, #132]	; 0x84
 8001a46:	6213      	str	r3, [r2, #32]
			SET_BIT (TIM_3->CCMR2 , TIM2_TO_TIM5_CCMR2_OC3PE_BIT);
 8001a48:	f04f 2340 	mov.w	r3, #1073758208	; 0x40004000
 8001a4c:	69db      	ldr	r3, [r3, #28]
 8001a4e:	f04f 2240 	mov.w	r2, #1073758208	; 0x40004000
 8001a52:	f043 0308 	orr.w	r3, r3, #8
 8001a56:	61d3      	str	r3, [r2, #28]
			SET_BIT (TIM_3->CCMR2 , TIM2_TO_TIM5_CCMR2_OC3FE_BIT) ;
 8001a58:	f04f 2340 	mov.w	r3, #1073758208	; 0x40004000
 8001a5c:	69db      	ldr	r3, [r3, #28]
 8001a5e:	f04f 2240 	mov.w	r2, #1073758208	; 0x40004000
 8001a62:	f043 0304 	orr.w	r3, r3, #4
 8001a66:	61d3      	str	r3, [r2, #28]
			SET_BIT(TIM_3-> CCER , TIM2_TO_TIM5_CCER_CC3E_BIT) ;
 8001a68:	f04f 2340 	mov.w	r3, #1073758208	; 0x40004000
 8001a6c:	6a1b      	ldr	r3, [r3, #32]
 8001a6e:	f04f 2240 	mov.w	r2, #1073758208	; 0x40004000
 8001a72:	f443 7380 	orr.w	r3, r3, #256	; 0x100
 8001a76:	6213      	str	r3, [r2, #32]
			SET_BIT(TIM_3 -> CR1 , TIM2_TO_TIM5_CR1_CEN_BIT) ;
 8001a78:	f04f 2340 	mov.w	r3, #1073758208	; 0x40004000
 8001a7c:	681b      	ldr	r3, [r3, #0]
 8001a7e:	f04f 2240 	mov.w	r2, #1073758208	; 0x40004000
 8001a82:	f043 0301 	orr.w	r3, r3, #1
 8001a86:	6013      	str	r3, [r2, #0]
}
 8001a88:	e23b      	b.n	8001f02 <MTimer_voidPWM+0xe3e>
		else if (A_u8Channel == TIM_CHANNEL_4)
 8001a8a:	79bb      	ldrb	r3, [r7, #6]
 8001a8c:	2b04      	cmp	r3, #4
 8001a8e:	f040 8238 	bne.w	8001f02 <MTimer_voidPWM+0xe3e>
			u32 L_u32TempCCMRX = 0 ;
 8001a92:	2300      	movs	r3, #0
 8001a94:	f8c7 3094 	str.w	r3, [r7, #148]	; 0x94
			u32 L_u32TempCCER  = 0 ;
 8001a98:	2300      	movs	r3, #0
 8001a9a:	f8c7 3090 	str.w	r3, [r7, #144]	; 0x90
			u32 L_u32TempCR2   = 0 ;
 8001a9e:	2300      	movs	r3, #0
 8001aa0:	f8c7 308c 	str.w	r3, [r7, #140]	; 0x8c
			CLR_BIT(TIM_3->CCER , TIM2_TO_TIM5_CCER_CC4E_BIT);
 8001aa4:	f04f 2340 	mov.w	r3, #1073758208	; 0x40004000
 8001aa8:	6a1b      	ldr	r3, [r3, #32]
 8001aaa:	f04f 2240 	mov.w	r2, #1073758208	; 0x40004000
 8001aae:	f423 5380 	bic.w	r3, r3, #4096	; 0x1000
 8001ab2:	6213      	str	r3, [r2, #32]
			L_u32TempCCER = TIM_3->CCER;
 8001ab4:	f04f 2340 	mov.w	r3, #1073758208	; 0x40004000
 8001ab8:	6a1b      	ldr	r3, [r3, #32]
 8001aba:	f8c7 3090 	str.w	r3, [r7, #144]	; 0x90
			L_u32TempCR2 = TIM_3->CR2;
 8001abe:	f04f 2340 	mov.w	r3, #1073758208	; 0x40004000
 8001ac2:	685b      	ldr	r3, [r3, #4]
 8001ac4:	f8c7 308c 	str.w	r3, [r7, #140]	; 0x8c
			L_u32TempCCMRX = TIM_3->CCMR2;
 8001ac8:	f04f 2340 	mov.w	r3, #1073758208	; 0x40004000
 8001acc:	69db      	ldr	r3, [r3, #28]
 8001ace:	f8c7 3094 	str.w	r3, [r7, #148]	; 0x94
			CLR_BIT(L_u32TempCCMRX , TIM2_TO_TIM5_CCMR1_OC2M_BIT0);
 8001ad2:	f8d7 3094 	ldr.w	r3, [r7, #148]	; 0x94
 8001ad6:	f423 5380 	bic.w	r3, r3, #4096	; 0x1000
 8001ada:	f8c7 3094 	str.w	r3, [r7, #148]	; 0x94
			CLR_BIT(L_u32TempCCMRX , TIM2_TO_TIM5_CCMR1_OC2M_BIT1);
 8001ade:	f8d7 3094 	ldr.w	r3, [r7, #148]	; 0x94
 8001ae2:	f423 5300 	bic.w	r3, r3, #8192	; 0x2000
 8001ae6:	f8c7 3094 	str.w	r3, [r7, #148]	; 0x94
			CLR_BIT(L_u32TempCCMRX , TIM2_TO_TIM5_CCMR1_CC2S_BIT0);
 8001aea:	f8d7 3094 	ldr.w	r3, [r7, #148]	; 0x94
 8001aee:	f423 7380 	bic.w	r3, r3, #256	; 0x100
 8001af2:	f8c7 3094 	str.w	r3, [r7, #148]	; 0x94
			CLR_BIT(L_u32TempCCMRX , TIM2_TO_TIM5_CCMR1_CC2S_BIT1);
 8001af6:	f8d7 3094 	ldr.w	r3, [r7, #148]	; 0x94
 8001afa:	f423 7300 	bic.w	r3, r3, #512	; 0x200
 8001afe:	f8c7 3094 	str.w	r3, [r7, #148]	; 0x94
			L_u32TempCCMRX |= (TIM_PWM_MODE1 << 12U) ;
 8001b02:	f8d7 3094 	ldr.w	r3, [r7, #148]	; 0x94
 8001b06:	f443 43c0 	orr.w	r3, r3, #24576	; 0x6000
 8001b0a:	f8c7 3094 	str.w	r3, [r7, #148]	; 0x94
			CLR_BIT(L_u32TempCCER , TIM2_TO_TIM5_CCER_CC4P_BIT);
 8001b0e:	f8d7 3090 	ldr.w	r3, [r7, #144]	; 0x90
 8001b12:	f423 5300 	bic.w	r3, r3, #8192	; 0x2000
 8001b16:	f8c7 3090 	str.w	r3, [r7, #144]	; 0x90
			TIM_3->CR2 = L_u32TempCR2;
 8001b1a:	f04f 2240 	mov.w	r2, #1073758208	; 0x40004000
 8001b1e:	f8d7 308c 	ldr.w	r3, [r7, #140]	; 0x8c
 8001b22:	6053      	str	r3, [r2, #4]
			TIM_3->CCMR2 = L_u32TempCCMRX;
 8001b24:	f04f 2240 	mov.w	r2, #1073758208	; 0x40004000
 8001b28:	f8d7 3094 	ldr.w	r3, [r7, #148]	; 0x94
 8001b2c:	61d3      	str	r3, [r2, #28]
			TIM_3->CCR4 = A_u16CompareValue;
 8001b2e:	f04f 2240 	mov.w	r2, #1073758208	; 0x40004000
 8001b32:	88bb      	ldrh	r3, [r7, #4]
 8001b34:	6413      	str	r3, [r2, #64]	; 0x40
			TIM_3->CCER = L_u32TempCCER;
 8001b36:	f04f 2240 	mov.w	r2, #1073758208	; 0x40004000
 8001b3a:	f8d7 3090 	ldr.w	r3, [r7, #144]	; 0x90
 8001b3e:	6213      	str	r3, [r2, #32]
			SET_BIT (TIM_3->CCMR2 , TIM2_TO_TIM5_CCMR2_OC4PE_BIT);
 8001b40:	f04f 2340 	mov.w	r3, #1073758208	; 0x40004000
 8001b44:	69db      	ldr	r3, [r3, #28]
 8001b46:	f04f 2240 	mov.w	r2, #1073758208	; 0x40004000
 8001b4a:	f443 6300 	orr.w	r3, r3, #2048	; 0x800
 8001b4e:	61d3      	str	r3, [r2, #28]
			SET_BIT (TIM_3->CCMR2 , TIM2_TO_TIM5_CCMR2_OC4FE_BIT) ;
 8001b50:	f04f 2340 	mov.w	r3, #1073758208	; 0x40004000
 8001b54:	69db      	ldr	r3, [r3, #28]
 8001b56:	f04f 2240 	mov.w	r2, #1073758208	; 0x40004000
 8001b5a:	f443 6380 	orr.w	r3, r3, #1024	; 0x400
 8001b5e:	61d3      	str	r3, [r2, #28]
			SET_BIT(TIM_3-> CCER , TIM2_TO_TIM5_CCER_CC4E_BIT) ;
 8001b60:	f04f 2340 	mov.w	r3, #1073758208	; 0x40004000
 8001b64:	6a1b      	ldr	r3, [r3, #32]
 8001b66:	f04f 2240 	mov.w	r2, #1073758208	; 0x40004000
 8001b6a:	f443 5380 	orr.w	r3, r3, #4096	; 0x1000
 8001b6e:	6213      	str	r3, [r2, #32]
			SET_BIT(TIM_3 -> CR1 , TIM2_TO_TIM5_CR1_CEN_BIT) ;
 8001b70:	f04f 2340 	mov.w	r3, #1073758208	; 0x40004000
 8001b74:	681b      	ldr	r3, [r3, #0]
 8001b76:	f04f 2240 	mov.w	r2, #1073758208	; 0x40004000
 8001b7a:	f043 0301 	orr.w	r3, r3, #1
 8001b7e:	6013      	str	r3, [r2, #0]
}
 8001b80:	e1bf      	b.n	8001f02 <MTimer_voidPWM+0xe3e>
	else if (A_u8TimerSelected == TIM4_TYPE)
 8001b82:	79fb      	ldrb	r3, [r7, #7]
 8001b84:	2b04      	cmp	r3, #4
 8001b86:	f040 81bc 	bne.w	8001f02 <MTimer_voidPWM+0xe3e>
		if (A_u8Channel == TIM_CHANNEL_1)
 8001b8a:	79bb      	ldrb	r3, [r7, #6]
 8001b8c:	2b01      	cmp	r3, #1
 8001b8e:	d16c      	bne.n	8001c6a <MTimer_voidPWM+0xba6>
			u32 L_u32TempCCMRX = 0 ;
 8001b90:	2300      	movs	r3, #0
 8001b92:	f8c7 30a0 	str.w	r3, [r7, #160]	; 0xa0
			u32 L_u32TempCCER  = 0 ;
 8001b96:	2300      	movs	r3, #0
 8001b98:	f8c7 309c 	str.w	r3, [r7, #156]	; 0x9c
			u32 L_u32TempCR2   = 0 ;
 8001b9c:	2300      	movs	r3, #0
 8001b9e:	f8c7 3098 	str.w	r3, [r7, #152]	; 0x98
			CLR_BIT(TIM_4->CCER , TIM2_TO_TIM5_CCER_CC1E_BIT) ;
 8001ba2:	4ba2      	ldr	r3, [pc, #648]	; (8001e2c <MTimer_voidPWM+0xd68>)
 8001ba4:	6a1b      	ldr	r3, [r3, #32]
 8001ba6:	4aa1      	ldr	r2, [pc, #644]	; (8001e2c <MTimer_voidPWM+0xd68>)
 8001ba8:	f023 0301 	bic.w	r3, r3, #1
 8001bac:	6213      	str	r3, [r2, #32]
			L_u32TempCCMRX = TIM_4->CCER;
 8001bae:	4b9f      	ldr	r3, [pc, #636]	; (8001e2c <MTimer_voidPWM+0xd68>)
 8001bb0:	6a1b      	ldr	r3, [r3, #32]
 8001bb2:	f8c7 30a0 	str.w	r3, [r7, #160]	; 0xa0
			L_u32TempCR2 = TIM_4->CR2;
 8001bb6:	4b9d      	ldr	r3, [pc, #628]	; (8001e2c <MTimer_voidPWM+0xd68>)
 8001bb8:	685b      	ldr	r3, [r3, #4]
 8001bba:	f8c7 3098 	str.w	r3, [r7, #152]	; 0x98
			L_u32TempCCMRX = TIM_4->CCMR1;
 8001bbe:	4b9b      	ldr	r3, [pc, #620]	; (8001e2c <MTimer_voidPWM+0xd68>)
 8001bc0:	699b      	ldr	r3, [r3, #24]
 8001bc2:	f8c7 30a0 	str.w	r3, [r7, #160]	; 0xa0
			CLR_BIT(L_u32TempCCMRX , TIM2_TO_TIM5_CCMR1_OC1M_BIT0) ;
 8001bc6:	f8d7 30a0 	ldr.w	r3, [r7, #160]	; 0xa0
 8001bca:	f023 0310 	bic.w	r3, r3, #16
 8001bce:	f8c7 30a0 	str.w	r3, [r7, #160]	; 0xa0
			CLR_BIT(L_u32TempCCMRX , TIM2_TO_TIM5_CCMR1_OC1M_BIT1) ;
 8001bd2:	f8d7 30a0 	ldr.w	r3, [r7, #160]	; 0xa0
 8001bd6:	f023 0320 	bic.w	r3, r3, #32
 8001bda:	f8c7 30a0 	str.w	r3, [r7, #160]	; 0xa0
			CLR_BIT(L_u32TempCCMRX , TIM2_TO_TIM5_CCMR1_OC1M_BIT2) ;
 8001bde:	f8d7 30a0 	ldr.w	r3, [r7, #160]	; 0xa0
 8001be2:	f023 0340 	bic.w	r3, r3, #64	; 0x40
 8001be6:	f8c7 30a0 	str.w	r3, [r7, #160]	; 0xa0
			CLR_BIT(L_u32TempCCMRX , TIM2_TO_TIM5_CCMR1_CC1S_BIT0) ;
 8001bea:	f8d7 30a0 	ldr.w	r3, [r7, #160]	; 0xa0
 8001bee:	f023 0301 	bic.w	r3, r3, #1
 8001bf2:	f8c7 30a0 	str.w	r3, [r7, #160]	; 0xa0
			CLR_BIT(L_u32TempCCMRX , TIM2_TO_TIM5_CCMR1_CC1S_BIT1) ;
 8001bf6:	f8d7 30a0 	ldr.w	r3, [r7, #160]	; 0xa0
 8001bfa:	f023 0302 	bic.w	r3, r3, #2
 8001bfe:	f8c7 30a0 	str.w	r3, [r7, #160]	; 0xa0
			L_u32TempCCMRX |= (TIM_PWM_MODE1 << 4U) ;
 8001c02:	f8d7 30a0 	ldr.w	r3, [r7, #160]	; 0xa0
 8001c06:	f043 0360 	orr.w	r3, r3, #96	; 0x60
 8001c0a:	f8c7 30a0 	str.w	r3, [r7, #160]	; 0xa0
			CLR_BIT(L_u32TempCCER , TIM2_TO_TIM5_CCER_CC1P_BIT);
 8001c0e:	f8d7 309c 	ldr.w	r3, [r7, #156]	; 0x9c
 8001c12:	f023 0302 	bic.w	r3, r3, #2
 8001c16:	f8c7 309c 	str.w	r3, [r7, #156]	; 0x9c
			TIM_4->CR2 = L_u32TempCR2;
 8001c1a:	4a84      	ldr	r2, [pc, #528]	; (8001e2c <MTimer_voidPWM+0xd68>)
 8001c1c:	f8d7 3098 	ldr.w	r3, [r7, #152]	; 0x98
 8001c20:	6053      	str	r3, [r2, #4]
			TIM_4->CCMR1 = L_u32TempCCMRX;
 8001c22:	4a82      	ldr	r2, [pc, #520]	; (8001e2c <MTimer_voidPWM+0xd68>)
 8001c24:	f8d7 30a0 	ldr.w	r3, [r7, #160]	; 0xa0
 8001c28:	6193      	str	r3, [r2, #24]
			TIM_4->CCR1 = A_u16CompareValue;
 8001c2a:	4a80      	ldr	r2, [pc, #512]	; (8001e2c <MTimer_voidPWM+0xd68>)
 8001c2c:	88bb      	ldrh	r3, [r7, #4]
 8001c2e:	6353      	str	r3, [r2, #52]	; 0x34
			TIM_4->CCER = L_u32TempCCER;
 8001c30:	4a7e      	ldr	r2, [pc, #504]	; (8001e2c <MTimer_voidPWM+0xd68>)
 8001c32:	f8d7 309c 	ldr.w	r3, [r7, #156]	; 0x9c
 8001c36:	6213      	str	r3, [r2, #32]
			SET_BIT (TIM_4->CCMR1 , TIM2_TO_TIM5_CCMR1_OC1PE_BIT);
 8001c38:	4b7c      	ldr	r3, [pc, #496]	; (8001e2c <MTimer_voidPWM+0xd68>)
 8001c3a:	699b      	ldr	r3, [r3, #24]
 8001c3c:	4a7b      	ldr	r2, [pc, #492]	; (8001e2c <MTimer_voidPWM+0xd68>)
 8001c3e:	f043 0308 	orr.w	r3, r3, #8
 8001c42:	6193      	str	r3, [r2, #24]
			SET_BIT (TIM_4->CCMR1 , TIM2_TO_TIM5_CCMR1_OC1FE_BIT) ;
 8001c44:	4b79      	ldr	r3, [pc, #484]	; (8001e2c <MTimer_voidPWM+0xd68>)
 8001c46:	699b      	ldr	r3, [r3, #24]
 8001c48:	4a78      	ldr	r2, [pc, #480]	; (8001e2c <MTimer_voidPWM+0xd68>)
 8001c4a:	f043 0304 	orr.w	r3, r3, #4
 8001c4e:	6193      	str	r3, [r2, #24]
			SET_BIT(TIM_4-> CCER , TIM2_TO_TIM5_CCER_CC1E_BIT) ;
 8001c50:	4b76      	ldr	r3, [pc, #472]	; (8001e2c <MTimer_voidPWM+0xd68>)
 8001c52:	6a1b      	ldr	r3, [r3, #32]
 8001c54:	4a75      	ldr	r2, [pc, #468]	; (8001e2c <MTimer_voidPWM+0xd68>)
 8001c56:	f043 0301 	orr.w	r3, r3, #1
 8001c5a:	6213      	str	r3, [r2, #32]
			SET_BIT(TIM_4 -> CR1 , TIM2_TO_TIM5_CR1_CEN_BIT) ;
 8001c5c:	4b73      	ldr	r3, [pc, #460]	; (8001e2c <MTimer_voidPWM+0xd68>)
 8001c5e:	681b      	ldr	r3, [r3, #0]
 8001c60:	4a72      	ldr	r2, [pc, #456]	; (8001e2c <MTimer_voidPWM+0xd68>)
 8001c62:	f043 0301 	orr.w	r3, r3, #1
 8001c66:	6013      	str	r3, [r2, #0]
}
 8001c68:	e14b      	b.n	8001f02 <MTimer_voidPWM+0xe3e>
		else if (A_u8Channel == TIM_CHANNEL_2)
 8001c6a:	79bb      	ldrb	r3, [r7, #6]
 8001c6c:	2b02      	cmp	r3, #2
 8001c6e:	d16c      	bne.n	8001d4a <MTimer_voidPWM+0xc86>
			u32 L_u32TempCCMRX = 0 ;
 8001c70:	2300      	movs	r3, #0
 8001c72:	f8c7 30ac 	str.w	r3, [r7, #172]	; 0xac
			u32 L_u32TempCCER  = 0 ;
 8001c76:	2300      	movs	r3, #0
 8001c78:	f8c7 30a8 	str.w	r3, [r7, #168]	; 0xa8
		    u32 L_u32TempCR2   = 0 ;
 8001c7c:	2300      	movs	r3, #0
 8001c7e:	f8c7 30a4 	str.w	r3, [r7, #164]	; 0xa4
		    CLR_BIT(TIM_4->CCER , TIM2_TO_TIM5_CCER_CC2E_BIT);
 8001c82:	4b6a      	ldr	r3, [pc, #424]	; (8001e2c <MTimer_voidPWM+0xd68>)
 8001c84:	6a1b      	ldr	r3, [r3, #32]
 8001c86:	4a69      	ldr	r2, [pc, #420]	; (8001e2c <MTimer_voidPWM+0xd68>)
 8001c88:	f023 0310 	bic.w	r3, r3, #16
 8001c8c:	6213      	str	r3, [r2, #32]
		    L_u32TempCCER = TIM_4->CCER;
 8001c8e:	4b67      	ldr	r3, [pc, #412]	; (8001e2c <MTimer_voidPWM+0xd68>)
 8001c90:	6a1b      	ldr	r3, [r3, #32]
 8001c92:	f8c7 30a8 	str.w	r3, [r7, #168]	; 0xa8
		    L_u32TempCR2 = TIM_4->CR2;
 8001c96:	4b65      	ldr	r3, [pc, #404]	; (8001e2c <MTimer_voidPWM+0xd68>)
 8001c98:	685b      	ldr	r3, [r3, #4]
 8001c9a:	f8c7 30a4 	str.w	r3, [r7, #164]	; 0xa4
		    L_u32TempCCMRX = TIM_4->CCMR1;
 8001c9e:	4b63      	ldr	r3, [pc, #396]	; (8001e2c <MTimer_voidPWM+0xd68>)
 8001ca0:	699b      	ldr	r3, [r3, #24]
 8001ca2:	f8c7 30ac 	str.w	r3, [r7, #172]	; 0xac
		    CLR_BIT(L_u32TempCCMRX , TIM2_TO_TIM5_CCMR1_OC2M_BIT0);
 8001ca6:	f8d7 30ac 	ldr.w	r3, [r7, #172]	; 0xac
 8001caa:	f423 5380 	bic.w	r3, r3, #4096	; 0x1000
 8001cae:	f8c7 30ac 	str.w	r3, [r7, #172]	; 0xac
		    CLR_BIT(L_u32TempCCMRX , TIM2_TO_TIM5_CCMR1_OC2M_BIT1);
 8001cb2:	f8d7 30ac 	ldr.w	r3, [r7, #172]	; 0xac
 8001cb6:	f423 5300 	bic.w	r3, r3, #8192	; 0x2000
 8001cba:	f8c7 30ac 	str.w	r3, [r7, #172]	; 0xac
		    CLR_BIT(L_u32TempCCMRX , TIM2_TO_TIM5_CCMR1_CC2S_BIT0);
 8001cbe:	f8d7 30ac 	ldr.w	r3, [r7, #172]	; 0xac
 8001cc2:	f423 7380 	bic.w	r3, r3, #256	; 0x100
 8001cc6:	f8c7 30ac 	str.w	r3, [r7, #172]	; 0xac
		    CLR_BIT(L_u32TempCCMRX , TIM2_TO_TIM5_CCMR1_CC2S_BIT1);
 8001cca:	f8d7 30ac 	ldr.w	r3, [r7, #172]	; 0xac
 8001cce:	f423 7300 	bic.w	r3, r3, #512	; 0x200
 8001cd2:	f8c7 30ac 	str.w	r3, [r7, #172]	; 0xac
		    L_u32TempCCMRX |= (TIM_PWM_MODE1 << 12U) ;
 8001cd6:	f8d7 30ac 	ldr.w	r3, [r7, #172]	; 0xac
 8001cda:	f443 43c0 	orr.w	r3, r3, #24576	; 0x6000
 8001cde:	f8c7 30ac 	str.w	r3, [r7, #172]	; 0xac
		    CLR_BIT(L_u32TempCCER , TIM2_TO_TIM5_CCER_CC2P_BIT);
 8001ce2:	f8d7 30a8 	ldr.w	r3, [r7, #168]	; 0xa8
 8001ce6:	f023 0320 	bic.w	r3, r3, #32
 8001cea:	f8c7 30a8 	str.w	r3, [r7, #168]	; 0xa8
		    CLR_BIT(L_u32TempCCER , TIM2_TO_TIM5_CCER_CC2NP_BIT) ;
 8001cee:	f8d7 30a8 	ldr.w	r3, [r7, #168]	; 0xa8
 8001cf2:	f023 0380 	bic.w	r3, r3, #128	; 0x80
 8001cf6:	f8c7 30a8 	str.w	r3, [r7, #168]	; 0xa8
		    TIM_4->CR2 = L_u32TempCR2;
 8001cfa:	4a4c      	ldr	r2, [pc, #304]	; (8001e2c <MTimer_voidPWM+0xd68>)
 8001cfc:	f8d7 30a4 	ldr.w	r3, [r7, #164]	; 0xa4
 8001d00:	6053      	str	r3, [r2, #4]
		    TIM_4->CCMR1 = L_u32TempCCMRX;
 8001d02:	4a4a      	ldr	r2, [pc, #296]	; (8001e2c <MTimer_voidPWM+0xd68>)
 8001d04:	f8d7 30ac 	ldr.w	r3, [r7, #172]	; 0xac
 8001d08:	6193      	str	r3, [r2, #24]
		    TIM_4->CCR2 = A_u16CompareValue;
 8001d0a:	4a48      	ldr	r2, [pc, #288]	; (8001e2c <MTimer_voidPWM+0xd68>)
 8001d0c:	88bb      	ldrh	r3, [r7, #4]
 8001d0e:	6393      	str	r3, [r2, #56]	; 0x38
		    TIM_4->CCER = L_u32TempCCER;
 8001d10:	4a46      	ldr	r2, [pc, #280]	; (8001e2c <MTimer_voidPWM+0xd68>)
 8001d12:	f8d7 30a8 	ldr.w	r3, [r7, #168]	; 0xa8
 8001d16:	6213      	str	r3, [r2, #32]
		    SET_BIT (TIM_4->CCMR1 , TIM2_TO_TIM5_CCMR1_OC2PE_BIT);
 8001d18:	4b44      	ldr	r3, [pc, #272]	; (8001e2c <MTimer_voidPWM+0xd68>)
 8001d1a:	699b      	ldr	r3, [r3, #24]
 8001d1c:	4a43      	ldr	r2, [pc, #268]	; (8001e2c <MTimer_voidPWM+0xd68>)
 8001d1e:	f443 6300 	orr.w	r3, r3, #2048	; 0x800
 8001d22:	6193      	str	r3, [r2, #24]
		    SET_BIT (TIM_4->CCMR1 , TIM2_TO_TIM5_CCMR1_OC2FE_BIT) ;
 8001d24:	4b41      	ldr	r3, [pc, #260]	; (8001e2c <MTimer_voidPWM+0xd68>)
 8001d26:	699b      	ldr	r3, [r3, #24]
 8001d28:	4a40      	ldr	r2, [pc, #256]	; (8001e2c <MTimer_voidPWM+0xd68>)
 8001d2a:	f443 6380 	orr.w	r3, r3, #1024	; 0x400
 8001d2e:	6193      	str	r3, [r2, #24]
		    SET_BIT(TIM_4-> CCER , TIM2_TO_TIM5_CCER_CC2E_BIT) ;
 8001d30:	4b3e      	ldr	r3, [pc, #248]	; (8001e2c <MTimer_voidPWM+0xd68>)
 8001d32:	6a1b      	ldr	r3, [r3, #32]
 8001d34:	4a3d      	ldr	r2, [pc, #244]	; (8001e2c <MTimer_voidPWM+0xd68>)
 8001d36:	f043 0310 	orr.w	r3, r3, #16
 8001d3a:	6213      	str	r3, [r2, #32]
		    SET_BIT(TIM_4 -> CR1 , TIM2_TO_TIM5_CR1_CEN_BIT) ;
 8001d3c:	4b3b      	ldr	r3, [pc, #236]	; (8001e2c <MTimer_voidPWM+0xd68>)
 8001d3e:	681b      	ldr	r3, [r3, #0]
 8001d40:	4a3a      	ldr	r2, [pc, #232]	; (8001e2c <MTimer_voidPWM+0xd68>)
 8001d42:	f043 0301 	orr.w	r3, r3, #1
 8001d46:	6013      	str	r3, [r2, #0]
}
 8001d48:	e0db      	b.n	8001f02 <MTimer_voidPWM+0xe3e>
		else if (A_u8Channel == TIM_CHANNEL_3)
 8001d4a:	79bb      	ldrb	r3, [r7, #6]
 8001d4c:	2b03      	cmp	r3, #3
 8001d4e:	d16f      	bne.n	8001e30 <MTimer_voidPWM+0xd6c>
			u32 L_u32TempCCMRX = 0 ;
 8001d50:	2300      	movs	r3, #0
 8001d52:	f8c7 30b8 	str.w	r3, [r7, #184]	; 0xb8
			u32 L_u32TempCCER  = 0 ;
 8001d56:	2300      	movs	r3, #0
 8001d58:	f8c7 30b4 	str.w	r3, [r7, #180]	; 0xb4
			u32 L_u32TempCR2   = 0 ;
 8001d5c:	2300      	movs	r3, #0
 8001d5e:	f8c7 30b0 	str.w	r3, [r7, #176]	; 0xb0
			CLR_BIT(TIM_4->CCER , TIM2_TO_TIM5_CCER_CC3E_BIT);
 8001d62:	4b32      	ldr	r3, [pc, #200]	; (8001e2c <MTimer_voidPWM+0xd68>)
 8001d64:	6a1b      	ldr	r3, [r3, #32]
 8001d66:	4a31      	ldr	r2, [pc, #196]	; (8001e2c <MTimer_voidPWM+0xd68>)
 8001d68:	f423 7380 	bic.w	r3, r3, #256	; 0x100
 8001d6c:	6213      	str	r3, [r2, #32]
			L_u32TempCCER = TIM_4->CCER;
 8001d6e:	4b2f      	ldr	r3, [pc, #188]	; (8001e2c <MTimer_voidPWM+0xd68>)
 8001d70:	6a1b      	ldr	r3, [r3, #32]
 8001d72:	f8c7 30b4 	str.w	r3, [r7, #180]	; 0xb4
			L_u32TempCR2 = TIM_4->CR2;
 8001d76:	4b2d      	ldr	r3, [pc, #180]	; (8001e2c <MTimer_voidPWM+0xd68>)
 8001d78:	685b      	ldr	r3, [r3, #4]
 8001d7a:	f8c7 30b0 	str.w	r3, [r7, #176]	; 0xb0
			L_u32TempCCMRX = TIM_4->CCMR2;
 8001d7e:	4b2b      	ldr	r3, [pc, #172]	; (8001e2c <MTimer_voidPWM+0xd68>)
 8001d80:	69db      	ldr	r3, [r3, #28]
 8001d82:	f8c7 30b8 	str.w	r3, [r7, #184]	; 0xb8
			CLR_BIT(L_u32TempCCMRX , TIM2_TO_TIM5_CCMR2_OC3M_BIT0);
 8001d86:	f8d7 30b8 	ldr.w	r3, [r7, #184]	; 0xb8
 8001d8a:	f023 0310 	bic.w	r3, r3, #16
 8001d8e:	f8c7 30b8 	str.w	r3, [r7, #184]	; 0xb8
			CLR_BIT(L_u32TempCCMRX , TIM2_TO_TIM5_CCMR2_OC3M_BIT1);
 8001d92:	f8d7 30b8 	ldr.w	r3, [r7, #184]	; 0xb8
 8001d96:	f023 0320 	bic.w	r3, r3, #32
 8001d9a:	f8c7 30b8 	str.w	r3, [r7, #184]	; 0xb8
			CLR_BIT(L_u32TempCCMRX , TIM2_TO_TIM5_CCMR2_CC3S_BIT0);
 8001d9e:	f8d7 30b8 	ldr.w	r3, [r7, #184]	; 0xb8
 8001da2:	f023 0301 	bic.w	r3, r3, #1
 8001da6:	f8c7 30b8 	str.w	r3, [r7, #184]	; 0xb8
			CLR_BIT(L_u32TempCCMRX , TIM2_TO_TIM5_CCMR2_CC3S_BIT1);
 8001daa:	f8d7 30b8 	ldr.w	r3, [r7, #184]	; 0xb8
 8001dae:	f023 0302 	bic.w	r3, r3, #2
 8001db2:	f8c7 30b8 	str.w	r3, [r7, #184]	; 0xb8
			L_u32TempCCMRX |= (TIM_PWM_MODE1 << 4U) ;
 8001db6:	f8d7 30b8 	ldr.w	r3, [r7, #184]	; 0xb8
 8001dba:	f043 0360 	orr.w	r3, r3, #96	; 0x60
 8001dbe:	f8c7 30b8 	str.w	r3, [r7, #184]	; 0xb8
			CLR_BIT(L_u32TempCCER , TIM2_TO_TIM5_CCER_CC3P_BIT);
 8001dc2:	f8d7 30b4 	ldr.w	r3, [r7, #180]	; 0xb4
 8001dc6:	f423 7300 	bic.w	r3, r3, #512	; 0x200
 8001dca:	f8c7 30b4 	str.w	r3, [r7, #180]	; 0xb4
			CLR_BIT(L_u32TempCCER , TIM2_TO_TIM5_CCER_CC3NP_BIT) ;
 8001dce:	f8d7 30b4 	ldr.w	r3, [r7, #180]	; 0xb4
 8001dd2:	f423 6300 	bic.w	r3, r3, #2048	; 0x800
 8001dd6:	f8c7 30b4 	str.w	r3, [r7, #180]	; 0xb4
			TIM_4->CR2 = L_u32TempCR2;
 8001dda:	4a14      	ldr	r2, [pc, #80]	; (8001e2c <MTimer_voidPWM+0xd68>)
 8001ddc:	f8d7 30b0 	ldr.w	r3, [r7, #176]	; 0xb0
 8001de0:	6053      	str	r3, [r2, #4]
			TIM_4->CCMR2 = L_u32TempCCMRX;
 8001de2:	4a12      	ldr	r2, [pc, #72]	; (8001e2c <MTimer_voidPWM+0xd68>)
 8001de4:	f8d7 30b8 	ldr.w	r3, [r7, #184]	; 0xb8
 8001de8:	61d3      	str	r3, [r2, #28]
			TIM_4->CCR3 = A_u16CompareValue;
 8001dea:	4a10      	ldr	r2, [pc, #64]	; (8001e2c <MTimer_voidPWM+0xd68>)
 8001dec:	88bb      	ldrh	r3, [r7, #4]
 8001dee:	63d3      	str	r3, [r2, #60]	; 0x3c
			TIM_4->CCER = L_u32TempCCER;
 8001df0:	4a0e      	ldr	r2, [pc, #56]	; (8001e2c <MTimer_voidPWM+0xd68>)
 8001df2:	f8d7 30b4 	ldr.w	r3, [r7, #180]	; 0xb4
 8001df6:	6213      	str	r3, [r2, #32]
			SET_BIT (TIM_4->CCMR2 , TIM2_TO_TIM5_CCMR2_OC3PE_BIT);
 8001df8:	4b0c      	ldr	r3, [pc, #48]	; (8001e2c <MTimer_voidPWM+0xd68>)
 8001dfa:	69db      	ldr	r3, [r3, #28]
 8001dfc:	4a0b      	ldr	r2, [pc, #44]	; (8001e2c <MTimer_voidPWM+0xd68>)
 8001dfe:	f043 0308 	orr.w	r3, r3, #8
 8001e02:	61d3      	str	r3, [r2, #28]
			SET_BIT (TIM_4->CCMR2 , TIM2_TO_TIM5_CCMR2_OC3FE_BIT) ;
 8001e04:	4b09      	ldr	r3, [pc, #36]	; (8001e2c <MTimer_voidPWM+0xd68>)
 8001e06:	69db      	ldr	r3, [r3, #28]
 8001e08:	4a08      	ldr	r2, [pc, #32]	; (8001e2c <MTimer_voidPWM+0xd68>)
 8001e0a:	f043 0304 	orr.w	r3, r3, #4
 8001e0e:	61d3      	str	r3, [r2, #28]
			SET_BIT(TIM_4-> CCER , TIM2_TO_TIM5_CCER_CC3E_BIT) ;
 8001e10:	4b06      	ldr	r3, [pc, #24]	; (8001e2c <MTimer_voidPWM+0xd68>)
 8001e12:	6a1b      	ldr	r3, [r3, #32]
 8001e14:	4a05      	ldr	r2, [pc, #20]	; (8001e2c <MTimer_voidPWM+0xd68>)
 8001e16:	f443 7380 	orr.w	r3, r3, #256	; 0x100
 8001e1a:	6213      	str	r3, [r2, #32]
			SET_BIT(TIM_4 -> CR1 , TIM2_TO_TIM5_CR1_CEN_BIT) ;
 8001e1c:	4b03      	ldr	r3, [pc, #12]	; (8001e2c <MTimer_voidPWM+0xd68>)
 8001e1e:	681b      	ldr	r3, [r3, #0]
 8001e20:	4a02      	ldr	r2, [pc, #8]	; (8001e2c <MTimer_voidPWM+0xd68>)
 8001e22:	f043 0301 	orr.w	r3, r3, #1
 8001e26:	6013      	str	r3, [r2, #0]
}
 8001e28:	e06b      	b.n	8001f02 <MTimer_voidPWM+0xe3e>
 8001e2a:	bf00      	nop
 8001e2c:	40008000 	.word	0x40008000
		else if (A_u8Channel == TIM_CHANNEL_4)
 8001e30:	79bb      	ldrb	r3, [r7, #6]
 8001e32:	2b04      	cmp	r3, #4
 8001e34:	d165      	bne.n	8001f02 <MTimer_voidPWM+0xe3e>
			u32 L_u32TempCCMRX = 0 ;
 8001e36:	2300      	movs	r3, #0
 8001e38:	f8c7 30c4 	str.w	r3, [r7, #196]	; 0xc4
			u32 L_u32TempCCER  = 0 ;
 8001e3c:	2300      	movs	r3, #0
 8001e3e:	f8c7 30c0 	str.w	r3, [r7, #192]	; 0xc0
			u32 L_u32TempCR2   = 0 ;
 8001e42:	2300      	movs	r3, #0
 8001e44:	f8c7 30bc 	str.w	r3, [r7, #188]	; 0xbc
			CLR_BIT(TIM_4->CCER , TIM2_TO_TIM5_CCER_CC4E_BIT);
 8001e48:	4b30      	ldr	r3, [pc, #192]	; (8001f0c <MTimer_voidPWM+0xe48>)
 8001e4a:	6a1b      	ldr	r3, [r3, #32]
 8001e4c:	4a2f      	ldr	r2, [pc, #188]	; (8001f0c <MTimer_voidPWM+0xe48>)
 8001e4e:	f423 5380 	bic.w	r3, r3, #4096	; 0x1000
 8001e52:	6213      	str	r3, [r2, #32]
			L_u32TempCCER = TIM_4->CCER;
 8001e54:	4b2d      	ldr	r3, [pc, #180]	; (8001f0c <MTimer_voidPWM+0xe48>)
 8001e56:	6a1b      	ldr	r3, [r3, #32]
 8001e58:	f8c7 30c0 	str.w	r3, [r7, #192]	; 0xc0
			L_u32TempCR2 = TIM_4->CR2;
 8001e5c:	4b2b      	ldr	r3, [pc, #172]	; (8001f0c <MTimer_voidPWM+0xe48>)
 8001e5e:	685b      	ldr	r3, [r3, #4]
 8001e60:	f8c7 30bc 	str.w	r3, [r7, #188]	; 0xbc
			L_u32TempCCMRX = TIM_4->CCMR2;
 8001e64:	4b29      	ldr	r3, [pc, #164]	; (8001f0c <MTimer_voidPWM+0xe48>)
 8001e66:	69db      	ldr	r3, [r3, #28]
 8001e68:	f8c7 30c4 	str.w	r3, [r7, #196]	; 0xc4
			CLR_BIT(L_u32TempCCMRX , TIM2_TO_TIM5_CCMR1_OC2M_BIT0);
 8001e6c:	f8d7 30c4 	ldr.w	r3, [r7, #196]	; 0xc4
 8001e70:	f423 5380 	bic.w	r3, r3, #4096	; 0x1000
 8001e74:	f8c7 30c4 	str.w	r3, [r7, #196]	; 0xc4
			CLR_BIT(L_u32TempCCMRX , TIM2_TO_TIM5_CCMR1_OC2M_BIT1);
 8001e78:	f8d7 30c4 	ldr.w	r3, [r7, #196]	; 0xc4
 8001e7c:	f423 5300 	bic.w	r3, r3, #8192	; 0x2000
 8001e80:	f8c7 30c4 	str.w	r3, [r7, #196]	; 0xc4
			CLR_BIT(L_u32TempCCMRX , TIM2_TO_TIM5_CCMR1_CC2S_BIT0);
 8001e84:	f8d7 30c4 	ldr.w	r3, [r7, #196]	; 0xc4
 8001e88:	f423 7380 	bic.w	r3, r3, #256	; 0x100
 8001e8c:	f8c7 30c4 	str.w	r3, [r7, #196]	; 0xc4
			CLR_BIT(L_u32TempCCMRX , TIM2_TO_TIM5_CCMR1_CC2S_BIT1);
 8001e90:	f8d7 30c4 	ldr.w	r3, [r7, #196]	; 0xc4
 8001e94:	f423 7300 	bic.w	r3, r3, #512	; 0x200
 8001e98:	f8c7 30c4 	str.w	r3, [r7, #196]	; 0xc4
			L_u32TempCCMRX |= (TIM_PWM_MODE1 << 12U) ;
 8001e9c:	f8d7 30c4 	ldr.w	r3, [r7, #196]	; 0xc4
 8001ea0:	f443 43c0 	orr.w	r3, r3, #24576	; 0x6000
 8001ea4:	f8c7 30c4 	str.w	r3, [r7, #196]	; 0xc4
			CLR_BIT(L_u32TempCCER , TIM2_TO_TIM5_CCER_CC4P_BIT);
 8001ea8:	f8d7 30c0 	ldr.w	r3, [r7, #192]	; 0xc0
 8001eac:	f423 5300 	bic.w	r3, r3, #8192	; 0x2000
 8001eb0:	f8c7 30c0 	str.w	r3, [r7, #192]	; 0xc0
			TIM_4->CR2 = L_u32TempCR2;
 8001eb4:	4a15      	ldr	r2, [pc, #84]	; (8001f0c <MTimer_voidPWM+0xe48>)
 8001eb6:	f8d7 30bc 	ldr.w	r3, [r7, #188]	; 0xbc
 8001eba:	6053      	str	r3, [r2, #4]
			TIM_4->CCMR2 = L_u32TempCCMRX;
 8001ebc:	4a13      	ldr	r2, [pc, #76]	; (8001f0c <MTimer_voidPWM+0xe48>)
 8001ebe:	f8d7 30c4 	ldr.w	r3, [r7, #196]	; 0xc4
 8001ec2:	61d3      	str	r3, [r2, #28]
			TIM_4->CCR4 = A_u16CompareValue;
 8001ec4:	4a11      	ldr	r2, [pc, #68]	; (8001f0c <MTimer_voidPWM+0xe48>)
 8001ec6:	88bb      	ldrh	r3, [r7, #4]
 8001ec8:	6413      	str	r3, [r2, #64]	; 0x40
			TIM_4->CCER = L_u32TempCCER;
 8001eca:	4a10      	ldr	r2, [pc, #64]	; (8001f0c <MTimer_voidPWM+0xe48>)
 8001ecc:	f8d7 30c0 	ldr.w	r3, [r7, #192]	; 0xc0
 8001ed0:	6213      	str	r3, [r2, #32]
			SET_BIT (TIM_4->CCMR2 , TIM2_TO_TIM5_CCMR2_OC4PE_BIT);
 8001ed2:	4b0e      	ldr	r3, [pc, #56]	; (8001f0c <MTimer_voidPWM+0xe48>)
 8001ed4:	69db      	ldr	r3, [r3, #28]
 8001ed6:	4a0d      	ldr	r2, [pc, #52]	; (8001f0c <MTimer_voidPWM+0xe48>)
 8001ed8:	f443 6300 	orr.w	r3, r3, #2048	; 0x800
 8001edc:	61d3      	str	r3, [r2, #28]
			SET_BIT (TIM_4->CCMR2 , TIM2_TO_TIM5_CCMR2_OC4FE_BIT) ;
 8001ede:	4b0b      	ldr	r3, [pc, #44]	; (8001f0c <MTimer_voidPWM+0xe48>)
 8001ee0:	69db      	ldr	r3, [r3, #28]
 8001ee2:	4a0a      	ldr	r2, [pc, #40]	; (8001f0c <MTimer_voidPWM+0xe48>)
 8001ee4:	f443 6380 	orr.w	r3, r3, #1024	; 0x400
 8001ee8:	61d3      	str	r3, [r2, #28]
			SET_BIT(TIM_4-> CCER , TIM2_TO_TIM5_CCER_CC4E_BIT) ;
 8001eea:	4b08      	ldr	r3, [pc, #32]	; (8001f0c <MTimer_voidPWM+0xe48>)
 8001eec:	6a1b      	ldr	r3, [r3, #32]
 8001eee:	4a07      	ldr	r2, [pc, #28]	; (8001f0c <MTimer_voidPWM+0xe48>)
 8001ef0:	f443 5380 	orr.w	r3, r3, #4096	; 0x1000
 8001ef4:	6213      	str	r3, [r2, #32]
			SET_BIT(TIM_4 -> CR1 , TIM2_TO_TIM5_CR1_CEN_BIT) ;
 8001ef6:	4b05      	ldr	r3, [pc, #20]	; (8001f0c <MTimer_voidPWM+0xe48>)
 8001ef8:	681b      	ldr	r3, [r3, #0]
 8001efa:	4a04      	ldr	r2, [pc, #16]	; (8001f0c <MTimer_voidPWM+0xe48>)
 8001efc:	f043 0301 	orr.w	r3, r3, #1
 8001f00:	6013      	str	r3, [r2, #0]
}
 8001f02:	bf00      	nop
 8001f04:	37c8      	adds	r7, #200	; 0xc8
 8001f06:	46bd      	mov	sp, r7
 8001f08:	bd80      	pop	{r7, pc}
 8001f0a:	bf00      	nop
 8001f0c:	40008000 	.word	0x40008000

08001f10 <MUART_voidEnable>:

    A_xUART_Type->SR = 0;				    	          							             ;
}

void MUART_voidEnable( USART_t *A_xUART_Type)
{
 8001f10:	b480      	push	{r7}
 8001f12:	b083      	sub	sp, #12
 8001f14:	af00      	add	r7, sp, #0
 8001f16:	6078      	str	r0, [r7, #4]
	SET_BIT(A_xUART_Type->CR1,MUSART_CR1_UE_BIT);
 8001f18:	687b      	ldr	r3, [r7, #4]
 8001f1a:	68db      	ldr	r3, [r3, #12]
 8001f1c:	f443 5200 	orr.w	r2, r3, #8192	; 0x2000
 8001f20:	687b      	ldr	r3, [r7, #4]
 8001f22:	60da      	str	r2, [r3, #12]
}
 8001f24:	bf00      	nop
 8001f26:	370c      	adds	r7, #12
 8001f28:	46bd      	mov	sp, r7
 8001f2a:	bc80      	pop	{r7}
 8001f2c:	4770      	bx	lr
	...

08001f30 <MUART_u8ReceiveByteASynch>:
	}
	return L_u8Data;
}

void MUART_u8ReceiveByteASynch (  USART_t *A_xUART_Type )
{
 8001f30:	b480      	push	{r7}
 8001f32:	b083      	sub	sp, #12
 8001f34:	af00      	add	r7, sp, #0
 8001f36:	6078      	str	r0, [r7, #4]
	if(local_u8_RX_Busyflag == 0)
 8001f38:	4b08      	ldr	r3, [pc, #32]	; (8001f5c <MUART_u8ReceiveByteASynch+0x2c>)
 8001f3a:	781b      	ldrb	r3, [r3, #0]
 8001f3c:	2b00      	cmp	r3, #0
 8001f3e:	d108      	bne.n	8001f52 <MUART_u8ReceiveByteASynch+0x22>
	{
		local_u8_RX_Busyflag=1;
 8001f40:	4b06      	ldr	r3, [pc, #24]	; (8001f5c <MUART_u8ReceiveByteASynch+0x2c>)
 8001f42:	2201      	movs	r2, #1
 8001f44:	701a      	strb	r2, [r3, #0]
		SET_BIT(A_xUART_Type->CR1 , MUSART_CR1_RXNEIE_BIT);
 8001f46:	687b      	ldr	r3, [r7, #4]
 8001f48:	68db      	ldr	r3, [r3, #12]
 8001f4a:	f043 0220 	orr.w	r2, r3, #32
 8001f4e:	687b      	ldr	r3, [r7, #4]
 8001f50:	60da      	str	r2, [r3, #12]
	}
}
 8001f52:	bf00      	nop
 8001f54:	370c      	adds	r7, #12
 8001f56:	46bd      	mov	sp, r7
 8001f58:	bc80      	pop	{r7}
 8001f5a:	4770      	bx	lr
 8001f5c:	200000f7 	.word	0x200000f7

08001f60 <MUART_u8ReadDataRegister>:
{
	USARTx->SR = 0;
}

u8 MUART_u8ReadDataRegister(USART_t *USARTx)
{
 8001f60:	b480      	push	{r7}
 8001f62:	b083      	sub	sp, #12
 8001f64:	af00      	add	r7, sp, #0
 8001f66:	6078      	str	r0, [r7, #4]
	return USARTx -> DR;
 8001f68:	687b      	ldr	r3, [r7, #4]
 8001f6a:	685b      	ldr	r3, [r3, #4]
 8001f6c:	b2db      	uxtb	r3, r3
}
 8001f6e:	4618      	mov	r0, r3
 8001f70:	370c      	adds	r7, #12
 8001f72:	46bd      	mov	sp, r7
 8001f74:	bc80      	pop	{r7}
 8001f76:	4770      	bx	lr

08001f78 <MUART1_voidSetCallBack>:

void MUART1_voidSetCallBack( void (*ptr) (void) )
{
 8001f78:	b480      	push	{r7}
 8001f7a:	b083      	sub	sp, #12
 8001f7c:	af00      	add	r7, sp, #0
 8001f7e:	6078      	str	r0, [r7, #4]

	MUSART1_CallBack =ptr;
 8001f80:	4a03      	ldr	r2, [pc, #12]	; (8001f90 <MUART1_voidSetCallBack+0x18>)
 8001f82:	687b      	ldr	r3, [r7, #4]
 8001f84:	6013      	str	r3, [r2, #0]
}
 8001f86:	bf00      	nop
 8001f88:	370c      	adds	r7, #12
 8001f8a:	46bd      	mov	sp, r7
 8001f8c:	bc80      	pop	{r7}
 8001f8e:	4770      	bx	lr
 8001f90:	200001d0 	.word	0x200001d0

08001f94 <USART1_IRQHandler>:
	MUSART3_CallBack = ptr;
}

/*IRQ of UART1*/
void USART1_IRQHandler(void)
{
 8001f94:	b580      	push	{r7, lr}
 8001f96:	af00      	add	r7, sp, #0
    UART1->SR = 0;
 8001f98:	4b07      	ldr	r3, [pc, #28]	; (8001fb8 <USART1_IRQHandler+0x24>)
 8001f9a:	2200      	movs	r2, #0
 8001f9c:	601a      	str	r2, [r3, #0]
    //G_u8DataFromUART = MUART_u8ReadDataRegister(UART1);
    local_u8_RX_Busyflag=0;
 8001f9e:	4b07      	ldr	r3, [pc, #28]	; (8001fbc <USART1_IRQHandler+0x28>)
 8001fa0:	2200      	movs	r2, #0
 8001fa2:	701a      	strb	r2, [r3, #0]
	if(MUSART1_CallBack!=NULL)
 8001fa4:	4b06      	ldr	r3, [pc, #24]	; (8001fc0 <USART1_IRQHandler+0x2c>)
 8001fa6:	681b      	ldr	r3, [r3, #0]
 8001fa8:	2b00      	cmp	r3, #0
 8001faa:	d002      	beq.n	8001fb2 <USART1_IRQHandler+0x1e>
	{
		MUSART1_CallBack();
 8001fac:	4b04      	ldr	r3, [pc, #16]	; (8001fc0 <USART1_IRQHandler+0x2c>)
 8001fae:	681b      	ldr	r3, [r3, #0]
 8001fb0:	4798      	blx	r3
	}
}
 8001fb2:	bf00      	nop
 8001fb4:	bd80      	pop	{r7, pc}
 8001fb6:	bf00      	nop
 8001fb8:	40013800 	.word	0x40013800
 8001fbc:	200000f7 	.word	0x200000f7
 8001fc0:	200001d0 	.word	0x200001d0

08001fc4 <USART2_IRQHandler>:

/*IRQ of UART2*/
void USART2_IRQHandler(void)
{
 8001fc4:	b580      	push	{r7, lr}
 8001fc6:	af00      	add	r7, sp, #0
	UART2->SR = 0;
 8001fc8:	4b07      	ldr	r3, [pc, #28]	; (8001fe8 <USART2_IRQHandler+0x24>)
 8001fca:	2200      	movs	r2, #0
 8001fcc:	601a      	str	r2, [r3, #0]
	//G_u8DataFromUART = MUART_u8ReadDataRegister(UART2);
	local_u8_RX_Busyflag=0;
 8001fce:	4b07      	ldr	r3, [pc, #28]	; (8001fec <USART2_IRQHandler+0x28>)
 8001fd0:	2200      	movs	r2, #0
 8001fd2:	701a      	strb	r2, [r3, #0]
	if(MUSART2_CallBack!=NULL)
 8001fd4:	4b06      	ldr	r3, [pc, #24]	; (8001ff0 <USART2_IRQHandler+0x2c>)
 8001fd6:	681b      	ldr	r3, [r3, #0]
 8001fd8:	2b00      	cmp	r3, #0
 8001fda:	d002      	beq.n	8001fe2 <USART2_IRQHandler+0x1e>
	{
		MUSART2_CallBack();
 8001fdc:	4b04      	ldr	r3, [pc, #16]	; (8001ff0 <USART2_IRQHandler+0x2c>)
 8001fde:	681b      	ldr	r3, [r3, #0]
 8001fe0:	4798      	blx	r3
	}
}
 8001fe2:	bf00      	nop
 8001fe4:	bd80      	pop	{r7, pc}
 8001fe6:	bf00      	nop
 8001fe8:	40004400 	.word	0x40004400
 8001fec:	200000f7 	.word	0x200000f7
 8001ff0:	200001cc 	.word	0x200001cc

08001ff4 <HUltrasonic_voidInit>:
	return 0;
}


void HUltrasonic_voidInit (u8 Ultra_Num)
{
 8001ff4:	b580      	push	{r7, lr}
 8001ff6:	b082      	sub	sp, #8
 8001ff8:	af00      	add	r7, sp, #0
 8001ffa:	4603      	mov	r3, r0
 8001ffc:	71fb      	strb	r3, [r7, #7]
	switch(Ultra_Num)
 8001ffe:	79fb      	ldrb	r3, [r7, #7]
 8002000:	3b01      	subs	r3, #1
 8002002:	2b03      	cmp	r3, #3
 8002004:	d84a      	bhi.n	800209c <HUltrasonic_voidInit+0xa8>
 8002006:	a201      	add	r2, pc, #4	; (adr r2, 800200c <HUltrasonic_voidInit+0x18>)
 8002008:	f852 f023 	ldr.w	pc, [r2, r3, lsl #2]
 800200c:	0800201d 	.word	0x0800201d
 8002010:	0800203d 	.word	0x0800203d
 8002014:	0800205d 	.word	0x0800205d
 8002018:	0800207d 	.word	0x0800207d
	{
	case 1:
		/*initialize Trig pin from GPIO*/
		GPIO_voidSetPinMode(Ultrasonic1_TrigPort,Ultrasonic1_TrigPin,GPIO_OUTPUT_2M_PP);
 800201c:	2202      	movs	r2, #2
 800201e:	2109      	movs	r1, #9
 8002020:	2001      	movs	r0, #1
 8002022:	f7fe fae9 	bl	80005f8 <GPIO_voidSetPinMode>
		//MGPIO_voidSetPinOutputType(Ultrasonic1_TrigPort, Ultrasonic1_TrigPin, GPIO_OTYPE_PUSHPULL);
		/*initialize Echo pin from GPIO*/
		GPIO_voidSetPinMode(Ultrasonic1_EchoPort,Ultrasonic1_EchoPin,GPIO_INPUT_PU_PD);
 8002026:	2208      	movs	r2, #8
 8002028:	210a      	movs	r1, #10
 800202a:	2001      	movs	r0, #1
 800202c:	f7fe fae4 	bl	80005f8 <GPIO_voidSetPinMode>
		GPIO_voidSetPinValue(Ultrasonic1_EchoPort, Ultrasonic1_EchoPin, GPIO_INPUT_PD);
 8002030:	2200      	movs	r2, #0
 8002032:	210a      	movs	r1, #10
 8002034:	2001      	movs	r0, #1
 8002036:	f7fe fc81 	bl	800093c <GPIO_voidSetPinValue>
		break;
 800203a:	e02f      	b.n	800209c <HUltrasonic_voidInit+0xa8>
	case 2:
		/*initialize Trig pin from GPIO*/
		GPIO_voidSetPinMode(Ultrasonic2_TrigPort,Ultrasonic2_TrigPin,GPIO_OUTPUT_2M_PP);
 800203c:	2202      	movs	r2, #2
 800203e:	2102      	movs	r1, #2
 8002040:	2001      	movs	r0, #1
 8002042:	f7fe fad9 	bl	80005f8 <GPIO_voidSetPinMode>
		//MGPIO_voidSetPinOutputType(Ultrasonic2_TrigPort, Ultrasonic2_TrigPin, GPIO_OTYPE_PUSHPULL);
		/*initialize Echo pin from GPIO*/
		GPIO_voidSetPinMode(Ultrasonic2_EchoPort,Ultrasonic2_EchoPin,GPIO_INPUT_PU_PD);
 8002046:	2208      	movs	r2, #8
 8002048:	2103      	movs	r1, #3
 800204a:	2001      	movs	r0, #1
 800204c:	f7fe fad4 	bl	80005f8 <GPIO_voidSetPinMode>
		GPIO_voidSetPinValue(Ultrasonic2_EchoPort, Ultrasonic2_EchoPin, GPIO_INPUT_PD);
 8002050:	2200      	movs	r2, #0
 8002052:	2103      	movs	r1, #3
 8002054:	2001      	movs	r0, #1
 8002056:	f7fe fc71 	bl	800093c <GPIO_voidSetPinValue>
		break;
 800205a:	e01f      	b.n	800209c <HUltrasonic_voidInit+0xa8>
	case 3:
		/*initialize Trig pin from GPIO*/
		GPIO_voidSetPinMode(Ultrasonic3_TrigPort,Ultrasonic3_TrigPin,GPIO_OUTPUT_2M_PP);
 800205c:	2202      	movs	r2, #2
 800205e:	2104      	movs	r1, #4
 8002060:	2001      	movs	r0, #1
 8002062:	f7fe fac9 	bl	80005f8 <GPIO_voidSetPinMode>
		//MGPIO_voidSetPinOutputType(Ultrasonic3_TrigPort, Ultrasonic3_TrigPin, GPIO_OTYPE_PUSHPULL);
		/*initialize Echo pin from GPIO*/
		GPIO_voidSetPinMode(Ultrasonic3_EchoPort,Ultrasonic3_EchoPin,GPIO_INPUT_PU_PD);
 8002066:	2208      	movs	r2, #8
 8002068:	2105      	movs	r1, #5
 800206a:	2001      	movs	r0, #1
 800206c:	f7fe fac4 	bl	80005f8 <GPIO_voidSetPinMode>
		GPIO_voidSetPinValue(Ultrasonic3_EchoPort, Ultrasonic3_EchoPin, GPIO_INPUT_PD);
 8002070:	2200      	movs	r2, #0
 8002072:	2105      	movs	r1, #5
 8002074:	2001      	movs	r0, #1
 8002076:	f7fe fc61 	bl	800093c <GPIO_voidSetPinValue>
		break;
 800207a:	e00f      	b.n	800209c <HUltrasonic_voidInit+0xa8>
	case 4:
		/*initialize Trig pin from GPIO*/
		GPIO_voidSetPinMode(Ultrasonic4_TrigPort,Ultrasonic4_TrigPin,GPIO_OUTPUT_2M_PP);
 800207c:	2202      	movs	r2, #2
 800207e:	2107      	movs	r1, #7
 8002080:	2001      	movs	r0, #1
 8002082:	f7fe fab9 	bl	80005f8 <GPIO_voidSetPinMode>
		//MGPIO_voidSetPinOutputType(Ultrasonic3_TrigPort, Ultrasonic3_TrigPin, GPIO_OTYPE_PUSHPULL);
		/*initialize Echo pin from GPIO*/
		GPIO_voidSetPinMode(Ultrasonic4_EchoPort,Ultrasonic4_EchoPin,GPIO_INPUT_PU_PD);
 8002086:	2208      	movs	r2, #8
 8002088:	2108      	movs	r1, #8
 800208a:	2001      	movs	r0, #1
 800208c:	f7fe fab4 	bl	80005f8 <GPIO_voidSetPinMode>
		GPIO_voidSetPinValue(Ultrasonic4_EchoPort, Ultrasonic4_EchoPin, GPIO_INPUT_PD);
 8002090:	2200      	movs	r2, #0
 8002092:	2108      	movs	r1, #8
 8002094:	2001      	movs	r0, #1
 8002096:	f7fe fc51 	bl	800093c <GPIO_voidSetPinValue>
		break;
 800209a:	bf00      	nop
	}
	/*initialize systick timer*/
	MSTK_voidInit() ;
 800209c:	f7fe fe96 	bl	8000dcc <MSTK_voidInit>
}
 80020a0:	bf00      	nop
 80020a2:	3708      	adds	r7, #8
 80020a4:	46bd      	mov	sp, r7
 80020a6:	bd80      	pop	{r7, pc}

080020a8 <ProcessingFun>:

u8 APP_G_u8DataFromUART;

u16 G_u8DataAfterProccing = 0 ;
u8 ProcessingFun (void)
{
 80020a8:	b580      	push	{r7, lr}
 80020aa:	af00      	add	r7, sp, #0
	/*Mapping data from UART*/
	switch (APP_G_u8DataFromUART)
 80020ac:	4bc1      	ldr	r3, [pc, #772]	; (80023b4 <ProcessingFun+0x30c>)
 80020ae:	781b      	ldrb	r3, [r3, #0]
 80020b0:	3b31      	subs	r3, #49	; 0x31
 80020b2:	2b44      	cmp	r3, #68	; 0x44
 80020b4:	f200 80fc 	bhi.w	80022b0 <ProcessingFun+0x208>
 80020b8:	a201      	add	r2, pc, #4	; (adr r2, 80020c0 <ProcessingFun+0x18>)
 80020ba:	f852 f023 	ldr.w	pc, [r2, r3, lsl #2]
 80020be:	bf00      	nop
 80020c0:	08002251 	.word	0x08002251
 80020c4:	0800225f 	.word	0x0800225f
 80020c8:	0800226d 	.word	0x0800226d
 80020cc:	0800227b 	.word	0x0800227b
 80020d0:	08002289 	.word	0x08002289
 80020d4:	08002297 	.word	0x08002297
 80020d8:	080022a5 	.word	0x080022a5
 80020dc:	080022b1 	.word	0x080022b1
 80020e0:	080022b1 	.word	0x080022b1
 80020e4:	080022b1 	.word	0x080022b1
 80020e8:	080022b1 	.word	0x080022b1
 80020ec:	080022b1 	.word	0x080022b1
 80020f0:	080022b1 	.word	0x080022b1
 80020f4:	080022b1 	.word	0x080022b1
 80020f8:	080022b1 	.word	0x080022b1
 80020fc:	080022b1 	.word	0x080022b1
 8002100:	080022b1 	.word	0x080022b1
 8002104:	08002219 	.word	0x08002219
 8002108:	080022b1 	.word	0x080022b1
 800210c:	080022b1 	.word	0x080022b1
 8002110:	080022b1 	.word	0x080022b1
 8002114:	080021d5 	.word	0x080021d5
 8002118:	08002243 	.word	0x08002243
 800211c:	080022b1 	.word	0x080022b1
 8002120:	080021ef 	.word	0x080021ef
 8002124:	0800220b 	.word	0x0800220b
 8002128:	080022b1 	.word	0x080022b1
 800212c:	08002235 	.word	0x08002235
 8002130:	080022b1 	.word	0x080022b1
 8002134:	080022b1 	.word	0x080022b1
 8002138:	080022b1 	.word	0x080022b1
 800213c:	080022b1 	.word	0x080022b1
 8002140:	080022b1 	.word	0x080022b1
 8002144:	080021fd 	.word	0x080021fd
 8002148:	080021e1 	.word	0x080021e1
 800214c:	080022b1 	.word	0x080022b1
 8002150:	08002227 	.word	0x08002227
 8002154:	080022b1 	.word	0x080022b1
 8002158:	080022b1 	.word	0x080022b1
 800215c:	080022b1 	.word	0x080022b1
 8002160:	080022b1 	.word	0x080022b1
 8002164:	080022b1 	.word	0x080022b1
 8002168:	080022b1 	.word	0x080022b1
 800216c:	080022b1 	.word	0x080022b1
 8002170:	080022b1 	.word	0x080022b1
 8002174:	080022b1 	.word	0x080022b1
 8002178:	080022b1 	.word	0x080022b1
 800217c:	080022b1 	.word	0x080022b1
 8002180:	080022b1 	.word	0x080022b1
 8002184:	08002219 	.word	0x08002219
 8002188:	080022b1 	.word	0x080022b1
 800218c:	080022b1 	.word	0x080022b1
 8002190:	080022b1 	.word	0x080022b1
 8002194:	080021d5 	.word	0x080021d5
 8002198:	08002243 	.word	0x08002243
 800219c:	080022b1 	.word	0x080022b1
 80021a0:	080021ef 	.word	0x080021ef
 80021a4:	0800220b 	.word	0x0800220b
 80021a8:	080022b1 	.word	0x080022b1
 80021ac:	08002235 	.word	0x08002235
 80021b0:	080022b1 	.word	0x080022b1
 80021b4:	080022b1 	.word	0x080022b1
 80021b8:	080022b1 	.word	0x080022b1
 80021bc:	080022b1 	.word	0x080022b1
 80021c0:	080022b1 	.word	0x080022b1
 80021c4:	080021fd 	.word	0x080021fd
 80021c8:	080021e1 	.word	0x080021e1
 80021cc:	080022b1 	.word	0x080022b1
 80021d0:	08002227 	.word	0x08002227
	{
	case 'F':
	case 'f':
		G_xMy_Data.Direction = Go ;
 80021d4:	4a78      	ldr	r2, [pc, #480]	; (80023b8 <ProcessingFun+0x310>)
 80021d6:	7813      	ldrb	r3, [r2, #0]
 80021d8:	f36f 0303 	bfc	r3, #0, #4
 80021dc:	7013      	strb	r3, [r2, #0]
		break;
 80021de:	e067      	b.n	80022b0 <ProcessingFun+0x208>
	case 'S':
	case 's':
		G_xMy_Data.Direction = Stop ;
 80021e0:	4a75      	ldr	r2, [pc, #468]	; (80023b8 <ProcessingFun+0x310>)
 80021e2:	7813      	ldrb	r3, [r2, #0]
 80021e4:	2108      	movs	r1, #8
 80021e6:	f361 0303 	bfi	r3, r1, #0, #4
 80021ea:	7013      	strb	r3, [r2, #0]
		break;
 80021ec:	e060      	b.n	80022b0 <ProcessingFun+0x208>
	case 'I':
	case 'i':
		G_xMy_Data.Direction = Forward_Right ;
 80021ee:	4a72      	ldr	r2, [pc, #456]	; (80023b8 <ProcessingFun+0x310>)
 80021f0:	7813      	ldrb	r3, [r2, #0]
 80021f2:	2104      	movs	r1, #4
 80021f4:	f361 0303 	bfi	r3, r1, #0, #4
 80021f8:	7013      	strb	r3, [r2, #0]
		break;
 80021fa:	e059      	b.n	80022b0 <ProcessingFun+0x208>
	case 'R':
	case 'r':
		G_xMy_Data.Direction = Right ;
 80021fc:	4a6e      	ldr	r2, [pc, #440]	; (80023b8 <ProcessingFun+0x310>)
 80021fe:	7813      	ldrb	r3, [r2, #0]
 8002200:	2102      	movs	r1, #2
 8002202:	f361 0303 	bfi	r3, r1, #0, #4
 8002206:	7013      	strb	r3, [r2, #0]
		break;
 8002208:	e052      	b.n	80022b0 <ProcessingFun+0x208>
	case 'J':
	case 'j':
		G_xMy_Data.Direction = Backward_Right ;
 800220a:	4a6b      	ldr	r2, [pc, #428]	; (80023b8 <ProcessingFun+0x310>)
 800220c:	7813      	ldrb	r3, [r2, #0]
 800220e:	2106      	movs	r1, #6
 8002210:	f361 0303 	bfi	r3, r1, #0, #4
 8002214:	7013      	strb	r3, [r2, #0]
		break;
 8002216:	e04b      	b.n	80022b0 <ProcessingFun+0x208>
	case 'B':
	case 'b':
		G_xMy_Data.Direction = Back ;
 8002218:	4a67      	ldr	r2, [pc, #412]	; (80023b8 <ProcessingFun+0x310>)
 800221a:	7813      	ldrb	r3, [r2, #0]
 800221c:	2101      	movs	r1, #1
 800221e:	f361 0303 	bfi	r3, r1, #0, #4
 8002222:	7013      	strb	r3, [r2, #0]
		break;
 8002224:	e044      	b.n	80022b0 <ProcessingFun+0x208>
	case 'U':
	case 'u':
		G_xMy_Data.Direction = Backward_Left ;
 8002226:	4a64      	ldr	r2, [pc, #400]	; (80023b8 <ProcessingFun+0x310>)
 8002228:	7813      	ldrb	r3, [r2, #0]
 800222a:	2107      	movs	r1, #7
 800222c:	f361 0303 	bfi	r3, r1, #0, #4
 8002230:	7013      	strb	r3, [r2, #0]
		break;
 8002232:	e03d      	b.n	80022b0 <ProcessingFun+0x208>
	case 'L':
	case 'l':
		G_xMy_Data.Direction = Left ;
 8002234:	4a60      	ldr	r2, [pc, #384]	; (80023b8 <ProcessingFun+0x310>)
 8002236:	7813      	ldrb	r3, [r2, #0]
 8002238:	2103      	movs	r1, #3
 800223a:	f361 0303 	bfi	r3, r1, #0, #4
 800223e:	7013      	strb	r3, [r2, #0]
		break;
 8002240:	e036      	b.n	80022b0 <ProcessingFun+0x208>
	case 'G':
	case 'g':
		G_xMy_Data.Direction = Forward_Left ;
 8002242:	4a5d      	ldr	r2, [pc, #372]	; (80023b8 <ProcessingFun+0x310>)
 8002244:	7813      	ldrb	r3, [r2, #0]
 8002246:	2105      	movs	r1, #5
 8002248:	f361 0303 	bfi	r3, r1, #0, #4
 800224c:	7013      	strb	r3, [r2, #0]
		break;
 800224e:	e02f      	b.n	80022b0 <ProcessingFun+0x208>
	case '1':
		G_xMy_Data.Speed = Speed1 ;
 8002250:	4a59      	ldr	r2, [pc, #356]	; (80023b8 <ProcessingFun+0x310>)
 8002252:	7813      	ldrb	r3, [r2, #0]
 8002254:	2101      	movs	r1, #1
 8002256:	f361 1306 	bfi	r3, r1, #4, #3
 800225a:	7013      	strb	r3, [r2, #0]
		break;
 800225c:	e028      	b.n	80022b0 <ProcessingFun+0x208>
	case '2':
		G_xMy_Data.Speed = Speed2 ;
 800225e:	4a56      	ldr	r2, [pc, #344]	; (80023b8 <ProcessingFun+0x310>)
 8002260:	7813      	ldrb	r3, [r2, #0]
 8002262:	2102      	movs	r1, #2
 8002264:	f361 1306 	bfi	r3, r1, #4, #3
 8002268:	7013      	strb	r3, [r2, #0]
		break;
 800226a:	e021      	b.n	80022b0 <ProcessingFun+0x208>
	case '3':
		G_xMy_Data.Speed = Speed3 ;
 800226c:	4a52      	ldr	r2, [pc, #328]	; (80023b8 <ProcessingFun+0x310>)
 800226e:	7813      	ldrb	r3, [r2, #0]
 8002270:	2103      	movs	r1, #3
 8002272:	f361 1306 	bfi	r3, r1, #4, #3
 8002276:	7013      	strb	r3, [r2, #0]
		break;
 8002278:	e01a      	b.n	80022b0 <ProcessingFun+0x208>
	case '4':
		G_xMy_Data.Speed = Speed4 ;
 800227a:	4a4f      	ldr	r2, [pc, #316]	; (80023b8 <ProcessingFun+0x310>)
 800227c:	7813      	ldrb	r3, [r2, #0]
 800227e:	2104      	movs	r1, #4
 8002280:	f361 1306 	bfi	r3, r1, #4, #3
 8002284:	7013      	strb	r3, [r2, #0]
		break;
 8002286:	e013      	b.n	80022b0 <ProcessingFun+0x208>
	case '5':
		G_xMy_Data.Speed = Speed5 ;
 8002288:	4a4b      	ldr	r2, [pc, #300]	; (80023b8 <ProcessingFun+0x310>)
 800228a:	7813      	ldrb	r3, [r2, #0]
 800228c:	2105      	movs	r1, #5
 800228e:	f361 1306 	bfi	r3, r1, #4, #3
 8002292:	7013      	strb	r3, [r2, #0]
		break;
 8002294:	e00c      	b.n	80022b0 <ProcessingFun+0x208>
	case '6':
		G_xMy_Data.Speed = Speed6 ;
 8002296:	4a48      	ldr	r2, [pc, #288]	; (80023b8 <ProcessingFun+0x310>)
 8002298:	7813      	ldrb	r3, [r2, #0]
 800229a:	2106      	movs	r1, #6
 800229c:	f361 1306 	bfi	r3, r1, #4, #3
 80022a0:	7013      	strb	r3, [r2, #0]
		break;
 80022a2:	e005      	b.n	80022b0 <ProcessingFun+0x208>
	case '7':
		G_xMy_Data.Speed = Speed7 ;
 80022a4:	4a44      	ldr	r2, [pc, #272]	; (80023b8 <ProcessingFun+0x310>)
 80022a6:	7813      	ldrb	r3, [r2, #0]
 80022a8:	f043 0370 	orr.w	r3, r3, #112	; 0x70
 80022ac:	7013      	strb	r3, [r2, #0]
		break;
 80022ae:	bf00      	nop
	}

	G_u8DataAfterProccing = ((G_u8DataAfterProccing & (0xFFF0)) | G_xMy_Data.Direction) ;
 80022b0:	4b42      	ldr	r3, [pc, #264]	; (80023bc <ProcessingFun+0x314>)
 80022b2:	881b      	ldrh	r3, [r3, #0]
 80022b4:	b21b      	sxth	r3, r3
 80022b6:	f023 030f 	bic.w	r3, r3, #15
 80022ba:	b21a      	sxth	r2, r3
 80022bc:	4b3e      	ldr	r3, [pc, #248]	; (80023b8 <ProcessingFun+0x310>)
 80022be:	781b      	ldrb	r3, [r3, #0]
 80022c0:	f3c3 0303 	ubfx	r3, r3, #0, #4
 80022c4:	b2db      	uxtb	r3, r3
 80022c6:	b21b      	sxth	r3, r3
 80022c8:	4313      	orrs	r3, r2
 80022ca:	b21b      	sxth	r3, r3
 80022cc:	b29a      	uxth	r2, r3
 80022ce:	4b3b      	ldr	r3, [pc, #236]	; (80023bc <ProcessingFun+0x314>)
 80022d0:	801a      	strh	r2, [r3, #0]
	G_u8DataAfterProccing = ((G_u8DataAfterProccing & (0xFF8F)) | (G_xMy_Data.Speed << 4)) ;
 80022d2:	4b3a      	ldr	r3, [pc, #232]	; (80023bc <ProcessingFun+0x314>)
 80022d4:	881b      	ldrh	r3, [r3, #0]
 80022d6:	b21b      	sxth	r3, r3
 80022d8:	f023 0370 	bic.w	r3, r3, #112	; 0x70
 80022dc:	b21a      	sxth	r2, r3
 80022de:	4b36      	ldr	r3, [pc, #216]	; (80023b8 <ProcessingFun+0x310>)
 80022e0:	781b      	ldrb	r3, [r3, #0]
 80022e2:	f3c3 1302 	ubfx	r3, r3, #4, #3
 80022e6:	b2db      	uxtb	r3, r3
 80022e8:	011b      	lsls	r3, r3, #4
 80022ea:	b21b      	sxth	r3, r3
 80022ec:	4313      	orrs	r3, r2
 80022ee:	b21b      	sxth	r3, r3
 80022f0:	b29a      	uxth	r2, r3
 80022f2:	4b32      	ldr	r3, [pc, #200]	; (80023bc <ProcessingFun+0x314>)
 80022f4:	801a      	strh	r2, [r3, #0]

	if (G_xMy_Data.Direction == Go)
 80022f6:	4b30      	ldr	r3, [pc, #192]	; (80023b8 <ProcessingFun+0x310>)
 80022f8:	781b      	ldrb	r3, [r3, #0]
 80022fa:	f003 030f 	and.w	r3, r3, #15
 80022fe:	b2db      	uxtb	r3, r3
 8002300:	2b00      	cmp	r3, #0
 8002302:	d102      	bne.n	800230a <ProcessingFun+0x262>
		{
			//MSTK_voidSetBusyWait(1000) ;
			APP_voidGoTasks() ;
 8002304:	f000 f970 	bl	80025e8 <APP_voidGoTasks>
 8002308:	e04f      	b.n	80023aa <ProcessingFun+0x302>
		}
	else if (G_xMy_Data.Direction == Stop)
 800230a:	4b2b      	ldr	r3, [pc, #172]	; (80023b8 <ProcessingFun+0x310>)
 800230c:	781b      	ldrb	r3, [r3, #0]
 800230e:	f003 030f 	and.w	r3, r3, #15
 8002312:	b2db      	uxtb	r3, r3
 8002314:	2b08      	cmp	r3, #8
 8002316:	d102      	bne.n	800231e <ProcessingFun+0x276>
		{
			//MSTK_voidSetBusyWait(1000) ;
			APP_VoidStop();
 8002318:	f000 f92c 	bl	8002574 <APP_VoidStop>
 800231c:	e045      	b.n	80023aa <ProcessingFun+0x302>
		}
	else if (G_xMy_Data.Direction == Back)
 800231e:	4b26      	ldr	r3, [pc, #152]	; (80023b8 <ProcessingFun+0x310>)
 8002320:	781b      	ldrb	r3, [r3, #0]
 8002322:	f003 030f 	and.w	r3, r3, #15
 8002326:	b2db      	uxtb	r3, r3
 8002328:	2b01      	cmp	r3, #1
 800232a:	d102      	bne.n	8002332 <ProcessingFun+0x28a>
		{
			//MSTK_voidSetBusyWait(1000) ;
			APP_voidBackTasks () ;
 800232c:	f000 fa4a 	bl	80027c4 <APP_voidBackTasks>
 8002330:	e03b      	b.n	80023aa <ProcessingFun+0x302>
		}
	else if (G_xMy_Data.Direction == Backward_Right)
 8002332:	4b21      	ldr	r3, [pc, #132]	; (80023b8 <ProcessingFun+0x310>)
 8002334:	781b      	ldrb	r3, [r3, #0]
 8002336:	f003 030f 	and.w	r3, r3, #15
 800233a:	b2db      	uxtb	r3, r3
 800233c:	2b06      	cmp	r3, #6
 800233e:	d102      	bne.n	8002346 <ProcessingFun+0x29e>
		{
			//MSTK_voidSetBusyWait(1000) ;
			APP_voidBackward_RightTasks () ;
 8002340:	f000 fb2e 	bl	80029a0 <APP_voidBackward_RightTasks>
 8002344:	e031      	b.n	80023aa <ProcessingFun+0x302>
		}
	else if (G_xMy_Data.Direction == Backward_Left)
 8002346:	4b1c      	ldr	r3, [pc, #112]	; (80023b8 <ProcessingFun+0x310>)
 8002348:	781b      	ldrb	r3, [r3, #0]
 800234a:	f003 030f 	and.w	r3, r3, #15
 800234e:	b2db      	uxtb	r3, r3
 8002350:	2b07      	cmp	r3, #7
 8002352:	d102      	bne.n	800235a <ProcessingFun+0x2b2>
		{
			//MSTK_voidSetBusyWait(1000) ;
			APP_voidBackward_LEFTTasks () ;
 8002354:	f000 fc12 	bl	8002b7c <APP_voidBackward_LEFTTasks>
 8002358:	e027      	b.n	80023aa <ProcessingFun+0x302>
		}
	else if (G_xMy_Data.Direction == Right || G_xMy_Data.Direction == Left )
 800235a:	4b17      	ldr	r3, [pc, #92]	; (80023b8 <ProcessingFun+0x310>)
 800235c:	781b      	ldrb	r3, [r3, #0]
 800235e:	f003 030f 	and.w	r3, r3, #15
 8002362:	b2db      	uxtb	r3, r3
 8002364:	2b02      	cmp	r3, #2
 8002366:	d006      	beq.n	8002376 <ProcessingFun+0x2ce>
 8002368:	4b13      	ldr	r3, [pc, #76]	; (80023b8 <ProcessingFun+0x310>)
 800236a:	781b      	ldrb	r3, [r3, #0]
 800236c:	f003 030f 	and.w	r3, r3, #15
 8002370:	b2db      	uxtb	r3, r3
 8002372:	2b03      	cmp	r3, #3
 8002374:	d102      	bne.n	800237c <ProcessingFun+0x2d4>
		{
			APP_voidRight_LeftTasks () ;
 8002376:	f000 fcef 	bl	8002d58 <APP_voidRight_LeftTasks>
 800237a:	e016      	b.n	80023aa <ProcessingFun+0x302>
		}
	else if (G_xMy_Data.Direction == Forward_Right)
 800237c:	4b0e      	ldr	r3, [pc, #56]	; (80023b8 <ProcessingFun+0x310>)
 800237e:	781b      	ldrb	r3, [r3, #0]
 8002380:	f003 030f 	and.w	r3, r3, #15
 8002384:	b2db      	uxtb	r3, r3
 8002386:	2b04      	cmp	r3, #4
 8002388:	d102      	bne.n	8002390 <ProcessingFun+0x2e8>
		{
			//MSTK_voidSetBusyWait(1000) ;
			APP_voidForward_RightTasks() ;
 800238a:	f000 fceb 	bl	8002d64 <APP_voidForward_RightTasks>
 800238e:	e00c      	b.n	80023aa <ProcessingFun+0x302>
		}
	else if (G_xMy_Data.Direction == Forward_Left)
 8002390:	4b09      	ldr	r3, [pc, #36]	; (80023b8 <ProcessingFun+0x310>)
 8002392:	781b      	ldrb	r3, [r3, #0]
 8002394:	f003 030f 	and.w	r3, r3, #15
 8002398:	b2db      	uxtb	r3, r3
 800239a:	2b05      	cmp	r3, #5
 800239c:	d105      	bne.n	80023aa <ProcessingFun+0x302>
		{
			MSTK_voidSetBusyWait(1000) ;
 800239e:	f44f 707a 	mov.w	r0, #1000	; 0x3e8
 80023a2:	f7fe fd1f 	bl	8000de4 <MSTK_voidSetBusyWait>
			APP_voidForward_LeftTasks() ;
 80023a6:	f000 fdcb 	bl	8002f40 <APP_voidForward_LeftTasks>
		}
	return G_u8DataAfterProccing ;
 80023aa:	4b04      	ldr	r3, [pc, #16]	; (80023bc <ProcessingFun+0x314>)
 80023ac:	881b      	ldrh	r3, [r3, #0]
 80023ae:	b2db      	uxtb	r3, r3

}
 80023b0:	4618      	mov	r0, r3
 80023b2:	bd80      	pop	{r7, pc}
 80023b4:	200001d8 	.word	0x200001d8
 80023b8:	200000f8 	.word	0x200000f8
 80023bc:	20000100 	.word	0x20000100

080023c0 <init_conf>:


void init_conf()
{
 80023c0:	b580      	push	{r7, lr}
 80023c2:	af00      	add	r7, sp, #0
	RCC_voidInitSysClock();
 80023c4:	f7fe fc4a 	bl	8000c5c <RCC_voidInitSysClock>
	RCC_voidEnablePeripheral(RCC_APB2,GPIOA);
 80023c8:	2102      	movs	r1, #2
 80023ca:	2002      	movs	r0, #2
 80023cc:	f7fe fc78 	bl	8000cc0 <RCC_voidEnablePeripheral>
	RCC_voidEnablePeripheral(RCC_APB2,GPIOB);
 80023d0:	2103      	movs	r1, #3
 80023d2:	2002      	movs	r0, #2
 80023d4:	f7fe fc74 	bl	8000cc0 <RCC_voidEnablePeripheral>
	RCC_voidEnablePeripheral(RCC_APB2,GPIOC);
 80023d8:	2104      	movs	r1, #4
 80023da:	2002      	movs	r0, #2
 80023dc:	f7fe fc70 	bl	8000cc0 <RCC_voidEnablePeripheral>
	RCC_voidEnablePeripheral(RCC_APB2,TIM1);
 80023e0:	210b      	movs	r1, #11
 80023e2:	2002      	movs	r0, #2
 80023e4:	f7fe fc6c 	bl	8000cc0 <RCC_voidEnablePeripheral>
	RCC_voidEnablePeripheral(RCC_APB2,USART1);
 80023e8:	210e      	movs	r1, #14
 80023ea:	2002      	movs	r0, #2
 80023ec:	f7fe fc68 	bl	8000cc0 <RCC_voidEnablePeripheral>
	MSTK_voidInit();
 80023f0:	f7fe fcec 	bl	8000dcc <MSTK_voidInit>
	MOTOR_init(MOTOR_1);
 80023f4:	2001      	movs	r0, #1
 80023f6:	f7fe fb6f 	bl	8000ad8 <MOTOR_init>
	MOTOR_init(MOTOR_2);
 80023fa:	2002      	movs	r0, #2
 80023fc:	f7fe fb6c 	bl	8000ad8 <MOTOR_init>
	HUltrasonic_voidInit(ULTR_1);
 8002400:	2001      	movs	r0, #1
 8002402:	f7ff fdf7 	bl	8001ff4 <HUltrasonic_voidInit>
	HUltrasonic_voidInit(ULTR_2);
 8002406:	2002      	movs	r0, #2
 8002408:	f7ff fdf4 	bl	8001ff4 <HUltrasonic_voidInit>
	HUltrasonic_voidInit(ULTR_3);
 800240c:	2003      	movs	r0, #3
 800240e:	f7ff fdf1 	bl	8001ff4 <HUltrasonic_voidInit>
	HUltrasonic_voidInit(ULTR_4);
 8002412:	2004      	movs	r0, #4
 8002414:	f7ff fdee 	bl	8001ff4 <HUltrasonic_voidInit>
	MUART1_voidSetCallBack(&APP_GET_UART_Command);
 8002418:	4805      	ldr	r0, [pc, #20]	; (8002430 <init_conf+0x70>)
 800241a:	f7ff fdad 	bl	8001f78 <MUART1_voidSetCallBack>
	MUART_voidEnable(UART1);
 800241e:	4805      	ldr	r0, [pc, #20]	; (8002434 <init_conf+0x74>)
 8002420:	f7ff fd76 	bl	8001f10 <MUART_voidEnable>
	MUART_u8ReceiveByteASynch(UART1);
 8002424:	4803      	ldr	r0, [pc, #12]	; (8002434 <init_conf+0x74>)
 8002426:	f7ff fd83 	bl	8001f30 <MUART_u8ReceiveByteASynch>
}
 800242a:	bf00      	nop
 800242c:	bd80      	pop	{r7, pc}
 800242e:	bf00      	nop
 8002430:	0800311d 	.word	0x0800311d
 8002434:	40013800 	.word	0x40013800

08002438 <main>:


int main()
{
 8002438:	b580      	push	{r7, lr}
 800243a:	b082      	sub	sp, #8
 800243c:	af00      	add	r7, sp, #0
	u16  L_u16Speed = 0;
 800243e:	2300      	movs	r3, #0
 8002440:	80fb      	strh	r3, [r7, #6]
	u8  L_u8Direction = 0 ;
 8002442:	2300      	movs	r3, #0
 8002444:	717b      	strb	r3, [r7, #5]
	u8  L_u8Flag = 0;
 8002446:	2300      	movs	r3, #0
 8002448:	713b      	strb	r3, [r7, #4]

	init_conf();
 800244a:	f7ff ffb9 	bl	80023c0 <init_conf>

	while(1)
	{
		ProcessingFun();
 800244e:	f7ff fe2b 	bl	80020a8 <ProcessingFun>

		/*Encoding recived data and take Direction (second 3bits)*/
		L_u8Direction = G_u8DataAfterProccing & 0x0f ;
 8002452:	4b46      	ldr	r3, [pc, #280]	; (800256c <main+0x134>)
 8002454:	881b      	ldrh	r3, [r3, #0]
 8002456:	b2db      	uxtb	r3, r3
 8002458:	f003 030f 	and.w	r3, r3, #15
 800245c:	717b      	strb	r3, [r7, #5]
		/*Encoding recived data and take Speed (first 4bits)*/
		L_u16Speed = (G_u8DataAfterProccing >> 4) & 0x07 ;
 800245e:	4b43      	ldr	r3, [pc, #268]	; (800256c <main+0x134>)
 8002460:	881b      	ldrh	r3, [r3, #0]
 8002462:	091b      	lsrs	r3, r3, #4
 8002464:	b29b      	uxth	r3, r3
 8002466:	f003 0307 	and.w	r3, r3, #7
 800246a:	80fb      	strh	r3, [r7, #6]
		/*Encoding recived data and take Flag (last bit)*/
		L_u8Flag = G_u8DataAfterProccing >> 7 ;
 800246c:	4b3f      	ldr	r3, [pc, #252]	; (800256c <main+0x134>)
 800246e:	881b      	ldrh	r3, [r3, #0]
 8002470:	09db      	lsrs	r3, r3, #7
 8002472:	b29b      	uxth	r3, r3
 8002474:	713b      	strb	r3, [r7, #4]

		if (L_u8Direction == Stop)
 8002476:	797b      	ldrb	r3, [r7, #5]
 8002478:	2b08      	cmp	r3, #8
 800247a:	d106      	bne.n	800248a <main+0x52>

				{
					MOTOR_Stop(MOTOR_1) ;
 800247c:	2001      	movs	r0, #1
 800247e:	f7fe fbcb 	bl	8000c18 <MOTOR_Stop>
					MOTOR_Stop(MOTOR_2) ;
 8002482:	2002      	movs	r0, #2
 8002484:	f7fe fbc8 	bl	8000c18 <MOTOR_Stop>
 8002488:	e7e1      	b.n	800244e <main+0x16>
					/*
					 * first speed  = 1 +  =
					 * second speed = 2 +  =
					 * third speed  = 3 +  =
					 */
					L_u16Speed = (0Xff<<G_xMy_Data.Speed) + 0xf0;
 800248a:	4b39      	ldr	r3, [pc, #228]	; (8002570 <main+0x138>)
 800248c:	781b      	ldrb	r3, [r3, #0]
 800248e:	f3c3 1302 	ubfx	r3, r3, #4, #3
 8002492:	b2db      	uxtb	r3, r3
 8002494:	461a      	mov	r2, r3
 8002496:	23ff      	movs	r3, #255	; 0xff
 8002498:	4093      	lsls	r3, r2
 800249a:	b29b      	uxth	r3, r3
 800249c:	33f0      	adds	r3, #240	; 0xf0
 800249e:	80fb      	strh	r3, [r7, #6]

					if (L_u8Direction == Go)  //Forward direction
 80024a0:	797b      	ldrb	r3, [r7, #5]
 80024a2:	2b00      	cmp	r3, #0
 80024a4:	d10a      	bne.n	80024bc <main+0x84>
					{
						MOTOR_ClockWise(MOTOR_1 , L_u16Speed) ;
 80024a6:	88fb      	ldrh	r3, [r7, #6]
 80024a8:	4619      	mov	r1, r3
 80024aa:	2001      	movs	r0, #1
 80024ac:	f7fe fb7c 	bl	8000ba8 <MOTOR_ClockWise>
						MOTOR_ClockWise(MOTOR_2 , L_u16Speed) ;
 80024b0:	88fb      	ldrh	r3, [r7, #6]
 80024b2:	4619      	mov	r1, r3
 80024b4:	2002      	movs	r0, #2
 80024b6:	f7fe fb77 	bl	8000ba8 <MOTOR_ClockWise>
 80024ba:	e7c8      	b.n	800244e <main+0x16>
					}
					else if (L_u8Direction == Back)  //Backward direction
 80024bc:	797b      	ldrb	r3, [r7, #5]
 80024be:	2b01      	cmp	r3, #1
 80024c0:	d10a      	bne.n	80024d8 <main+0xa0>
					{
						MOTOR_CounterClockWise(MOTOR_1 , L_u16Speed) ;
 80024c2:	88fb      	ldrh	r3, [r7, #6]
 80024c4:	4619      	mov	r1, r3
 80024c6:	2001      	movs	r0, #1
 80024c8:	f7fe fb34 	bl	8000b34 <MOTOR_CounterClockWise>
						MOTOR_CounterClockWise(MOTOR_2 , L_u16Speed) ;
 80024cc:	88fb      	ldrh	r3, [r7, #6]
 80024ce:	4619      	mov	r1, r3
 80024d0:	2002      	movs	r0, #2
 80024d2:	f7fe fb2f 	bl	8000b34 <MOTOR_CounterClockWise>
 80024d6:	e7ba      	b.n	800244e <main+0x16>
					}
					else if (L_u8Direction == Right)  //Right direction
 80024d8:	797b      	ldrb	r3, [r7, #5]
 80024da:	2b02      	cmp	r3, #2
 80024dc:	d108      	bne.n	80024f0 <main+0xb8>
					{
						MOTOR_Stop(MOTOR_1) ;
 80024de:	2001      	movs	r0, #1
 80024e0:	f7fe fb9a 	bl	8000c18 <MOTOR_Stop>
						MOTOR_ClockWise(MOTOR_2 , L_u16Speed) ;
 80024e4:	88fb      	ldrh	r3, [r7, #6]
 80024e6:	4619      	mov	r1, r3
 80024e8:	2002      	movs	r0, #2
 80024ea:	f7fe fb5d 	bl	8000ba8 <MOTOR_ClockWise>
 80024ee:	e7ae      	b.n	800244e <main+0x16>
					}
					else if (L_u8Direction == Left)  //Left direction
 80024f0:	797b      	ldrb	r3, [r7, #5]
 80024f2:	2b03      	cmp	r3, #3
 80024f4:	d108      	bne.n	8002508 <main+0xd0>
					{
						MOTOR_ClockWise(MOTOR_1 , L_u16Speed) ;
 80024f6:	88fb      	ldrh	r3, [r7, #6]
 80024f8:	4619      	mov	r1, r3
 80024fa:	2001      	movs	r0, #1
 80024fc:	f7fe fb54 	bl	8000ba8 <MOTOR_ClockWise>
						MOTOR_Stop(MOTOR_2) ;
 8002500:	2002      	movs	r0, #2
 8002502:	f7fe fb89 	bl	8000c18 <MOTOR_Stop>
 8002506:	e7a2      	b.n	800244e <main+0x16>
					}
					else if (L_u8Direction == Forward_Right)  //forward right
 8002508:	797b      	ldrb	r3, [r7, #5]
 800250a:	2b04      	cmp	r3, #4
 800250c:	d108      	bne.n	8002520 <main+0xe8>
					{
						MOTOR_ClockWise(MOTOR_1 , 0xa) ;
 800250e:	210a      	movs	r1, #10
 8002510:	2001      	movs	r0, #1
 8002512:	f7fe fb49 	bl	8000ba8 <MOTOR_ClockWise>
						MOTOR_ClockWise(MOTOR_2 , 0xc) ;
 8002516:	210c      	movs	r1, #12
 8002518:	2002      	movs	r0, #2
 800251a:	f7fe fb45 	bl	8000ba8 <MOTOR_ClockWise>
 800251e:	e796      	b.n	800244e <main+0x16>
					}
					else if (L_u8Direction == Forward_Left)  //forward left
 8002520:	797b      	ldrb	r3, [r7, #5]
 8002522:	2b05      	cmp	r3, #5
 8002524:	d108      	bne.n	8002538 <main+0x100>
					{
						MOTOR_ClockWise(MOTOR_1 , 0xa) ;
 8002526:	210a      	movs	r1, #10
 8002528:	2001      	movs	r0, #1
 800252a:	f7fe fb3d 	bl	8000ba8 <MOTOR_ClockWise>
						MOTOR_ClockWise(MOTOR_2 , 0xc) ;
 800252e:	210c      	movs	r1, #12
 8002530:	2002      	movs	r0, #2
 8002532:	f7fe fb39 	bl	8000ba8 <MOTOR_ClockWise>
 8002536:	e78a      	b.n	800244e <main+0x16>
					}
					else if (L_u8Direction == Backward_Right)  //backward right
 8002538:	797b      	ldrb	r3, [r7, #5]
 800253a:	2b06      	cmp	r3, #6
 800253c:	d108      	bne.n	8002550 <main+0x118>
					{
						MOTOR_CounterClockWise(MOTOR_1 , 0xa) ;
 800253e:	210a      	movs	r1, #10
 8002540:	2001      	movs	r0, #1
 8002542:	f7fe faf7 	bl	8000b34 <MOTOR_CounterClockWise>
						MOTOR_CounterClockWise(MOTOR_2 , 0xc) ;
 8002546:	210c      	movs	r1, #12
 8002548:	2002      	movs	r0, #2
 800254a:	f7fe faf3 	bl	8000b34 <MOTOR_CounterClockWise>
 800254e:	e77e      	b.n	800244e <main+0x16>
					}
					else if (L_u8Direction == Backward_Left)  //backward left
 8002550:	797b      	ldrb	r3, [r7, #5]
 8002552:	2b07      	cmp	r3, #7
 8002554:	f47f af7b 	bne.w	800244e <main+0x16>
					{
						MOTOR_CounterClockWise(MOTOR_1 , 0xa) ;
 8002558:	210a      	movs	r1, #10
 800255a:	2001      	movs	r0, #1
 800255c:	f7fe faea 	bl	8000b34 <MOTOR_CounterClockWise>
						MOTOR_CounterClockWise(MOTOR_2 , 0xc) ;
 8002560:	210c      	movs	r1, #12
 8002562:	2002      	movs	r0, #2
 8002564:	f7fe fae6 	bl	8000b34 <MOTOR_CounterClockWise>
		ProcessingFun();
 8002568:	e771      	b.n	800244e <main+0x16>
 800256a:	bf00      	nop
 800256c:	20000100 	.word	0x20000100
 8002570:	200000f8 	.word	0x200000f8

08002574 <APP_VoidStop>:
	G_xNear_Distance.Distance_Left = HUltrasonic_f32CalcDistance(ULTR_1);
}


void APP_VoidStop()
{
 8002574:	b480      	push	{r7}
 8002576:	af00      	add	r7, sp, #0
	//direction = stop
	SET_BIT(G_u8DataAfterProccing , 0) ;
 8002578:	4b1a      	ldr	r3, [pc, #104]	; (80025e4 <APP_VoidStop+0x70>)
 800257a:	881b      	ldrh	r3, [r3, #0]
 800257c:	f043 0301 	orr.w	r3, r3, #1
 8002580:	b29a      	uxth	r2, r3
 8002582:	4b18      	ldr	r3, [pc, #96]	; (80025e4 <APP_VoidStop+0x70>)
 8002584:	801a      	strh	r2, [r3, #0]
	SET_BIT(G_u8DataAfterProccing , 1) ;
 8002586:	4b17      	ldr	r3, [pc, #92]	; (80025e4 <APP_VoidStop+0x70>)
 8002588:	881b      	ldrh	r3, [r3, #0]
 800258a:	f043 0302 	orr.w	r3, r3, #2
 800258e:	b29a      	uxth	r2, r3
 8002590:	4b14      	ldr	r3, [pc, #80]	; (80025e4 <APP_VoidStop+0x70>)
 8002592:	801a      	strh	r2, [r3, #0]
	SET_BIT(G_u8DataAfterProccing , 2) ;
 8002594:	4b13      	ldr	r3, [pc, #76]	; (80025e4 <APP_VoidStop+0x70>)
 8002596:	881b      	ldrh	r3, [r3, #0]
 8002598:	f043 0304 	orr.w	r3, r3, #4
 800259c:	b29a      	uxth	r2, r3
 800259e:	4b11      	ldr	r3, [pc, #68]	; (80025e4 <APP_VoidStop+0x70>)
 80025a0:	801a      	strh	r2, [r3, #0]
	CLR_BIT(G_u8DataAfterProccing , 3) ;
 80025a2:	4b10      	ldr	r3, [pc, #64]	; (80025e4 <APP_VoidStop+0x70>)
 80025a4:	881b      	ldrh	r3, [r3, #0]
 80025a6:	f023 0308 	bic.w	r3, r3, #8
 80025aa:	b29a      	uxth	r2, r3
 80025ac:	4b0d      	ldr	r3, [pc, #52]	; (80025e4 <APP_VoidStop+0x70>)
 80025ae:	801a      	strh	r2, [r3, #0]
	/*flag = 3*/
	SET_BIT(G_u8DataAfterProccing , 6) ;
 80025b0:	4b0c      	ldr	r3, [pc, #48]	; (80025e4 <APP_VoidStop+0x70>)
 80025b2:	881b      	ldrh	r3, [r3, #0]
 80025b4:	f043 0340 	orr.w	r3, r3, #64	; 0x40
 80025b8:	b29a      	uxth	r2, r3
 80025ba:	4b0a      	ldr	r3, [pc, #40]	; (80025e4 <APP_VoidStop+0x70>)
 80025bc:	801a      	strh	r2, [r3, #0]
	SET_BIT(G_u8DataAfterProccing , 7) ;
 80025be:	4b09      	ldr	r3, [pc, #36]	; (80025e4 <APP_VoidStop+0x70>)
 80025c0:	881b      	ldrh	r3, [r3, #0]
 80025c2:	f043 0380 	orr.w	r3, r3, #128	; 0x80
 80025c6:	b29a      	uxth	r2, r3
 80025c8:	4b06      	ldr	r3, [pc, #24]	; (80025e4 <APP_VoidStop+0x70>)
 80025ca:	801a      	strh	r2, [r3, #0]
	/*stop car + alarm*/
	G_u8DataAfterProccing = G_u8DataAfterProccing & 0xFF8F ;
 80025cc:	4b05      	ldr	r3, [pc, #20]	; (80025e4 <APP_VoidStop+0x70>)
 80025ce:	881b      	ldrh	r3, [r3, #0]
 80025d0:	f023 0370 	bic.w	r3, r3, #112	; 0x70
 80025d4:	b29a      	uxth	r2, r3
 80025d6:	4b03      	ldr	r3, [pc, #12]	; (80025e4 <APP_VoidStop+0x70>)
 80025d8:	801a      	strh	r2, [r3, #0]


}
 80025da:	bf00      	nop
 80025dc:	46bd      	mov	sp, r7
 80025de:	bc80      	pop	{r7}
 80025e0:	4770      	bx	lr
 80025e2:	bf00      	nop
 80025e4:	20000100 	.word	0x20000100

080025e8 <APP_voidGoTasks>:

void APP_voidGoTasks ()
{
 80025e8:	b580      	push	{r7, lr}
 80025ea:	af00      	add	r7, sp, #0
	if (G_xNear_Distance.Distance_Forword  <= SO_SHORT_DISTANCE) // stop car
 80025ec:	4b6f      	ldr	r3, [pc, #444]	; (80027ac <APP_voidGoTasks+0x1c4>)
 80025ee:	781b      	ldrb	r3, [r3, #0]
 80025f0:	4618      	mov	r0, r3
 80025f2:	f7fd fefd 	bl	80003f0 <__aeabi_i2d>
 80025f6:	f04f 0200 	mov.w	r2, #0
 80025fa:	4b6d      	ldr	r3, [pc, #436]	; (80027b0 <APP_voidGoTasks+0x1c8>)
 80025fc:	f7fd ffcc 	bl	8000598 <__aeabi_dcmple>
 8002600:	4603      	mov	r3, r0
 8002602:	2b00      	cmp	r3, #0
 8002604:	d031      	beq.n	800266a <APP_voidGoTasks+0x82>
		{
		   //direction = stop
		    SET_BIT(G_u8DataAfterProccing , 0) ;
 8002606:	4b6b      	ldr	r3, [pc, #428]	; (80027b4 <APP_voidGoTasks+0x1cc>)
 8002608:	881b      	ldrh	r3, [r3, #0]
 800260a:	f043 0301 	orr.w	r3, r3, #1
 800260e:	b29a      	uxth	r2, r3
 8002610:	4b68      	ldr	r3, [pc, #416]	; (80027b4 <APP_voidGoTasks+0x1cc>)
 8002612:	801a      	strh	r2, [r3, #0]
		    SET_BIT(G_u8DataAfterProccing , 1) ;
 8002614:	4b67      	ldr	r3, [pc, #412]	; (80027b4 <APP_voidGoTasks+0x1cc>)
 8002616:	881b      	ldrh	r3, [r3, #0]
 8002618:	f043 0302 	orr.w	r3, r3, #2
 800261c:	b29a      	uxth	r2, r3
 800261e:	4b65      	ldr	r3, [pc, #404]	; (80027b4 <APP_voidGoTasks+0x1cc>)
 8002620:	801a      	strh	r2, [r3, #0]
		    SET_BIT(G_u8DataAfterProccing , 2) ;
 8002622:	4b64      	ldr	r3, [pc, #400]	; (80027b4 <APP_voidGoTasks+0x1cc>)
 8002624:	881b      	ldrh	r3, [r3, #0]
 8002626:	f043 0304 	orr.w	r3, r3, #4
 800262a:	b29a      	uxth	r2, r3
 800262c:	4b61      	ldr	r3, [pc, #388]	; (80027b4 <APP_voidGoTasks+0x1cc>)
 800262e:	801a      	strh	r2, [r3, #0]
		    CLR_BIT(G_u8DataAfterProccing , 3) ;
 8002630:	4b60      	ldr	r3, [pc, #384]	; (80027b4 <APP_voidGoTasks+0x1cc>)
 8002632:	881b      	ldrh	r3, [r3, #0]
 8002634:	f023 0308 	bic.w	r3, r3, #8
 8002638:	b29a      	uxth	r2, r3
 800263a:	4b5e      	ldr	r3, [pc, #376]	; (80027b4 <APP_voidGoTasks+0x1cc>)
 800263c:	801a      	strh	r2, [r3, #0]
		   /*flag = 3*/
			SET_BIT(G_u8DataAfterProccing , 6) ;
 800263e:	4b5d      	ldr	r3, [pc, #372]	; (80027b4 <APP_voidGoTasks+0x1cc>)
 8002640:	881b      	ldrh	r3, [r3, #0]
 8002642:	f043 0340 	orr.w	r3, r3, #64	; 0x40
 8002646:	b29a      	uxth	r2, r3
 8002648:	4b5a      	ldr	r3, [pc, #360]	; (80027b4 <APP_voidGoTasks+0x1cc>)
 800264a:	801a      	strh	r2, [r3, #0]
			SET_BIT(G_u8DataAfterProccing , 7) ;
 800264c:	4b59      	ldr	r3, [pc, #356]	; (80027b4 <APP_voidGoTasks+0x1cc>)
 800264e:	881b      	ldrh	r3, [r3, #0]
 8002650:	f043 0380 	orr.w	r3, r3, #128	; 0x80
 8002654:	b29a      	uxth	r2, r3
 8002656:	4b57      	ldr	r3, [pc, #348]	; (80027b4 <APP_voidGoTasks+0x1cc>)
 8002658:	801a      	strh	r2, [r3, #0]
			/*stop car + alarm*/
			G_u8DataAfterProccing = G_u8DataAfterProccing & 0xFF8F ;
 800265a:	4b56      	ldr	r3, [pc, #344]	; (80027b4 <APP_voidGoTasks+0x1cc>)
 800265c:	881b      	ldrh	r3, [r3, #0]
 800265e:	f023 0370 	bic.w	r3, r3, #112	; 0x70
 8002662:	b29a      	uxth	r2, r3
 8002664:	4b53      	ldr	r3, [pc, #332]	; (80027b4 <APP_voidGoTasks+0x1cc>)
 8002666:	801a      	strh	r2, [r3, #0]
			if (speed_control_outomatic == Automatic_ON)
				G_u8DataAfterProccing = ((G_u8DataAfterProccing & (0xFF8F)) | (max_speed << 4)) ;
			else
				G_u8DataAfterProccing = ((G_u8DataAfterProccing & (0xFF8F)) | (G_xMy_Data.Speed << 4)) ;
		}
}
 8002668:	e09d      	b.n	80027a6 <APP_voidGoTasks+0x1be>
	else if (G_xNear_Distance.Distance_Forword <= UN_SAFE_DISTANCE) //Un Safed Distance
 800266a:	4b50      	ldr	r3, [pc, #320]	; (80027ac <APP_voidGoTasks+0x1c4>)
 800266c:	781b      	ldrb	r3, [r3, #0]
 800266e:	4618      	mov	r0, r3
 8002670:	f7fd febe 	bl	80003f0 <__aeabi_i2d>
 8002674:	f04f 0200 	mov.w	r2, #0
 8002678:	4b4f      	ldr	r3, [pc, #316]	; (80027b8 <APP_voidGoTasks+0x1d0>)
 800267a:	f7fd ff8d 	bl	8000598 <__aeabi_dcmple>
 800267e:	4603      	mov	r3, r0
 8002680:	2b00      	cmp	r3, #0
 8002682:	d06a      	beq.n	800275a <APP_voidGoTasks+0x172>
				if (G_xMy_Data.Speed <= G_u8_LimetedSpeed)
 8002684:	4b4d      	ldr	r3, [pc, #308]	; (80027bc <APP_voidGoTasks+0x1d4>)
 8002686:	781b      	ldrb	r3, [r3, #0]
 8002688:	f3c3 1302 	ubfx	r3, r3, #4, #3
 800268c:	b2db      	uxtb	r3, r3
 800268e:	461a      	mov	r2, r3
 8002690:	4b4b      	ldr	r3, [pc, #300]	; (80027c0 <APP_voidGoTasks+0x1d8>)
 8002692:	781b      	ldrb	r3, [r3, #0]
 8002694:	429a      	cmp	r2, r3
 8002696:	dc31      	bgt.n	80026fc <APP_voidGoTasks+0x114>
					SET_BIT(G_u8DataAfterProccing , 6) ;
 8002698:	4b46      	ldr	r3, [pc, #280]	; (80027b4 <APP_voidGoTasks+0x1cc>)
 800269a:	881b      	ldrh	r3, [r3, #0]
 800269c:	f043 0340 	orr.w	r3, r3, #64	; 0x40
 80026a0:	b29a      	uxth	r2, r3
 80026a2:	4b44      	ldr	r3, [pc, #272]	; (80027b4 <APP_voidGoTasks+0x1cc>)
 80026a4:	801a      	strh	r2, [r3, #0]
					CLR_BIT(G_u8DataAfterProccing , 7) ;
 80026a6:	4b43      	ldr	r3, [pc, #268]	; (80027b4 <APP_voidGoTasks+0x1cc>)
 80026a8:	881b      	ldrh	r3, [r3, #0]
 80026aa:	f023 0380 	bic.w	r3, r3, #128	; 0x80
 80026ae:	b29a      	uxth	r2, r3
 80026b0:	4b40      	ldr	r3, [pc, #256]	; (80027b4 <APP_voidGoTasks+0x1cc>)
 80026b2:	801a      	strh	r2, [r3, #0]
					G_u8DataAfterProccing = ((G_u8DataAfterProccing & (0xFFF0)) | G_xMy_Data.Direction) ;
 80026b4:	4b3f      	ldr	r3, [pc, #252]	; (80027b4 <APP_voidGoTasks+0x1cc>)
 80026b6:	881b      	ldrh	r3, [r3, #0]
 80026b8:	b21b      	sxth	r3, r3
 80026ba:	f023 030f 	bic.w	r3, r3, #15
 80026be:	b21a      	sxth	r2, r3
 80026c0:	4b3e      	ldr	r3, [pc, #248]	; (80027bc <APP_voidGoTasks+0x1d4>)
 80026c2:	781b      	ldrb	r3, [r3, #0]
 80026c4:	f3c3 0303 	ubfx	r3, r3, #0, #4
 80026c8:	b2db      	uxtb	r3, r3
 80026ca:	b21b      	sxth	r3, r3
 80026cc:	4313      	orrs	r3, r2
 80026ce:	b21b      	sxth	r3, r3
 80026d0:	b29a      	uxth	r2, r3
 80026d2:	4b38      	ldr	r3, [pc, #224]	; (80027b4 <APP_voidGoTasks+0x1cc>)
 80026d4:	801a      	strh	r2, [r3, #0]
					G_u8DataAfterProccing = ((G_u8DataAfterProccing & (0xFF8F)) | (G_xMy_Data.Speed << 4)) ;
 80026d6:	4b37      	ldr	r3, [pc, #220]	; (80027b4 <APP_voidGoTasks+0x1cc>)
 80026d8:	881b      	ldrh	r3, [r3, #0]
 80026da:	b21b      	sxth	r3, r3
 80026dc:	f023 0370 	bic.w	r3, r3, #112	; 0x70
 80026e0:	b21a      	sxth	r2, r3
 80026e2:	4b36      	ldr	r3, [pc, #216]	; (80027bc <APP_voidGoTasks+0x1d4>)
 80026e4:	781b      	ldrb	r3, [r3, #0]
 80026e6:	f3c3 1302 	ubfx	r3, r3, #4, #3
 80026ea:	b2db      	uxtb	r3, r3
 80026ec:	011b      	lsls	r3, r3, #4
 80026ee:	b21b      	sxth	r3, r3
 80026f0:	4313      	orrs	r3, r2
 80026f2:	b21b      	sxth	r3, r3
 80026f4:	b29a      	uxth	r2, r3
 80026f6:	4b2f      	ldr	r3, [pc, #188]	; (80027b4 <APP_voidGoTasks+0x1cc>)
 80026f8:	801a      	strh	r2, [r3, #0]
}
 80026fa:	e054      	b.n	80027a6 <APP_voidGoTasks+0x1be>
					CLR_BIT(G_u8DataAfterProccing , 6) ;
 80026fc:	4b2d      	ldr	r3, [pc, #180]	; (80027b4 <APP_voidGoTasks+0x1cc>)
 80026fe:	881b      	ldrh	r3, [r3, #0]
 8002700:	f023 0340 	bic.w	r3, r3, #64	; 0x40
 8002704:	b29a      	uxth	r2, r3
 8002706:	4b2b      	ldr	r3, [pc, #172]	; (80027b4 <APP_voidGoTasks+0x1cc>)
 8002708:	801a      	strh	r2, [r3, #0]
					SET_BIT(G_u8DataAfterProccing , 7) ;
 800270a:	4b2a      	ldr	r3, [pc, #168]	; (80027b4 <APP_voidGoTasks+0x1cc>)
 800270c:	881b      	ldrh	r3, [r3, #0]
 800270e:	f043 0380 	orr.w	r3, r3, #128	; 0x80
 8002712:	b29a      	uxth	r2, r3
 8002714:	4b27      	ldr	r3, [pc, #156]	; (80027b4 <APP_voidGoTasks+0x1cc>)
 8002716:	801a      	strh	r2, [r3, #0]
					G_u8DataAfterProccing = ((G_u8DataAfterProccing & (0xFFF0)) | G_xMy_Data.Direction) ;
 8002718:	4b26      	ldr	r3, [pc, #152]	; (80027b4 <APP_voidGoTasks+0x1cc>)
 800271a:	881b      	ldrh	r3, [r3, #0]
 800271c:	b21b      	sxth	r3, r3
 800271e:	f023 030f 	bic.w	r3, r3, #15
 8002722:	b21a      	sxth	r2, r3
 8002724:	4b25      	ldr	r3, [pc, #148]	; (80027bc <APP_voidGoTasks+0x1d4>)
 8002726:	781b      	ldrb	r3, [r3, #0]
 8002728:	f3c3 0303 	ubfx	r3, r3, #0, #4
 800272c:	b2db      	uxtb	r3, r3
 800272e:	b21b      	sxth	r3, r3
 8002730:	4313      	orrs	r3, r2
 8002732:	b21b      	sxth	r3, r3
 8002734:	b29a      	uxth	r2, r3
 8002736:	4b1f      	ldr	r3, [pc, #124]	; (80027b4 <APP_voidGoTasks+0x1cc>)
 8002738:	801a      	strh	r2, [r3, #0]
					G_u8DataAfterProccing = ((G_u8DataAfterProccing & (0xFF8F)) | (G_u8_LimetedSpeed << 4)) ;
 800273a:	4b1e      	ldr	r3, [pc, #120]	; (80027b4 <APP_voidGoTasks+0x1cc>)
 800273c:	881b      	ldrh	r3, [r3, #0]
 800273e:	b21b      	sxth	r3, r3
 8002740:	f023 0370 	bic.w	r3, r3, #112	; 0x70
 8002744:	b21a      	sxth	r2, r3
 8002746:	4b1e      	ldr	r3, [pc, #120]	; (80027c0 <APP_voidGoTasks+0x1d8>)
 8002748:	781b      	ldrb	r3, [r3, #0]
 800274a:	011b      	lsls	r3, r3, #4
 800274c:	b21b      	sxth	r3, r3
 800274e:	4313      	orrs	r3, r2
 8002750:	b21b      	sxth	r3, r3
 8002752:	b29a      	uxth	r2, r3
 8002754:	4b17      	ldr	r3, [pc, #92]	; (80027b4 <APP_voidGoTasks+0x1cc>)
 8002756:	801a      	strh	r2, [r3, #0]
}
 8002758:	e025      	b.n	80027a6 <APP_voidGoTasks+0x1be>
			CLR_BIT(G_u8DataAfterProccing , 6) ;
 800275a:	4b16      	ldr	r3, [pc, #88]	; (80027b4 <APP_voidGoTasks+0x1cc>)
 800275c:	881b      	ldrh	r3, [r3, #0]
 800275e:	f023 0340 	bic.w	r3, r3, #64	; 0x40
 8002762:	b29a      	uxth	r2, r3
 8002764:	4b13      	ldr	r3, [pc, #76]	; (80027b4 <APP_voidGoTasks+0x1cc>)
 8002766:	801a      	strh	r2, [r3, #0]
			CLR_BIT(G_u8DataAfterProccing , 7) ;
 8002768:	4b12      	ldr	r3, [pc, #72]	; (80027b4 <APP_voidGoTasks+0x1cc>)
 800276a:	881b      	ldrh	r3, [r3, #0]
 800276c:	f023 0380 	bic.w	r3, r3, #128	; 0x80
 8002770:	b29a      	uxth	r2, r3
 8002772:	4b10      	ldr	r3, [pc, #64]	; (80027b4 <APP_voidGoTasks+0x1cc>)
 8002774:	801a      	strh	r2, [r3, #0]
			G_u8DataAfterProccing = ((G_u8DataAfterProccing & (0xFFF0)) | G_xMy_Data.Direction) ;
 8002776:	4b0f      	ldr	r3, [pc, #60]	; (80027b4 <APP_voidGoTasks+0x1cc>)
 8002778:	881b      	ldrh	r3, [r3, #0]
 800277a:	b21b      	sxth	r3, r3
 800277c:	f023 030f 	bic.w	r3, r3, #15
 8002780:	b21a      	sxth	r2, r3
 8002782:	4b0e      	ldr	r3, [pc, #56]	; (80027bc <APP_voidGoTasks+0x1d4>)
 8002784:	781b      	ldrb	r3, [r3, #0]
 8002786:	f3c3 0303 	ubfx	r3, r3, #0, #4
 800278a:	b2db      	uxtb	r3, r3
 800278c:	b21b      	sxth	r3, r3
 800278e:	4313      	orrs	r3, r2
 8002790:	b21b      	sxth	r3, r3
 8002792:	b29a      	uxth	r2, r3
 8002794:	4b07      	ldr	r3, [pc, #28]	; (80027b4 <APP_voidGoTasks+0x1cc>)
 8002796:	801a      	strh	r2, [r3, #0]
				G_u8DataAfterProccing = ((G_u8DataAfterProccing & (0xFF8F)) | (max_speed << 4)) ;
 8002798:	4b06      	ldr	r3, [pc, #24]	; (80027b4 <APP_voidGoTasks+0x1cc>)
 800279a:	881b      	ldrh	r3, [r3, #0]
 800279c:	f043 0370 	orr.w	r3, r3, #112	; 0x70
 80027a0:	b29a      	uxth	r2, r3
 80027a2:	4b04      	ldr	r3, [pc, #16]	; (80027b4 <APP_voidGoTasks+0x1cc>)
 80027a4:	801a      	strh	r2, [r3, #0]
}
 80027a6:	bf00      	nop
 80027a8:	bd80      	pop	{r7, pc}
 80027aa:	bf00      	nop
 80027ac:	200000fc 	.word	0x200000fc
 80027b0:	40240000 	.word	0x40240000
 80027b4:	20000100 	.word	0x20000100
 80027b8:	40340000 	.word	0x40340000
 80027bc:	200000f8 	.word	0x200000f8
 80027c0:	200000ca 	.word	0x200000ca

080027c4 <APP_voidBackTasks>:
void APP_voidBackTasks ()
{
 80027c4:	b580      	push	{r7, lr}
 80027c6:	af00      	add	r7, sp, #0
	if (G_xNear_Distance.Distance_Back  <= SO_SHORT_DISTANCE) // stop car
 80027c8:	4b6f      	ldr	r3, [pc, #444]	; (8002988 <APP_voidBackTasks+0x1c4>)
 80027ca:	785b      	ldrb	r3, [r3, #1]
 80027cc:	4618      	mov	r0, r3
 80027ce:	f7fd fe0f 	bl	80003f0 <__aeabi_i2d>
 80027d2:	f04f 0200 	mov.w	r2, #0
 80027d6:	4b6d      	ldr	r3, [pc, #436]	; (800298c <APP_voidBackTasks+0x1c8>)
 80027d8:	f7fd fede 	bl	8000598 <__aeabi_dcmple>
 80027dc:	4603      	mov	r3, r0
 80027de:	2b00      	cmp	r3, #0
 80027e0:	d031      	beq.n	8002846 <APP_voidBackTasks+0x82>
		{
		   //direction = stop
		    SET_BIT(G_u8DataAfterProccing , 0) ;
 80027e2:	4b6b      	ldr	r3, [pc, #428]	; (8002990 <APP_voidBackTasks+0x1cc>)
 80027e4:	881b      	ldrh	r3, [r3, #0]
 80027e6:	f043 0301 	orr.w	r3, r3, #1
 80027ea:	b29a      	uxth	r2, r3
 80027ec:	4b68      	ldr	r3, [pc, #416]	; (8002990 <APP_voidBackTasks+0x1cc>)
 80027ee:	801a      	strh	r2, [r3, #0]
		    SET_BIT(G_u8DataAfterProccing , 1) ;
 80027f0:	4b67      	ldr	r3, [pc, #412]	; (8002990 <APP_voidBackTasks+0x1cc>)
 80027f2:	881b      	ldrh	r3, [r3, #0]
 80027f4:	f043 0302 	orr.w	r3, r3, #2
 80027f8:	b29a      	uxth	r2, r3
 80027fa:	4b65      	ldr	r3, [pc, #404]	; (8002990 <APP_voidBackTasks+0x1cc>)
 80027fc:	801a      	strh	r2, [r3, #0]
		    SET_BIT(G_u8DataAfterProccing , 2) ;
 80027fe:	4b64      	ldr	r3, [pc, #400]	; (8002990 <APP_voidBackTasks+0x1cc>)
 8002800:	881b      	ldrh	r3, [r3, #0]
 8002802:	f043 0304 	orr.w	r3, r3, #4
 8002806:	b29a      	uxth	r2, r3
 8002808:	4b61      	ldr	r3, [pc, #388]	; (8002990 <APP_voidBackTasks+0x1cc>)
 800280a:	801a      	strh	r2, [r3, #0]
		    CLR_BIT(G_u8DataAfterProccing , 3) ;
 800280c:	4b60      	ldr	r3, [pc, #384]	; (8002990 <APP_voidBackTasks+0x1cc>)
 800280e:	881b      	ldrh	r3, [r3, #0]
 8002810:	f023 0308 	bic.w	r3, r3, #8
 8002814:	b29a      	uxth	r2, r3
 8002816:	4b5e      	ldr	r3, [pc, #376]	; (8002990 <APP_voidBackTasks+0x1cc>)
 8002818:	801a      	strh	r2, [r3, #0]
		   /*flag = 3*/
			SET_BIT(G_u8DataAfterProccing , 6) ;
 800281a:	4b5d      	ldr	r3, [pc, #372]	; (8002990 <APP_voidBackTasks+0x1cc>)
 800281c:	881b      	ldrh	r3, [r3, #0]
 800281e:	f043 0340 	orr.w	r3, r3, #64	; 0x40
 8002822:	b29a      	uxth	r2, r3
 8002824:	4b5a      	ldr	r3, [pc, #360]	; (8002990 <APP_voidBackTasks+0x1cc>)
 8002826:	801a      	strh	r2, [r3, #0]
			SET_BIT(G_u8DataAfterProccing , 7) ;
 8002828:	4b59      	ldr	r3, [pc, #356]	; (8002990 <APP_voidBackTasks+0x1cc>)
 800282a:	881b      	ldrh	r3, [r3, #0]
 800282c:	f043 0380 	orr.w	r3, r3, #128	; 0x80
 8002830:	b29a      	uxth	r2, r3
 8002832:	4b57      	ldr	r3, [pc, #348]	; (8002990 <APP_voidBackTasks+0x1cc>)
 8002834:	801a      	strh	r2, [r3, #0]
			/*stop car + alarm*/
			G_u8DataAfterProccing = G_u8DataAfterProccing & 0xFF8F ;
 8002836:	4b56      	ldr	r3, [pc, #344]	; (8002990 <APP_voidBackTasks+0x1cc>)
 8002838:	881b      	ldrh	r3, [r3, #0]
 800283a:	f023 0370 	bic.w	r3, r3, #112	; 0x70
 800283e:	b29a      	uxth	r2, r3
 8002840:	4b53      	ldr	r3, [pc, #332]	; (8002990 <APP_voidBackTasks+0x1cc>)
 8002842:	801a      	strh	r2, [r3, #0]
			if (speed_control_outomatic == Automatic_ON)
				G_u8DataAfterProccing = ((G_u8DataAfterProccing & (0xFF8F)) | (max_speed << 4)) ;
			else
				G_u8DataAfterProccing = ((G_u8DataAfterProccing & (0xFF8F)) | (G_xMy_Data.Speed << 4)) ;
		}
}
 8002844:	e09d      	b.n	8002982 <APP_voidBackTasks+0x1be>
	else if (G_xNear_Distance.Distance_Back <= UN_SAFE_DISTANCE) //Un Safed Distance
 8002846:	4b50      	ldr	r3, [pc, #320]	; (8002988 <APP_voidBackTasks+0x1c4>)
 8002848:	785b      	ldrb	r3, [r3, #1]
 800284a:	4618      	mov	r0, r3
 800284c:	f7fd fdd0 	bl	80003f0 <__aeabi_i2d>
 8002850:	f04f 0200 	mov.w	r2, #0
 8002854:	4b4f      	ldr	r3, [pc, #316]	; (8002994 <APP_voidBackTasks+0x1d0>)
 8002856:	f7fd fe9f 	bl	8000598 <__aeabi_dcmple>
 800285a:	4603      	mov	r3, r0
 800285c:	2b00      	cmp	r3, #0
 800285e:	d06a      	beq.n	8002936 <APP_voidBackTasks+0x172>
				if (G_xMy_Data.Speed <= G_u8_LimetedSpeed)
 8002860:	4b4d      	ldr	r3, [pc, #308]	; (8002998 <APP_voidBackTasks+0x1d4>)
 8002862:	781b      	ldrb	r3, [r3, #0]
 8002864:	f3c3 1302 	ubfx	r3, r3, #4, #3
 8002868:	b2db      	uxtb	r3, r3
 800286a:	461a      	mov	r2, r3
 800286c:	4b4b      	ldr	r3, [pc, #300]	; (800299c <APP_voidBackTasks+0x1d8>)
 800286e:	781b      	ldrb	r3, [r3, #0]
 8002870:	429a      	cmp	r2, r3
 8002872:	dc31      	bgt.n	80028d8 <APP_voidBackTasks+0x114>
					SET_BIT(G_u8DataAfterProccing , 6) ;
 8002874:	4b46      	ldr	r3, [pc, #280]	; (8002990 <APP_voidBackTasks+0x1cc>)
 8002876:	881b      	ldrh	r3, [r3, #0]
 8002878:	f043 0340 	orr.w	r3, r3, #64	; 0x40
 800287c:	b29a      	uxth	r2, r3
 800287e:	4b44      	ldr	r3, [pc, #272]	; (8002990 <APP_voidBackTasks+0x1cc>)
 8002880:	801a      	strh	r2, [r3, #0]
					CLR_BIT(G_u8DataAfterProccing , 7) ;
 8002882:	4b43      	ldr	r3, [pc, #268]	; (8002990 <APP_voidBackTasks+0x1cc>)
 8002884:	881b      	ldrh	r3, [r3, #0]
 8002886:	f023 0380 	bic.w	r3, r3, #128	; 0x80
 800288a:	b29a      	uxth	r2, r3
 800288c:	4b40      	ldr	r3, [pc, #256]	; (8002990 <APP_voidBackTasks+0x1cc>)
 800288e:	801a      	strh	r2, [r3, #0]
					G_u8DataAfterProccing = ((G_u8DataAfterProccing & (0xFFF0)) | G_xMy_Data.Direction) ;
 8002890:	4b3f      	ldr	r3, [pc, #252]	; (8002990 <APP_voidBackTasks+0x1cc>)
 8002892:	881b      	ldrh	r3, [r3, #0]
 8002894:	b21b      	sxth	r3, r3
 8002896:	f023 030f 	bic.w	r3, r3, #15
 800289a:	b21a      	sxth	r2, r3
 800289c:	4b3e      	ldr	r3, [pc, #248]	; (8002998 <APP_voidBackTasks+0x1d4>)
 800289e:	781b      	ldrb	r3, [r3, #0]
 80028a0:	f3c3 0303 	ubfx	r3, r3, #0, #4
 80028a4:	b2db      	uxtb	r3, r3
 80028a6:	b21b      	sxth	r3, r3
 80028a8:	4313      	orrs	r3, r2
 80028aa:	b21b      	sxth	r3, r3
 80028ac:	b29a      	uxth	r2, r3
 80028ae:	4b38      	ldr	r3, [pc, #224]	; (8002990 <APP_voidBackTasks+0x1cc>)
 80028b0:	801a      	strh	r2, [r3, #0]
					G_u8DataAfterProccing = ((G_u8DataAfterProccing & (0xFF8F)) | (G_xMy_Data.Speed << 4)) ;
 80028b2:	4b37      	ldr	r3, [pc, #220]	; (8002990 <APP_voidBackTasks+0x1cc>)
 80028b4:	881b      	ldrh	r3, [r3, #0]
 80028b6:	b21b      	sxth	r3, r3
 80028b8:	f023 0370 	bic.w	r3, r3, #112	; 0x70
 80028bc:	b21a      	sxth	r2, r3
 80028be:	4b36      	ldr	r3, [pc, #216]	; (8002998 <APP_voidBackTasks+0x1d4>)
 80028c0:	781b      	ldrb	r3, [r3, #0]
 80028c2:	f3c3 1302 	ubfx	r3, r3, #4, #3
 80028c6:	b2db      	uxtb	r3, r3
 80028c8:	011b      	lsls	r3, r3, #4
 80028ca:	b21b      	sxth	r3, r3
 80028cc:	4313      	orrs	r3, r2
 80028ce:	b21b      	sxth	r3, r3
 80028d0:	b29a      	uxth	r2, r3
 80028d2:	4b2f      	ldr	r3, [pc, #188]	; (8002990 <APP_voidBackTasks+0x1cc>)
 80028d4:	801a      	strh	r2, [r3, #0]
}
 80028d6:	e054      	b.n	8002982 <APP_voidBackTasks+0x1be>
					CLR_BIT(G_u8DataAfterProccing , 6) ;
 80028d8:	4b2d      	ldr	r3, [pc, #180]	; (8002990 <APP_voidBackTasks+0x1cc>)
 80028da:	881b      	ldrh	r3, [r3, #0]
 80028dc:	f023 0340 	bic.w	r3, r3, #64	; 0x40
 80028e0:	b29a      	uxth	r2, r3
 80028e2:	4b2b      	ldr	r3, [pc, #172]	; (8002990 <APP_voidBackTasks+0x1cc>)
 80028e4:	801a      	strh	r2, [r3, #0]
					SET_BIT(G_u8DataAfterProccing , 7) ;
 80028e6:	4b2a      	ldr	r3, [pc, #168]	; (8002990 <APP_voidBackTasks+0x1cc>)
 80028e8:	881b      	ldrh	r3, [r3, #0]
 80028ea:	f043 0380 	orr.w	r3, r3, #128	; 0x80
 80028ee:	b29a      	uxth	r2, r3
 80028f0:	4b27      	ldr	r3, [pc, #156]	; (8002990 <APP_voidBackTasks+0x1cc>)
 80028f2:	801a      	strh	r2, [r3, #0]
					G_u8DataAfterProccing = ((G_u8DataAfterProccing & (0xFFF0)) | G_xMy_Data.Direction) ;
 80028f4:	4b26      	ldr	r3, [pc, #152]	; (8002990 <APP_voidBackTasks+0x1cc>)
 80028f6:	881b      	ldrh	r3, [r3, #0]
 80028f8:	b21b      	sxth	r3, r3
 80028fa:	f023 030f 	bic.w	r3, r3, #15
 80028fe:	b21a      	sxth	r2, r3
 8002900:	4b25      	ldr	r3, [pc, #148]	; (8002998 <APP_voidBackTasks+0x1d4>)
 8002902:	781b      	ldrb	r3, [r3, #0]
 8002904:	f3c3 0303 	ubfx	r3, r3, #0, #4
 8002908:	b2db      	uxtb	r3, r3
 800290a:	b21b      	sxth	r3, r3
 800290c:	4313      	orrs	r3, r2
 800290e:	b21b      	sxth	r3, r3
 8002910:	b29a      	uxth	r2, r3
 8002912:	4b1f      	ldr	r3, [pc, #124]	; (8002990 <APP_voidBackTasks+0x1cc>)
 8002914:	801a      	strh	r2, [r3, #0]
					G_u8DataAfterProccing = ((G_u8DataAfterProccing & (0xFF8F)) | (G_u8_LimetedSpeed << 4)) ;
 8002916:	4b1e      	ldr	r3, [pc, #120]	; (8002990 <APP_voidBackTasks+0x1cc>)
 8002918:	881b      	ldrh	r3, [r3, #0]
 800291a:	b21b      	sxth	r3, r3
 800291c:	f023 0370 	bic.w	r3, r3, #112	; 0x70
 8002920:	b21a      	sxth	r2, r3
 8002922:	4b1e      	ldr	r3, [pc, #120]	; (800299c <APP_voidBackTasks+0x1d8>)
 8002924:	781b      	ldrb	r3, [r3, #0]
 8002926:	011b      	lsls	r3, r3, #4
 8002928:	b21b      	sxth	r3, r3
 800292a:	4313      	orrs	r3, r2
 800292c:	b21b      	sxth	r3, r3
 800292e:	b29a      	uxth	r2, r3
 8002930:	4b17      	ldr	r3, [pc, #92]	; (8002990 <APP_voidBackTasks+0x1cc>)
 8002932:	801a      	strh	r2, [r3, #0]
}
 8002934:	e025      	b.n	8002982 <APP_voidBackTasks+0x1be>
			CLR_BIT(G_u8DataAfterProccing , 6) ;
 8002936:	4b16      	ldr	r3, [pc, #88]	; (8002990 <APP_voidBackTasks+0x1cc>)
 8002938:	881b      	ldrh	r3, [r3, #0]
 800293a:	f023 0340 	bic.w	r3, r3, #64	; 0x40
 800293e:	b29a      	uxth	r2, r3
 8002940:	4b13      	ldr	r3, [pc, #76]	; (8002990 <APP_voidBackTasks+0x1cc>)
 8002942:	801a      	strh	r2, [r3, #0]
			CLR_BIT(G_u8DataAfterProccing , 7) ;
 8002944:	4b12      	ldr	r3, [pc, #72]	; (8002990 <APP_voidBackTasks+0x1cc>)
 8002946:	881b      	ldrh	r3, [r3, #0]
 8002948:	f023 0380 	bic.w	r3, r3, #128	; 0x80
 800294c:	b29a      	uxth	r2, r3
 800294e:	4b10      	ldr	r3, [pc, #64]	; (8002990 <APP_voidBackTasks+0x1cc>)
 8002950:	801a      	strh	r2, [r3, #0]
			G_u8DataAfterProccing = ((G_u8DataAfterProccing & (0xFFF0)) | G_xMy_Data.Direction) ;
 8002952:	4b0f      	ldr	r3, [pc, #60]	; (8002990 <APP_voidBackTasks+0x1cc>)
 8002954:	881b      	ldrh	r3, [r3, #0]
 8002956:	b21b      	sxth	r3, r3
 8002958:	f023 030f 	bic.w	r3, r3, #15
 800295c:	b21a      	sxth	r2, r3
 800295e:	4b0e      	ldr	r3, [pc, #56]	; (8002998 <APP_voidBackTasks+0x1d4>)
 8002960:	781b      	ldrb	r3, [r3, #0]
 8002962:	f3c3 0303 	ubfx	r3, r3, #0, #4
 8002966:	b2db      	uxtb	r3, r3
 8002968:	b21b      	sxth	r3, r3
 800296a:	4313      	orrs	r3, r2
 800296c:	b21b      	sxth	r3, r3
 800296e:	b29a      	uxth	r2, r3
 8002970:	4b07      	ldr	r3, [pc, #28]	; (8002990 <APP_voidBackTasks+0x1cc>)
 8002972:	801a      	strh	r2, [r3, #0]
				G_u8DataAfterProccing = ((G_u8DataAfterProccing & (0xFF8F)) | (max_speed << 4)) ;
 8002974:	4b06      	ldr	r3, [pc, #24]	; (8002990 <APP_voidBackTasks+0x1cc>)
 8002976:	881b      	ldrh	r3, [r3, #0]
 8002978:	f043 0370 	orr.w	r3, r3, #112	; 0x70
 800297c:	b29a      	uxth	r2, r3
 800297e:	4b04      	ldr	r3, [pc, #16]	; (8002990 <APP_voidBackTasks+0x1cc>)
 8002980:	801a      	strh	r2, [r3, #0]
}
 8002982:	bf00      	nop
 8002984:	bd80      	pop	{r7, pc}
 8002986:	bf00      	nop
 8002988:	200000fc 	.word	0x200000fc
 800298c:	40240000 	.word	0x40240000
 8002990:	20000100 	.word	0x20000100
 8002994:	40340000 	.word	0x40340000
 8002998:	200000f8 	.word	0x200000f8
 800299c:	200000ca 	.word	0x200000ca

080029a0 <APP_voidBackward_RightTasks>:
void APP_voidBackward_RightTasks ()
{
 80029a0:	b580      	push	{r7, lr}
 80029a2:	af00      	add	r7, sp, #0
	if (G_xNear_Distance.Distance_Left  <= SO_SHORT_DISTANCE) // stop car
 80029a4:	4b6f      	ldr	r3, [pc, #444]	; (8002b64 <APP_voidBackward_RightTasks+0x1c4>)
 80029a6:	789b      	ldrb	r3, [r3, #2]
 80029a8:	4618      	mov	r0, r3
 80029aa:	f7fd fd21 	bl	80003f0 <__aeabi_i2d>
 80029ae:	f04f 0200 	mov.w	r2, #0
 80029b2:	4b6d      	ldr	r3, [pc, #436]	; (8002b68 <APP_voidBackward_RightTasks+0x1c8>)
 80029b4:	f7fd fdf0 	bl	8000598 <__aeabi_dcmple>
 80029b8:	4603      	mov	r3, r0
 80029ba:	2b00      	cmp	r3, #0
 80029bc:	d031      	beq.n	8002a22 <APP_voidBackward_RightTasks+0x82>
		{
		   //direction = stop
		    SET_BIT(G_u8DataAfterProccing , 0) ;
 80029be:	4b6b      	ldr	r3, [pc, #428]	; (8002b6c <APP_voidBackward_RightTasks+0x1cc>)
 80029c0:	881b      	ldrh	r3, [r3, #0]
 80029c2:	f043 0301 	orr.w	r3, r3, #1
 80029c6:	b29a      	uxth	r2, r3
 80029c8:	4b68      	ldr	r3, [pc, #416]	; (8002b6c <APP_voidBackward_RightTasks+0x1cc>)
 80029ca:	801a      	strh	r2, [r3, #0]
		    SET_BIT(G_u8DataAfterProccing , 1) ;
 80029cc:	4b67      	ldr	r3, [pc, #412]	; (8002b6c <APP_voidBackward_RightTasks+0x1cc>)
 80029ce:	881b      	ldrh	r3, [r3, #0]
 80029d0:	f043 0302 	orr.w	r3, r3, #2
 80029d4:	b29a      	uxth	r2, r3
 80029d6:	4b65      	ldr	r3, [pc, #404]	; (8002b6c <APP_voidBackward_RightTasks+0x1cc>)
 80029d8:	801a      	strh	r2, [r3, #0]
		    SET_BIT(G_u8DataAfterProccing , 2) ;
 80029da:	4b64      	ldr	r3, [pc, #400]	; (8002b6c <APP_voidBackward_RightTasks+0x1cc>)
 80029dc:	881b      	ldrh	r3, [r3, #0]
 80029de:	f043 0304 	orr.w	r3, r3, #4
 80029e2:	b29a      	uxth	r2, r3
 80029e4:	4b61      	ldr	r3, [pc, #388]	; (8002b6c <APP_voidBackward_RightTasks+0x1cc>)
 80029e6:	801a      	strh	r2, [r3, #0]
		    CLR_BIT(G_u8DataAfterProccing , 3) ;
 80029e8:	4b60      	ldr	r3, [pc, #384]	; (8002b6c <APP_voidBackward_RightTasks+0x1cc>)
 80029ea:	881b      	ldrh	r3, [r3, #0]
 80029ec:	f023 0308 	bic.w	r3, r3, #8
 80029f0:	b29a      	uxth	r2, r3
 80029f2:	4b5e      	ldr	r3, [pc, #376]	; (8002b6c <APP_voidBackward_RightTasks+0x1cc>)
 80029f4:	801a      	strh	r2, [r3, #0]
		   /*flag = 3*/
			SET_BIT(G_u8DataAfterProccing , 6) ;
 80029f6:	4b5d      	ldr	r3, [pc, #372]	; (8002b6c <APP_voidBackward_RightTasks+0x1cc>)
 80029f8:	881b      	ldrh	r3, [r3, #0]
 80029fa:	f043 0340 	orr.w	r3, r3, #64	; 0x40
 80029fe:	b29a      	uxth	r2, r3
 8002a00:	4b5a      	ldr	r3, [pc, #360]	; (8002b6c <APP_voidBackward_RightTasks+0x1cc>)
 8002a02:	801a      	strh	r2, [r3, #0]
			SET_BIT(G_u8DataAfterProccing , 7) ;
 8002a04:	4b59      	ldr	r3, [pc, #356]	; (8002b6c <APP_voidBackward_RightTasks+0x1cc>)
 8002a06:	881b      	ldrh	r3, [r3, #0]
 8002a08:	f043 0380 	orr.w	r3, r3, #128	; 0x80
 8002a0c:	b29a      	uxth	r2, r3
 8002a0e:	4b57      	ldr	r3, [pc, #348]	; (8002b6c <APP_voidBackward_RightTasks+0x1cc>)
 8002a10:	801a      	strh	r2, [r3, #0]
			/*stop car + alarm*/
			G_u8DataAfterProccing = G_u8DataAfterProccing & 0xFF8F ;
 8002a12:	4b56      	ldr	r3, [pc, #344]	; (8002b6c <APP_voidBackward_RightTasks+0x1cc>)
 8002a14:	881b      	ldrh	r3, [r3, #0]
 8002a16:	f023 0370 	bic.w	r3, r3, #112	; 0x70
 8002a1a:	b29a      	uxth	r2, r3
 8002a1c:	4b53      	ldr	r3, [pc, #332]	; (8002b6c <APP_voidBackward_RightTasks+0x1cc>)
 8002a1e:	801a      	strh	r2, [r3, #0]
			if (speed_control_outomatic == Automatic_ON)
				G_u8DataAfterProccing = ((G_u8DataAfterProccing & (0xFF8F)) | (max_speed << 4)) ;
			else
				G_u8DataAfterProccing = ((G_u8DataAfterProccing & (0xFF8F)) | (G_xMy_Data.Speed << 4)) ;
		}
}
 8002a20:	e09d      	b.n	8002b5e <APP_voidBackward_RightTasks+0x1be>
	else if (G_xNear_Distance.Distance_Left <= UN_SAFE_DISTANCE) //Un Safed Distance
 8002a22:	4b50      	ldr	r3, [pc, #320]	; (8002b64 <APP_voidBackward_RightTasks+0x1c4>)
 8002a24:	789b      	ldrb	r3, [r3, #2]
 8002a26:	4618      	mov	r0, r3
 8002a28:	f7fd fce2 	bl	80003f0 <__aeabi_i2d>
 8002a2c:	f04f 0200 	mov.w	r2, #0
 8002a30:	4b4f      	ldr	r3, [pc, #316]	; (8002b70 <APP_voidBackward_RightTasks+0x1d0>)
 8002a32:	f7fd fdb1 	bl	8000598 <__aeabi_dcmple>
 8002a36:	4603      	mov	r3, r0
 8002a38:	2b00      	cmp	r3, #0
 8002a3a:	d06a      	beq.n	8002b12 <APP_voidBackward_RightTasks+0x172>
				if (G_xMy_Data.Speed <= G_u8_LimetedSpeed)
 8002a3c:	4b4d      	ldr	r3, [pc, #308]	; (8002b74 <APP_voidBackward_RightTasks+0x1d4>)
 8002a3e:	781b      	ldrb	r3, [r3, #0]
 8002a40:	f3c3 1302 	ubfx	r3, r3, #4, #3
 8002a44:	b2db      	uxtb	r3, r3
 8002a46:	461a      	mov	r2, r3
 8002a48:	4b4b      	ldr	r3, [pc, #300]	; (8002b78 <APP_voidBackward_RightTasks+0x1d8>)
 8002a4a:	781b      	ldrb	r3, [r3, #0]
 8002a4c:	429a      	cmp	r2, r3
 8002a4e:	dc31      	bgt.n	8002ab4 <APP_voidBackward_RightTasks+0x114>
					SET_BIT(G_u8DataAfterProccing , 6) ;
 8002a50:	4b46      	ldr	r3, [pc, #280]	; (8002b6c <APP_voidBackward_RightTasks+0x1cc>)
 8002a52:	881b      	ldrh	r3, [r3, #0]
 8002a54:	f043 0340 	orr.w	r3, r3, #64	; 0x40
 8002a58:	b29a      	uxth	r2, r3
 8002a5a:	4b44      	ldr	r3, [pc, #272]	; (8002b6c <APP_voidBackward_RightTasks+0x1cc>)
 8002a5c:	801a      	strh	r2, [r3, #0]
					CLR_BIT(G_u8DataAfterProccing , 7) ;
 8002a5e:	4b43      	ldr	r3, [pc, #268]	; (8002b6c <APP_voidBackward_RightTasks+0x1cc>)
 8002a60:	881b      	ldrh	r3, [r3, #0]
 8002a62:	f023 0380 	bic.w	r3, r3, #128	; 0x80
 8002a66:	b29a      	uxth	r2, r3
 8002a68:	4b40      	ldr	r3, [pc, #256]	; (8002b6c <APP_voidBackward_RightTasks+0x1cc>)
 8002a6a:	801a      	strh	r2, [r3, #0]
					G_u8DataAfterProccing = ((G_u8DataAfterProccing & (0xFFF0)) | G_xMy_Data.Direction) ;
 8002a6c:	4b3f      	ldr	r3, [pc, #252]	; (8002b6c <APP_voidBackward_RightTasks+0x1cc>)
 8002a6e:	881b      	ldrh	r3, [r3, #0]
 8002a70:	b21b      	sxth	r3, r3
 8002a72:	f023 030f 	bic.w	r3, r3, #15
 8002a76:	b21a      	sxth	r2, r3
 8002a78:	4b3e      	ldr	r3, [pc, #248]	; (8002b74 <APP_voidBackward_RightTasks+0x1d4>)
 8002a7a:	781b      	ldrb	r3, [r3, #0]
 8002a7c:	f3c3 0303 	ubfx	r3, r3, #0, #4
 8002a80:	b2db      	uxtb	r3, r3
 8002a82:	b21b      	sxth	r3, r3
 8002a84:	4313      	orrs	r3, r2
 8002a86:	b21b      	sxth	r3, r3
 8002a88:	b29a      	uxth	r2, r3
 8002a8a:	4b38      	ldr	r3, [pc, #224]	; (8002b6c <APP_voidBackward_RightTasks+0x1cc>)
 8002a8c:	801a      	strh	r2, [r3, #0]
					G_u8DataAfterProccing = ((G_u8DataAfterProccing & (0xFF8F)) | (G_xMy_Data.Speed << 4)) ;
 8002a8e:	4b37      	ldr	r3, [pc, #220]	; (8002b6c <APP_voidBackward_RightTasks+0x1cc>)
 8002a90:	881b      	ldrh	r3, [r3, #0]
 8002a92:	b21b      	sxth	r3, r3
 8002a94:	f023 0370 	bic.w	r3, r3, #112	; 0x70
 8002a98:	b21a      	sxth	r2, r3
 8002a9a:	4b36      	ldr	r3, [pc, #216]	; (8002b74 <APP_voidBackward_RightTasks+0x1d4>)
 8002a9c:	781b      	ldrb	r3, [r3, #0]
 8002a9e:	f3c3 1302 	ubfx	r3, r3, #4, #3
 8002aa2:	b2db      	uxtb	r3, r3
 8002aa4:	011b      	lsls	r3, r3, #4
 8002aa6:	b21b      	sxth	r3, r3
 8002aa8:	4313      	orrs	r3, r2
 8002aaa:	b21b      	sxth	r3, r3
 8002aac:	b29a      	uxth	r2, r3
 8002aae:	4b2f      	ldr	r3, [pc, #188]	; (8002b6c <APP_voidBackward_RightTasks+0x1cc>)
 8002ab0:	801a      	strh	r2, [r3, #0]
}
 8002ab2:	e054      	b.n	8002b5e <APP_voidBackward_RightTasks+0x1be>
					CLR_BIT(G_u8DataAfterProccing , 6) ;
 8002ab4:	4b2d      	ldr	r3, [pc, #180]	; (8002b6c <APP_voidBackward_RightTasks+0x1cc>)
 8002ab6:	881b      	ldrh	r3, [r3, #0]
 8002ab8:	f023 0340 	bic.w	r3, r3, #64	; 0x40
 8002abc:	b29a      	uxth	r2, r3
 8002abe:	4b2b      	ldr	r3, [pc, #172]	; (8002b6c <APP_voidBackward_RightTasks+0x1cc>)
 8002ac0:	801a      	strh	r2, [r3, #0]
					SET_BIT(G_u8DataAfterProccing , 7) ;
 8002ac2:	4b2a      	ldr	r3, [pc, #168]	; (8002b6c <APP_voidBackward_RightTasks+0x1cc>)
 8002ac4:	881b      	ldrh	r3, [r3, #0]
 8002ac6:	f043 0380 	orr.w	r3, r3, #128	; 0x80
 8002aca:	b29a      	uxth	r2, r3
 8002acc:	4b27      	ldr	r3, [pc, #156]	; (8002b6c <APP_voidBackward_RightTasks+0x1cc>)
 8002ace:	801a      	strh	r2, [r3, #0]
					G_u8DataAfterProccing = ((G_u8DataAfterProccing & (0xFFF0)) | G_xMy_Data.Direction) ;
 8002ad0:	4b26      	ldr	r3, [pc, #152]	; (8002b6c <APP_voidBackward_RightTasks+0x1cc>)
 8002ad2:	881b      	ldrh	r3, [r3, #0]
 8002ad4:	b21b      	sxth	r3, r3
 8002ad6:	f023 030f 	bic.w	r3, r3, #15
 8002ada:	b21a      	sxth	r2, r3
 8002adc:	4b25      	ldr	r3, [pc, #148]	; (8002b74 <APP_voidBackward_RightTasks+0x1d4>)
 8002ade:	781b      	ldrb	r3, [r3, #0]
 8002ae0:	f3c3 0303 	ubfx	r3, r3, #0, #4
 8002ae4:	b2db      	uxtb	r3, r3
 8002ae6:	b21b      	sxth	r3, r3
 8002ae8:	4313      	orrs	r3, r2
 8002aea:	b21b      	sxth	r3, r3
 8002aec:	b29a      	uxth	r2, r3
 8002aee:	4b1f      	ldr	r3, [pc, #124]	; (8002b6c <APP_voidBackward_RightTasks+0x1cc>)
 8002af0:	801a      	strh	r2, [r3, #0]
					G_u8DataAfterProccing = ((G_u8DataAfterProccing & (0xFF8F)) | (G_u8_LimetedSpeed << 4)) ;
 8002af2:	4b1e      	ldr	r3, [pc, #120]	; (8002b6c <APP_voidBackward_RightTasks+0x1cc>)
 8002af4:	881b      	ldrh	r3, [r3, #0]
 8002af6:	b21b      	sxth	r3, r3
 8002af8:	f023 0370 	bic.w	r3, r3, #112	; 0x70
 8002afc:	b21a      	sxth	r2, r3
 8002afe:	4b1e      	ldr	r3, [pc, #120]	; (8002b78 <APP_voidBackward_RightTasks+0x1d8>)
 8002b00:	781b      	ldrb	r3, [r3, #0]
 8002b02:	011b      	lsls	r3, r3, #4
 8002b04:	b21b      	sxth	r3, r3
 8002b06:	4313      	orrs	r3, r2
 8002b08:	b21b      	sxth	r3, r3
 8002b0a:	b29a      	uxth	r2, r3
 8002b0c:	4b17      	ldr	r3, [pc, #92]	; (8002b6c <APP_voidBackward_RightTasks+0x1cc>)
 8002b0e:	801a      	strh	r2, [r3, #0]
}
 8002b10:	e025      	b.n	8002b5e <APP_voidBackward_RightTasks+0x1be>
			CLR_BIT(G_u8DataAfterProccing , 6) ;
 8002b12:	4b16      	ldr	r3, [pc, #88]	; (8002b6c <APP_voidBackward_RightTasks+0x1cc>)
 8002b14:	881b      	ldrh	r3, [r3, #0]
 8002b16:	f023 0340 	bic.w	r3, r3, #64	; 0x40
 8002b1a:	b29a      	uxth	r2, r3
 8002b1c:	4b13      	ldr	r3, [pc, #76]	; (8002b6c <APP_voidBackward_RightTasks+0x1cc>)
 8002b1e:	801a      	strh	r2, [r3, #0]
			CLR_BIT(G_u8DataAfterProccing , 7) ;
 8002b20:	4b12      	ldr	r3, [pc, #72]	; (8002b6c <APP_voidBackward_RightTasks+0x1cc>)
 8002b22:	881b      	ldrh	r3, [r3, #0]
 8002b24:	f023 0380 	bic.w	r3, r3, #128	; 0x80
 8002b28:	b29a      	uxth	r2, r3
 8002b2a:	4b10      	ldr	r3, [pc, #64]	; (8002b6c <APP_voidBackward_RightTasks+0x1cc>)
 8002b2c:	801a      	strh	r2, [r3, #0]
			G_u8DataAfterProccing = ((G_u8DataAfterProccing & (0xFFF0)) | G_xMy_Data.Direction) ;
 8002b2e:	4b0f      	ldr	r3, [pc, #60]	; (8002b6c <APP_voidBackward_RightTasks+0x1cc>)
 8002b30:	881b      	ldrh	r3, [r3, #0]
 8002b32:	b21b      	sxth	r3, r3
 8002b34:	f023 030f 	bic.w	r3, r3, #15
 8002b38:	b21a      	sxth	r2, r3
 8002b3a:	4b0e      	ldr	r3, [pc, #56]	; (8002b74 <APP_voidBackward_RightTasks+0x1d4>)
 8002b3c:	781b      	ldrb	r3, [r3, #0]
 8002b3e:	f3c3 0303 	ubfx	r3, r3, #0, #4
 8002b42:	b2db      	uxtb	r3, r3
 8002b44:	b21b      	sxth	r3, r3
 8002b46:	4313      	orrs	r3, r2
 8002b48:	b21b      	sxth	r3, r3
 8002b4a:	b29a      	uxth	r2, r3
 8002b4c:	4b07      	ldr	r3, [pc, #28]	; (8002b6c <APP_voidBackward_RightTasks+0x1cc>)
 8002b4e:	801a      	strh	r2, [r3, #0]
				G_u8DataAfterProccing = ((G_u8DataAfterProccing & (0xFF8F)) | (max_speed << 4)) ;
 8002b50:	4b06      	ldr	r3, [pc, #24]	; (8002b6c <APP_voidBackward_RightTasks+0x1cc>)
 8002b52:	881b      	ldrh	r3, [r3, #0]
 8002b54:	f043 0370 	orr.w	r3, r3, #112	; 0x70
 8002b58:	b29a      	uxth	r2, r3
 8002b5a:	4b04      	ldr	r3, [pc, #16]	; (8002b6c <APP_voidBackward_RightTasks+0x1cc>)
 8002b5c:	801a      	strh	r2, [r3, #0]
}
 8002b5e:	bf00      	nop
 8002b60:	bd80      	pop	{r7, pc}
 8002b62:	bf00      	nop
 8002b64:	200000fc 	.word	0x200000fc
 8002b68:	40240000 	.word	0x40240000
 8002b6c:	20000100 	.word	0x20000100
 8002b70:	40340000 	.word	0x40340000
 8002b74:	200000f8 	.word	0x200000f8
 8002b78:	200000ca 	.word	0x200000ca

08002b7c <APP_voidBackward_LEFTTasks>:
void APP_voidBackward_LEFTTasks ()
{
 8002b7c:	b580      	push	{r7, lr}
 8002b7e:	af00      	add	r7, sp, #0
	if (G_xNear_Distance.Distance_Right  <= SO_SHORT_DISTANCE) // stop car
 8002b80:	4b6f      	ldr	r3, [pc, #444]	; (8002d40 <APP_voidBackward_LEFTTasks+0x1c4>)
 8002b82:	78db      	ldrb	r3, [r3, #3]
 8002b84:	4618      	mov	r0, r3
 8002b86:	f7fd fc33 	bl	80003f0 <__aeabi_i2d>
 8002b8a:	f04f 0200 	mov.w	r2, #0
 8002b8e:	4b6d      	ldr	r3, [pc, #436]	; (8002d44 <APP_voidBackward_LEFTTasks+0x1c8>)
 8002b90:	f7fd fd02 	bl	8000598 <__aeabi_dcmple>
 8002b94:	4603      	mov	r3, r0
 8002b96:	2b00      	cmp	r3, #0
 8002b98:	d031      	beq.n	8002bfe <APP_voidBackward_LEFTTasks+0x82>
		{
		   //direction = stop
		    SET_BIT(G_u8DataAfterProccing , 0) ;
 8002b9a:	4b6b      	ldr	r3, [pc, #428]	; (8002d48 <APP_voidBackward_LEFTTasks+0x1cc>)
 8002b9c:	881b      	ldrh	r3, [r3, #0]
 8002b9e:	f043 0301 	orr.w	r3, r3, #1
 8002ba2:	b29a      	uxth	r2, r3
 8002ba4:	4b68      	ldr	r3, [pc, #416]	; (8002d48 <APP_voidBackward_LEFTTasks+0x1cc>)
 8002ba6:	801a      	strh	r2, [r3, #0]
		    SET_BIT(G_u8DataAfterProccing , 1) ;
 8002ba8:	4b67      	ldr	r3, [pc, #412]	; (8002d48 <APP_voidBackward_LEFTTasks+0x1cc>)
 8002baa:	881b      	ldrh	r3, [r3, #0]
 8002bac:	f043 0302 	orr.w	r3, r3, #2
 8002bb0:	b29a      	uxth	r2, r3
 8002bb2:	4b65      	ldr	r3, [pc, #404]	; (8002d48 <APP_voidBackward_LEFTTasks+0x1cc>)
 8002bb4:	801a      	strh	r2, [r3, #0]
		    SET_BIT(G_u8DataAfterProccing , 2) ;
 8002bb6:	4b64      	ldr	r3, [pc, #400]	; (8002d48 <APP_voidBackward_LEFTTasks+0x1cc>)
 8002bb8:	881b      	ldrh	r3, [r3, #0]
 8002bba:	f043 0304 	orr.w	r3, r3, #4
 8002bbe:	b29a      	uxth	r2, r3
 8002bc0:	4b61      	ldr	r3, [pc, #388]	; (8002d48 <APP_voidBackward_LEFTTasks+0x1cc>)
 8002bc2:	801a      	strh	r2, [r3, #0]
		    CLR_BIT(G_u8DataAfterProccing , 3) ;
 8002bc4:	4b60      	ldr	r3, [pc, #384]	; (8002d48 <APP_voidBackward_LEFTTasks+0x1cc>)
 8002bc6:	881b      	ldrh	r3, [r3, #0]
 8002bc8:	f023 0308 	bic.w	r3, r3, #8
 8002bcc:	b29a      	uxth	r2, r3
 8002bce:	4b5e      	ldr	r3, [pc, #376]	; (8002d48 <APP_voidBackward_LEFTTasks+0x1cc>)
 8002bd0:	801a      	strh	r2, [r3, #0]
		   /*flag = 3*/
			SET_BIT(G_u8DataAfterProccing , 6) ;
 8002bd2:	4b5d      	ldr	r3, [pc, #372]	; (8002d48 <APP_voidBackward_LEFTTasks+0x1cc>)
 8002bd4:	881b      	ldrh	r3, [r3, #0]
 8002bd6:	f043 0340 	orr.w	r3, r3, #64	; 0x40
 8002bda:	b29a      	uxth	r2, r3
 8002bdc:	4b5a      	ldr	r3, [pc, #360]	; (8002d48 <APP_voidBackward_LEFTTasks+0x1cc>)
 8002bde:	801a      	strh	r2, [r3, #0]
			SET_BIT(G_u8DataAfterProccing , 7) ;
 8002be0:	4b59      	ldr	r3, [pc, #356]	; (8002d48 <APP_voidBackward_LEFTTasks+0x1cc>)
 8002be2:	881b      	ldrh	r3, [r3, #0]
 8002be4:	f043 0380 	orr.w	r3, r3, #128	; 0x80
 8002be8:	b29a      	uxth	r2, r3
 8002bea:	4b57      	ldr	r3, [pc, #348]	; (8002d48 <APP_voidBackward_LEFTTasks+0x1cc>)
 8002bec:	801a      	strh	r2, [r3, #0]
			/*stop car + alarm*/
			G_u8DataAfterProccing = G_u8DataAfterProccing & 0xFF8F ;
 8002bee:	4b56      	ldr	r3, [pc, #344]	; (8002d48 <APP_voidBackward_LEFTTasks+0x1cc>)
 8002bf0:	881b      	ldrh	r3, [r3, #0]
 8002bf2:	f023 0370 	bic.w	r3, r3, #112	; 0x70
 8002bf6:	b29a      	uxth	r2, r3
 8002bf8:	4b53      	ldr	r3, [pc, #332]	; (8002d48 <APP_voidBackward_LEFTTasks+0x1cc>)
 8002bfa:	801a      	strh	r2, [r3, #0]
			if (speed_control_outomatic == Automatic_ON)
				G_u8DataAfterProccing = ((G_u8DataAfterProccing & (0xFF8F)) | (max_speed << 4)) ;
			else
				G_u8DataAfterProccing = ((G_u8DataAfterProccing & (0xFF8F)) | (G_xMy_Data.Speed << 4)) ;
		}
}
 8002bfc:	e09d      	b.n	8002d3a <APP_voidBackward_LEFTTasks+0x1be>
	else if (G_xNear_Distance.Distance_Right <= UN_SAFE_DISTANCE) //Un Safed Distance
 8002bfe:	4b50      	ldr	r3, [pc, #320]	; (8002d40 <APP_voidBackward_LEFTTasks+0x1c4>)
 8002c00:	78db      	ldrb	r3, [r3, #3]
 8002c02:	4618      	mov	r0, r3
 8002c04:	f7fd fbf4 	bl	80003f0 <__aeabi_i2d>
 8002c08:	f04f 0200 	mov.w	r2, #0
 8002c0c:	4b4f      	ldr	r3, [pc, #316]	; (8002d4c <APP_voidBackward_LEFTTasks+0x1d0>)
 8002c0e:	f7fd fcc3 	bl	8000598 <__aeabi_dcmple>
 8002c12:	4603      	mov	r3, r0
 8002c14:	2b00      	cmp	r3, #0
 8002c16:	d06a      	beq.n	8002cee <APP_voidBackward_LEFTTasks+0x172>
				if (G_xMy_Data.Speed <= G_u8_LimetedSpeed)
 8002c18:	4b4d      	ldr	r3, [pc, #308]	; (8002d50 <APP_voidBackward_LEFTTasks+0x1d4>)
 8002c1a:	781b      	ldrb	r3, [r3, #0]
 8002c1c:	f3c3 1302 	ubfx	r3, r3, #4, #3
 8002c20:	b2db      	uxtb	r3, r3
 8002c22:	461a      	mov	r2, r3
 8002c24:	4b4b      	ldr	r3, [pc, #300]	; (8002d54 <APP_voidBackward_LEFTTasks+0x1d8>)
 8002c26:	781b      	ldrb	r3, [r3, #0]
 8002c28:	429a      	cmp	r2, r3
 8002c2a:	dc31      	bgt.n	8002c90 <APP_voidBackward_LEFTTasks+0x114>
					SET_BIT(G_u8DataAfterProccing , 6) ;
 8002c2c:	4b46      	ldr	r3, [pc, #280]	; (8002d48 <APP_voidBackward_LEFTTasks+0x1cc>)
 8002c2e:	881b      	ldrh	r3, [r3, #0]
 8002c30:	f043 0340 	orr.w	r3, r3, #64	; 0x40
 8002c34:	b29a      	uxth	r2, r3
 8002c36:	4b44      	ldr	r3, [pc, #272]	; (8002d48 <APP_voidBackward_LEFTTasks+0x1cc>)
 8002c38:	801a      	strh	r2, [r3, #0]
					CLR_BIT(G_u8DataAfterProccing , 7) ;
 8002c3a:	4b43      	ldr	r3, [pc, #268]	; (8002d48 <APP_voidBackward_LEFTTasks+0x1cc>)
 8002c3c:	881b      	ldrh	r3, [r3, #0]
 8002c3e:	f023 0380 	bic.w	r3, r3, #128	; 0x80
 8002c42:	b29a      	uxth	r2, r3
 8002c44:	4b40      	ldr	r3, [pc, #256]	; (8002d48 <APP_voidBackward_LEFTTasks+0x1cc>)
 8002c46:	801a      	strh	r2, [r3, #0]
					G_u8DataAfterProccing = ((G_u8DataAfterProccing & (0xFFF0)) | G_xMy_Data.Direction) ;
 8002c48:	4b3f      	ldr	r3, [pc, #252]	; (8002d48 <APP_voidBackward_LEFTTasks+0x1cc>)
 8002c4a:	881b      	ldrh	r3, [r3, #0]
 8002c4c:	b21b      	sxth	r3, r3
 8002c4e:	f023 030f 	bic.w	r3, r3, #15
 8002c52:	b21a      	sxth	r2, r3
 8002c54:	4b3e      	ldr	r3, [pc, #248]	; (8002d50 <APP_voidBackward_LEFTTasks+0x1d4>)
 8002c56:	781b      	ldrb	r3, [r3, #0]
 8002c58:	f3c3 0303 	ubfx	r3, r3, #0, #4
 8002c5c:	b2db      	uxtb	r3, r3
 8002c5e:	b21b      	sxth	r3, r3
 8002c60:	4313      	orrs	r3, r2
 8002c62:	b21b      	sxth	r3, r3
 8002c64:	b29a      	uxth	r2, r3
 8002c66:	4b38      	ldr	r3, [pc, #224]	; (8002d48 <APP_voidBackward_LEFTTasks+0x1cc>)
 8002c68:	801a      	strh	r2, [r3, #0]
					G_u8DataAfterProccing = ((G_u8DataAfterProccing & (0xFF8F)) | (G_xMy_Data.Speed << 4)) ;
 8002c6a:	4b37      	ldr	r3, [pc, #220]	; (8002d48 <APP_voidBackward_LEFTTasks+0x1cc>)
 8002c6c:	881b      	ldrh	r3, [r3, #0]
 8002c6e:	b21b      	sxth	r3, r3
 8002c70:	f023 0370 	bic.w	r3, r3, #112	; 0x70
 8002c74:	b21a      	sxth	r2, r3
 8002c76:	4b36      	ldr	r3, [pc, #216]	; (8002d50 <APP_voidBackward_LEFTTasks+0x1d4>)
 8002c78:	781b      	ldrb	r3, [r3, #0]
 8002c7a:	f3c3 1302 	ubfx	r3, r3, #4, #3
 8002c7e:	b2db      	uxtb	r3, r3
 8002c80:	011b      	lsls	r3, r3, #4
 8002c82:	b21b      	sxth	r3, r3
 8002c84:	4313      	orrs	r3, r2
 8002c86:	b21b      	sxth	r3, r3
 8002c88:	b29a      	uxth	r2, r3
 8002c8a:	4b2f      	ldr	r3, [pc, #188]	; (8002d48 <APP_voidBackward_LEFTTasks+0x1cc>)
 8002c8c:	801a      	strh	r2, [r3, #0]
}
 8002c8e:	e054      	b.n	8002d3a <APP_voidBackward_LEFTTasks+0x1be>
					CLR_BIT(G_u8DataAfterProccing , 6) ;
 8002c90:	4b2d      	ldr	r3, [pc, #180]	; (8002d48 <APP_voidBackward_LEFTTasks+0x1cc>)
 8002c92:	881b      	ldrh	r3, [r3, #0]
 8002c94:	f023 0340 	bic.w	r3, r3, #64	; 0x40
 8002c98:	b29a      	uxth	r2, r3
 8002c9a:	4b2b      	ldr	r3, [pc, #172]	; (8002d48 <APP_voidBackward_LEFTTasks+0x1cc>)
 8002c9c:	801a      	strh	r2, [r3, #0]
					SET_BIT(G_u8DataAfterProccing , 7) ;
 8002c9e:	4b2a      	ldr	r3, [pc, #168]	; (8002d48 <APP_voidBackward_LEFTTasks+0x1cc>)
 8002ca0:	881b      	ldrh	r3, [r3, #0]
 8002ca2:	f043 0380 	orr.w	r3, r3, #128	; 0x80
 8002ca6:	b29a      	uxth	r2, r3
 8002ca8:	4b27      	ldr	r3, [pc, #156]	; (8002d48 <APP_voidBackward_LEFTTasks+0x1cc>)
 8002caa:	801a      	strh	r2, [r3, #0]
					G_u8DataAfterProccing = ((G_u8DataAfterProccing & (0xFFF0)) | G_xMy_Data.Direction) ;
 8002cac:	4b26      	ldr	r3, [pc, #152]	; (8002d48 <APP_voidBackward_LEFTTasks+0x1cc>)
 8002cae:	881b      	ldrh	r3, [r3, #0]
 8002cb0:	b21b      	sxth	r3, r3
 8002cb2:	f023 030f 	bic.w	r3, r3, #15
 8002cb6:	b21a      	sxth	r2, r3
 8002cb8:	4b25      	ldr	r3, [pc, #148]	; (8002d50 <APP_voidBackward_LEFTTasks+0x1d4>)
 8002cba:	781b      	ldrb	r3, [r3, #0]
 8002cbc:	f3c3 0303 	ubfx	r3, r3, #0, #4
 8002cc0:	b2db      	uxtb	r3, r3
 8002cc2:	b21b      	sxth	r3, r3
 8002cc4:	4313      	orrs	r3, r2
 8002cc6:	b21b      	sxth	r3, r3
 8002cc8:	b29a      	uxth	r2, r3
 8002cca:	4b1f      	ldr	r3, [pc, #124]	; (8002d48 <APP_voidBackward_LEFTTasks+0x1cc>)
 8002ccc:	801a      	strh	r2, [r3, #0]
					G_u8DataAfterProccing = ((G_u8DataAfterProccing & (0xFF8F)) | (G_u8_LimetedSpeed << 4)) ;
 8002cce:	4b1e      	ldr	r3, [pc, #120]	; (8002d48 <APP_voidBackward_LEFTTasks+0x1cc>)
 8002cd0:	881b      	ldrh	r3, [r3, #0]
 8002cd2:	b21b      	sxth	r3, r3
 8002cd4:	f023 0370 	bic.w	r3, r3, #112	; 0x70
 8002cd8:	b21a      	sxth	r2, r3
 8002cda:	4b1e      	ldr	r3, [pc, #120]	; (8002d54 <APP_voidBackward_LEFTTasks+0x1d8>)
 8002cdc:	781b      	ldrb	r3, [r3, #0]
 8002cde:	011b      	lsls	r3, r3, #4
 8002ce0:	b21b      	sxth	r3, r3
 8002ce2:	4313      	orrs	r3, r2
 8002ce4:	b21b      	sxth	r3, r3
 8002ce6:	b29a      	uxth	r2, r3
 8002ce8:	4b17      	ldr	r3, [pc, #92]	; (8002d48 <APP_voidBackward_LEFTTasks+0x1cc>)
 8002cea:	801a      	strh	r2, [r3, #0]
}
 8002cec:	e025      	b.n	8002d3a <APP_voidBackward_LEFTTasks+0x1be>
			CLR_BIT(G_u8DataAfterProccing , 6) ;
 8002cee:	4b16      	ldr	r3, [pc, #88]	; (8002d48 <APP_voidBackward_LEFTTasks+0x1cc>)
 8002cf0:	881b      	ldrh	r3, [r3, #0]
 8002cf2:	f023 0340 	bic.w	r3, r3, #64	; 0x40
 8002cf6:	b29a      	uxth	r2, r3
 8002cf8:	4b13      	ldr	r3, [pc, #76]	; (8002d48 <APP_voidBackward_LEFTTasks+0x1cc>)
 8002cfa:	801a      	strh	r2, [r3, #0]
			CLR_BIT(G_u8DataAfterProccing , 7) ;
 8002cfc:	4b12      	ldr	r3, [pc, #72]	; (8002d48 <APP_voidBackward_LEFTTasks+0x1cc>)
 8002cfe:	881b      	ldrh	r3, [r3, #0]
 8002d00:	f023 0380 	bic.w	r3, r3, #128	; 0x80
 8002d04:	b29a      	uxth	r2, r3
 8002d06:	4b10      	ldr	r3, [pc, #64]	; (8002d48 <APP_voidBackward_LEFTTasks+0x1cc>)
 8002d08:	801a      	strh	r2, [r3, #0]
			G_u8DataAfterProccing = ((G_u8DataAfterProccing & (0xFFF0)) | G_xMy_Data.Direction) ;
 8002d0a:	4b0f      	ldr	r3, [pc, #60]	; (8002d48 <APP_voidBackward_LEFTTasks+0x1cc>)
 8002d0c:	881b      	ldrh	r3, [r3, #0]
 8002d0e:	b21b      	sxth	r3, r3
 8002d10:	f023 030f 	bic.w	r3, r3, #15
 8002d14:	b21a      	sxth	r2, r3
 8002d16:	4b0e      	ldr	r3, [pc, #56]	; (8002d50 <APP_voidBackward_LEFTTasks+0x1d4>)
 8002d18:	781b      	ldrb	r3, [r3, #0]
 8002d1a:	f3c3 0303 	ubfx	r3, r3, #0, #4
 8002d1e:	b2db      	uxtb	r3, r3
 8002d20:	b21b      	sxth	r3, r3
 8002d22:	4313      	orrs	r3, r2
 8002d24:	b21b      	sxth	r3, r3
 8002d26:	b29a      	uxth	r2, r3
 8002d28:	4b07      	ldr	r3, [pc, #28]	; (8002d48 <APP_voidBackward_LEFTTasks+0x1cc>)
 8002d2a:	801a      	strh	r2, [r3, #0]
				G_u8DataAfterProccing = ((G_u8DataAfterProccing & (0xFF8F)) | (max_speed << 4)) ;
 8002d2c:	4b06      	ldr	r3, [pc, #24]	; (8002d48 <APP_voidBackward_LEFTTasks+0x1cc>)
 8002d2e:	881b      	ldrh	r3, [r3, #0]
 8002d30:	f043 0370 	orr.w	r3, r3, #112	; 0x70
 8002d34:	b29a      	uxth	r2, r3
 8002d36:	4b04      	ldr	r3, [pc, #16]	; (8002d48 <APP_voidBackward_LEFTTasks+0x1cc>)
 8002d38:	801a      	strh	r2, [r3, #0]
}
 8002d3a:	bf00      	nop
 8002d3c:	bd80      	pop	{r7, pc}
 8002d3e:	bf00      	nop
 8002d40:	200000fc 	.word	0x200000fc
 8002d44:	40240000 	.word	0x40240000
 8002d48:	20000100 	.word	0x20000100
 8002d4c:	40340000 	.word	0x40340000
 8002d50:	200000f8 	.word	0x200000f8
 8002d54:	200000ca 	.word	0x200000ca

08002d58 <APP_voidRight_LeftTasks>:
void APP_voidRight_LeftTasks ()
{
 8002d58:	b480      	push	{r7}
 8002d5a:	af00      	add	r7, sp, #0

}
 8002d5c:	bf00      	nop
 8002d5e:	46bd      	mov	sp, r7
 8002d60:	bc80      	pop	{r7}
 8002d62:	4770      	bx	lr

08002d64 <APP_voidForward_RightTasks>:
void APP_voidForward_RightTasks ()
{
 8002d64:	b580      	push	{r7, lr}
 8002d66:	af00      	add	r7, sp, #0
	if (G_xNear_Distance.Distance_Right  <= SO_SHORT_DISTANCE) // stop car
 8002d68:	4b6f      	ldr	r3, [pc, #444]	; (8002f28 <APP_voidForward_RightTasks+0x1c4>)
 8002d6a:	78db      	ldrb	r3, [r3, #3]
 8002d6c:	4618      	mov	r0, r3
 8002d6e:	f7fd fb3f 	bl	80003f0 <__aeabi_i2d>
 8002d72:	f04f 0200 	mov.w	r2, #0
 8002d76:	4b6d      	ldr	r3, [pc, #436]	; (8002f2c <APP_voidForward_RightTasks+0x1c8>)
 8002d78:	f7fd fc0e 	bl	8000598 <__aeabi_dcmple>
 8002d7c:	4603      	mov	r3, r0
 8002d7e:	2b00      	cmp	r3, #0
 8002d80:	d031      	beq.n	8002de6 <APP_voidForward_RightTasks+0x82>
		{
		   //direction = stop
		    SET_BIT(G_u8DataAfterProccing , 0) ;
 8002d82:	4b6b      	ldr	r3, [pc, #428]	; (8002f30 <APP_voidForward_RightTasks+0x1cc>)
 8002d84:	881b      	ldrh	r3, [r3, #0]
 8002d86:	f043 0301 	orr.w	r3, r3, #1
 8002d8a:	b29a      	uxth	r2, r3
 8002d8c:	4b68      	ldr	r3, [pc, #416]	; (8002f30 <APP_voidForward_RightTasks+0x1cc>)
 8002d8e:	801a      	strh	r2, [r3, #0]
		    SET_BIT(G_u8DataAfterProccing , 1) ;
 8002d90:	4b67      	ldr	r3, [pc, #412]	; (8002f30 <APP_voidForward_RightTasks+0x1cc>)
 8002d92:	881b      	ldrh	r3, [r3, #0]
 8002d94:	f043 0302 	orr.w	r3, r3, #2
 8002d98:	b29a      	uxth	r2, r3
 8002d9a:	4b65      	ldr	r3, [pc, #404]	; (8002f30 <APP_voidForward_RightTasks+0x1cc>)
 8002d9c:	801a      	strh	r2, [r3, #0]
		    SET_BIT(G_u8DataAfterProccing , 2) ;
 8002d9e:	4b64      	ldr	r3, [pc, #400]	; (8002f30 <APP_voidForward_RightTasks+0x1cc>)
 8002da0:	881b      	ldrh	r3, [r3, #0]
 8002da2:	f043 0304 	orr.w	r3, r3, #4
 8002da6:	b29a      	uxth	r2, r3
 8002da8:	4b61      	ldr	r3, [pc, #388]	; (8002f30 <APP_voidForward_RightTasks+0x1cc>)
 8002daa:	801a      	strh	r2, [r3, #0]
		    CLR_BIT(G_u8DataAfterProccing , 3) ;
 8002dac:	4b60      	ldr	r3, [pc, #384]	; (8002f30 <APP_voidForward_RightTasks+0x1cc>)
 8002dae:	881b      	ldrh	r3, [r3, #0]
 8002db0:	f023 0308 	bic.w	r3, r3, #8
 8002db4:	b29a      	uxth	r2, r3
 8002db6:	4b5e      	ldr	r3, [pc, #376]	; (8002f30 <APP_voidForward_RightTasks+0x1cc>)
 8002db8:	801a      	strh	r2, [r3, #0]
		   /*flag = 3*/
			SET_BIT(G_u8DataAfterProccing , 6) ;
 8002dba:	4b5d      	ldr	r3, [pc, #372]	; (8002f30 <APP_voidForward_RightTasks+0x1cc>)
 8002dbc:	881b      	ldrh	r3, [r3, #0]
 8002dbe:	f043 0340 	orr.w	r3, r3, #64	; 0x40
 8002dc2:	b29a      	uxth	r2, r3
 8002dc4:	4b5a      	ldr	r3, [pc, #360]	; (8002f30 <APP_voidForward_RightTasks+0x1cc>)
 8002dc6:	801a      	strh	r2, [r3, #0]
			SET_BIT(G_u8DataAfterProccing , 7) ;
 8002dc8:	4b59      	ldr	r3, [pc, #356]	; (8002f30 <APP_voidForward_RightTasks+0x1cc>)
 8002dca:	881b      	ldrh	r3, [r3, #0]
 8002dcc:	f043 0380 	orr.w	r3, r3, #128	; 0x80
 8002dd0:	b29a      	uxth	r2, r3
 8002dd2:	4b57      	ldr	r3, [pc, #348]	; (8002f30 <APP_voidForward_RightTasks+0x1cc>)
 8002dd4:	801a      	strh	r2, [r3, #0]
			/*stop car + alarm*/
			G_u8DataAfterProccing = G_u8DataAfterProccing & 0xFF8F ;
 8002dd6:	4b56      	ldr	r3, [pc, #344]	; (8002f30 <APP_voidForward_RightTasks+0x1cc>)
 8002dd8:	881b      	ldrh	r3, [r3, #0]
 8002dda:	f023 0370 	bic.w	r3, r3, #112	; 0x70
 8002dde:	b29a      	uxth	r2, r3
 8002de0:	4b53      	ldr	r3, [pc, #332]	; (8002f30 <APP_voidForward_RightTasks+0x1cc>)
 8002de2:	801a      	strh	r2, [r3, #0]
			if (speed_control_outomatic == Automatic_ON)
				G_u8DataAfterProccing = ((G_u8DataAfterProccing & (0xFF8F)) | (max_speed << 4)) ;
			else
				G_u8DataAfterProccing = ((G_u8DataAfterProccing & (0xFF8F)) | (G_xMy_Data.Speed << 4)) ;
		}
}
 8002de4:	e09d      	b.n	8002f22 <APP_voidForward_RightTasks+0x1be>
	else if (G_xNear_Distance.Distance_Right <= UN_SAFE_DISTANCE) //Un Safed Distance
 8002de6:	4b50      	ldr	r3, [pc, #320]	; (8002f28 <APP_voidForward_RightTasks+0x1c4>)
 8002de8:	78db      	ldrb	r3, [r3, #3]
 8002dea:	4618      	mov	r0, r3
 8002dec:	f7fd fb00 	bl	80003f0 <__aeabi_i2d>
 8002df0:	f04f 0200 	mov.w	r2, #0
 8002df4:	4b4f      	ldr	r3, [pc, #316]	; (8002f34 <APP_voidForward_RightTasks+0x1d0>)
 8002df6:	f7fd fbcf 	bl	8000598 <__aeabi_dcmple>
 8002dfa:	4603      	mov	r3, r0
 8002dfc:	2b00      	cmp	r3, #0
 8002dfe:	d06a      	beq.n	8002ed6 <APP_voidForward_RightTasks+0x172>
				if (G_xMy_Data.Speed <= G_u8_LimetedSpeed)
 8002e00:	4b4d      	ldr	r3, [pc, #308]	; (8002f38 <APP_voidForward_RightTasks+0x1d4>)
 8002e02:	781b      	ldrb	r3, [r3, #0]
 8002e04:	f3c3 1302 	ubfx	r3, r3, #4, #3
 8002e08:	b2db      	uxtb	r3, r3
 8002e0a:	461a      	mov	r2, r3
 8002e0c:	4b4b      	ldr	r3, [pc, #300]	; (8002f3c <APP_voidForward_RightTasks+0x1d8>)
 8002e0e:	781b      	ldrb	r3, [r3, #0]
 8002e10:	429a      	cmp	r2, r3
 8002e12:	dc31      	bgt.n	8002e78 <APP_voidForward_RightTasks+0x114>
					SET_BIT(G_u8DataAfterProccing , 6) ;
 8002e14:	4b46      	ldr	r3, [pc, #280]	; (8002f30 <APP_voidForward_RightTasks+0x1cc>)
 8002e16:	881b      	ldrh	r3, [r3, #0]
 8002e18:	f043 0340 	orr.w	r3, r3, #64	; 0x40
 8002e1c:	b29a      	uxth	r2, r3
 8002e1e:	4b44      	ldr	r3, [pc, #272]	; (8002f30 <APP_voidForward_RightTasks+0x1cc>)
 8002e20:	801a      	strh	r2, [r3, #0]
					CLR_BIT(G_u8DataAfterProccing , 7) ;
 8002e22:	4b43      	ldr	r3, [pc, #268]	; (8002f30 <APP_voidForward_RightTasks+0x1cc>)
 8002e24:	881b      	ldrh	r3, [r3, #0]
 8002e26:	f023 0380 	bic.w	r3, r3, #128	; 0x80
 8002e2a:	b29a      	uxth	r2, r3
 8002e2c:	4b40      	ldr	r3, [pc, #256]	; (8002f30 <APP_voidForward_RightTasks+0x1cc>)
 8002e2e:	801a      	strh	r2, [r3, #0]
					G_u8DataAfterProccing = ((G_u8DataAfterProccing & (0xFFF0)) | G_xMy_Data.Direction) ;
 8002e30:	4b3f      	ldr	r3, [pc, #252]	; (8002f30 <APP_voidForward_RightTasks+0x1cc>)
 8002e32:	881b      	ldrh	r3, [r3, #0]
 8002e34:	b21b      	sxth	r3, r3
 8002e36:	f023 030f 	bic.w	r3, r3, #15
 8002e3a:	b21a      	sxth	r2, r3
 8002e3c:	4b3e      	ldr	r3, [pc, #248]	; (8002f38 <APP_voidForward_RightTasks+0x1d4>)
 8002e3e:	781b      	ldrb	r3, [r3, #0]
 8002e40:	f3c3 0303 	ubfx	r3, r3, #0, #4
 8002e44:	b2db      	uxtb	r3, r3
 8002e46:	b21b      	sxth	r3, r3
 8002e48:	4313      	orrs	r3, r2
 8002e4a:	b21b      	sxth	r3, r3
 8002e4c:	b29a      	uxth	r2, r3
 8002e4e:	4b38      	ldr	r3, [pc, #224]	; (8002f30 <APP_voidForward_RightTasks+0x1cc>)
 8002e50:	801a      	strh	r2, [r3, #0]
					G_u8DataAfterProccing = ((G_u8DataAfterProccing & (0xFF8F)) | (G_xMy_Data.Speed << 4)) ;
 8002e52:	4b37      	ldr	r3, [pc, #220]	; (8002f30 <APP_voidForward_RightTasks+0x1cc>)
 8002e54:	881b      	ldrh	r3, [r3, #0]
 8002e56:	b21b      	sxth	r3, r3
 8002e58:	f023 0370 	bic.w	r3, r3, #112	; 0x70
 8002e5c:	b21a      	sxth	r2, r3
 8002e5e:	4b36      	ldr	r3, [pc, #216]	; (8002f38 <APP_voidForward_RightTasks+0x1d4>)
 8002e60:	781b      	ldrb	r3, [r3, #0]
 8002e62:	f3c3 1302 	ubfx	r3, r3, #4, #3
 8002e66:	b2db      	uxtb	r3, r3
 8002e68:	011b      	lsls	r3, r3, #4
 8002e6a:	b21b      	sxth	r3, r3
 8002e6c:	4313      	orrs	r3, r2
 8002e6e:	b21b      	sxth	r3, r3
 8002e70:	b29a      	uxth	r2, r3
 8002e72:	4b2f      	ldr	r3, [pc, #188]	; (8002f30 <APP_voidForward_RightTasks+0x1cc>)
 8002e74:	801a      	strh	r2, [r3, #0]
}
 8002e76:	e054      	b.n	8002f22 <APP_voidForward_RightTasks+0x1be>
					CLR_BIT(G_u8DataAfterProccing , 6) ;
 8002e78:	4b2d      	ldr	r3, [pc, #180]	; (8002f30 <APP_voidForward_RightTasks+0x1cc>)
 8002e7a:	881b      	ldrh	r3, [r3, #0]
 8002e7c:	f023 0340 	bic.w	r3, r3, #64	; 0x40
 8002e80:	b29a      	uxth	r2, r3
 8002e82:	4b2b      	ldr	r3, [pc, #172]	; (8002f30 <APP_voidForward_RightTasks+0x1cc>)
 8002e84:	801a      	strh	r2, [r3, #0]
					SET_BIT(G_u8DataAfterProccing , 7) ;
 8002e86:	4b2a      	ldr	r3, [pc, #168]	; (8002f30 <APP_voidForward_RightTasks+0x1cc>)
 8002e88:	881b      	ldrh	r3, [r3, #0]
 8002e8a:	f043 0380 	orr.w	r3, r3, #128	; 0x80
 8002e8e:	b29a      	uxth	r2, r3
 8002e90:	4b27      	ldr	r3, [pc, #156]	; (8002f30 <APP_voidForward_RightTasks+0x1cc>)
 8002e92:	801a      	strh	r2, [r3, #0]
					G_u8DataAfterProccing = ((G_u8DataAfterProccing & (0xFFF0)) | G_xMy_Data.Direction) ;
 8002e94:	4b26      	ldr	r3, [pc, #152]	; (8002f30 <APP_voidForward_RightTasks+0x1cc>)
 8002e96:	881b      	ldrh	r3, [r3, #0]
 8002e98:	b21b      	sxth	r3, r3
 8002e9a:	f023 030f 	bic.w	r3, r3, #15
 8002e9e:	b21a      	sxth	r2, r3
 8002ea0:	4b25      	ldr	r3, [pc, #148]	; (8002f38 <APP_voidForward_RightTasks+0x1d4>)
 8002ea2:	781b      	ldrb	r3, [r3, #0]
 8002ea4:	f3c3 0303 	ubfx	r3, r3, #0, #4
 8002ea8:	b2db      	uxtb	r3, r3
 8002eaa:	b21b      	sxth	r3, r3
 8002eac:	4313      	orrs	r3, r2
 8002eae:	b21b      	sxth	r3, r3
 8002eb0:	b29a      	uxth	r2, r3
 8002eb2:	4b1f      	ldr	r3, [pc, #124]	; (8002f30 <APP_voidForward_RightTasks+0x1cc>)
 8002eb4:	801a      	strh	r2, [r3, #0]
					G_u8DataAfterProccing = ((G_u8DataAfterProccing & (0xFF8F)) | (G_u8_LimetedSpeed << 4)) ;
 8002eb6:	4b1e      	ldr	r3, [pc, #120]	; (8002f30 <APP_voidForward_RightTasks+0x1cc>)
 8002eb8:	881b      	ldrh	r3, [r3, #0]
 8002eba:	b21b      	sxth	r3, r3
 8002ebc:	f023 0370 	bic.w	r3, r3, #112	; 0x70
 8002ec0:	b21a      	sxth	r2, r3
 8002ec2:	4b1e      	ldr	r3, [pc, #120]	; (8002f3c <APP_voidForward_RightTasks+0x1d8>)
 8002ec4:	781b      	ldrb	r3, [r3, #0]
 8002ec6:	011b      	lsls	r3, r3, #4
 8002ec8:	b21b      	sxth	r3, r3
 8002eca:	4313      	orrs	r3, r2
 8002ecc:	b21b      	sxth	r3, r3
 8002ece:	b29a      	uxth	r2, r3
 8002ed0:	4b17      	ldr	r3, [pc, #92]	; (8002f30 <APP_voidForward_RightTasks+0x1cc>)
 8002ed2:	801a      	strh	r2, [r3, #0]
}
 8002ed4:	e025      	b.n	8002f22 <APP_voidForward_RightTasks+0x1be>
			CLR_BIT(G_u8DataAfterProccing , 6) ;
 8002ed6:	4b16      	ldr	r3, [pc, #88]	; (8002f30 <APP_voidForward_RightTasks+0x1cc>)
 8002ed8:	881b      	ldrh	r3, [r3, #0]
 8002eda:	f023 0340 	bic.w	r3, r3, #64	; 0x40
 8002ede:	b29a      	uxth	r2, r3
 8002ee0:	4b13      	ldr	r3, [pc, #76]	; (8002f30 <APP_voidForward_RightTasks+0x1cc>)
 8002ee2:	801a      	strh	r2, [r3, #0]
			CLR_BIT(G_u8DataAfterProccing , 7) ;
 8002ee4:	4b12      	ldr	r3, [pc, #72]	; (8002f30 <APP_voidForward_RightTasks+0x1cc>)
 8002ee6:	881b      	ldrh	r3, [r3, #0]
 8002ee8:	f023 0380 	bic.w	r3, r3, #128	; 0x80
 8002eec:	b29a      	uxth	r2, r3
 8002eee:	4b10      	ldr	r3, [pc, #64]	; (8002f30 <APP_voidForward_RightTasks+0x1cc>)
 8002ef0:	801a      	strh	r2, [r3, #0]
			G_u8DataAfterProccing = ((G_u8DataAfterProccing & (0xFFF0)) | G_xMy_Data.Direction) ;
 8002ef2:	4b0f      	ldr	r3, [pc, #60]	; (8002f30 <APP_voidForward_RightTasks+0x1cc>)
 8002ef4:	881b      	ldrh	r3, [r3, #0]
 8002ef6:	b21b      	sxth	r3, r3
 8002ef8:	f023 030f 	bic.w	r3, r3, #15
 8002efc:	b21a      	sxth	r2, r3
 8002efe:	4b0e      	ldr	r3, [pc, #56]	; (8002f38 <APP_voidForward_RightTasks+0x1d4>)
 8002f00:	781b      	ldrb	r3, [r3, #0]
 8002f02:	f3c3 0303 	ubfx	r3, r3, #0, #4
 8002f06:	b2db      	uxtb	r3, r3
 8002f08:	b21b      	sxth	r3, r3
 8002f0a:	4313      	orrs	r3, r2
 8002f0c:	b21b      	sxth	r3, r3
 8002f0e:	b29a      	uxth	r2, r3
 8002f10:	4b07      	ldr	r3, [pc, #28]	; (8002f30 <APP_voidForward_RightTasks+0x1cc>)
 8002f12:	801a      	strh	r2, [r3, #0]
				G_u8DataAfterProccing = ((G_u8DataAfterProccing & (0xFF8F)) | (max_speed << 4)) ;
 8002f14:	4b06      	ldr	r3, [pc, #24]	; (8002f30 <APP_voidForward_RightTasks+0x1cc>)
 8002f16:	881b      	ldrh	r3, [r3, #0]
 8002f18:	f043 0370 	orr.w	r3, r3, #112	; 0x70
 8002f1c:	b29a      	uxth	r2, r3
 8002f1e:	4b04      	ldr	r3, [pc, #16]	; (8002f30 <APP_voidForward_RightTasks+0x1cc>)
 8002f20:	801a      	strh	r2, [r3, #0]
}
 8002f22:	bf00      	nop
 8002f24:	bd80      	pop	{r7, pc}
 8002f26:	bf00      	nop
 8002f28:	200000fc 	.word	0x200000fc
 8002f2c:	40240000 	.word	0x40240000
 8002f30:	20000100 	.word	0x20000100
 8002f34:	40340000 	.word	0x40340000
 8002f38:	200000f8 	.word	0x200000f8
 8002f3c:	200000ca 	.word	0x200000ca

08002f40 <APP_voidForward_LeftTasks>:
void APP_voidForward_LeftTasks ()
{
 8002f40:	b580      	push	{r7, lr}
 8002f42:	af00      	add	r7, sp, #0
	if (G_xNear_Distance.Distance_Left  <= SO_SHORT_DISTANCE) // stop car
 8002f44:	4b6f      	ldr	r3, [pc, #444]	; (8003104 <APP_voidForward_LeftTasks+0x1c4>)
 8002f46:	789b      	ldrb	r3, [r3, #2]
 8002f48:	4618      	mov	r0, r3
 8002f4a:	f7fd fa51 	bl	80003f0 <__aeabi_i2d>
 8002f4e:	f04f 0200 	mov.w	r2, #0
 8002f52:	4b6d      	ldr	r3, [pc, #436]	; (8003108 <APP_voidForward_LeftTasks+0x1c8>)
 8002f54:	f7fd fb20 	bl	8000598 <__aeabi_dcmple>
 8002f58:	4603      	mov	r3, r0
 8002f5a:	2b00      	cmp	r3, #0
 8002f5c:	d031      	beq.n	8002fc2 <APP_voidForward_LeftTasks+0x82>
		{
		   //direction = stop
		    SET_BIT(G_u8DataAfterProccing , 0) ;
 8002f5e:	4b6b      	ldr	r3, [pc, #428]	; (800310c <APP_voidForward_LeftTasks+0x1cc>)
 8002f60:	881b      	ldrh	r3, [r3, #0]
 8002f62:	f043 0301 	orr.w	r3, r3, #1
 8002f66:	b29a      	uxth	r2, r3
 8002f68:	4b68      	ldr	r3, [pc, #416]	; (800310c <APP_voidForward_LeftTasks+0x1cc>)
 8002f6a:	801a      	strh	r2, [r3, #0]
		    SET_BIT(G_u8DataAfterProccing , 1) ;
 8002f6c:	4b67      	ldr	r3, [pc, #412]	; (800310c <APP_voidForward_LeftTasks+0x1cc>)
 8002f6e:	881b      	ldrh	r3, [r3, #0]
 8002f70:	f043 0302 	orr.w	r3, r3, #2
 8002f74:	b29a      	uxth	r2, r3
 8002f76:	4b65      	ldr	r3, [pc, #404]	; (800310c <APP_voidForward_LeftTasks+0x1cc>)
 8002f78:	801a      	strh	r2, [r3, #0]
		    SET_BIT(G_u8DataAfterProccing , 2) ;
 8002f7a:	4b64      	ldr	r3, [pc, #400]	; (800310c <APP_voidForward_LeftTasks+0x1cc>)
 8002f7c:	881b      	ldrh	r3, [r3, #0]
 8002f7e:	f043 0304 	orr.w	r3, r3, #4
 8002f82:	b29a      	uxth	r2, r3
 8002f84:	4b61      	ldr	r3, [pc, #388]	; (800310c <APP_voidForward_LeftTasks+0x1cc>)
 8002f86:	801a      	strh	r2, [r3, #0]
		    CLR_BIT(G_u8DataAfterProccing , 3) ;
 8002f88:	4b60      	ldr	r3, [pc, #384]	; (800310c <APP_voidForward_LeftTasks+0x1cc>)
 8002f8a:	881b      	ldrh	r3, [r3, #0]
 8002f8c:	f023 0308 	bic.w	r3, r3, #8
 8002f90:	b29a      	uxth	r2, r3
 8002f92:	4b5e      	ldr	r3, [pc, #376]	; (800310c <APP_voidForward_LeftTasks+0x1cc>)
 8002f94:	801a      	strh	r2, [r3, #0]
		   /*flag = 3*/
			SET_BIT(G_u8DataAfterProccing , 6) ;
 8002f96:	4b5d      	ldr	r3, [pc, #372]	; (800310c <APP_voidForward_LeftTasks+0x1cc>)
 8002f98:	881b      	ldrh	r3, [r3, #0]
 8002f9a:	f043 0340 	orr.w	r3, r3, #64	; 0x40
 8002f9e:	b29a      	uxth	r2, r3
 8002fa0:	4b5a      	ldr	r3, [pc, #360]	; (800310c <APP_voidForward_LeftTasks+0x1cc>)
 8002fa2:	801a      	strh	r2, [r3, #0]
			SET_BIT(G_u8DataAfterProccing , 7) ;
 8002fa4:	4b59      	ldr	r3, [pc, #356]	; (800310c <APP_voidForward_LeftTasks+0x1cc>)
 8002fa6:	881b      	ldrh	r3, [r3, #0]
 8002fa8:	f043 0380 	orr.w	r3, r3, #128	; 0x80
 8002fac:	b29a      	uxth	r2, r3
 8002fae:	4b57      	ldr	r3, [pc, #348]	; (800310c <APP_voidForward_LeftTasks+0x1cc>)
 8002fb0:	801a      	strh	r2, [r3, #0]
			/*stop car + alarm*/
			G_u8DataAfterProccing = G_u8DataAfterProccing & 0xFF8F ;
 8002fb2:	4b56      	ldr	r3, [pc, #344]	; (800310c <APP_voidForward_LeftTasks+0x1cc>)
 8002fb4:	881b      	ldrh	r3, [r3, #0]
 8002fb6:	f023 0370 	bic.w	r3, r3, #112	; 0x70
 8002fba:	b29a      	uxth	r2, r3
 8002fbc:	4b53      	ldr	r3, [pc, #332]	; (800310c <APP_voidForward_LeftTasks+0x1cc>)
 8002fbe:	801a      	strh	r2, [r3, #0]
			if (speed_control_outomatic == Automatic_ON)
				G_u8DataAfterProccing = ((G_u8DataAfterProccing & (0xFF8F)) | (max_speed << 4)) ;
			else
				G_u8DataAfterProccing = ((G_u8DataAfterProccing & (0xFF8F)) | (G_xMy_Data.Speed << 4)) ;
		}
}
 8002fc0:	e09d      	b.n	80030fe <APP_voidForward_LeftTasks+0x1be>
	else if (G_xNear_Distance.Distance_Left <= UN_SAFE_DISTANCE) //Un Safed Distance
 8002fc2:	4b50      	ldr	r3, [pc, #320]	; (8003104 <APP_voidForward_LeftTasks+0x1c4>)
 8002fc4:	789b      	ldrb	r3, [r3, #2]
 8002fc6:	4618      	mov	r0, r3
 8002fc8:	f7fd fa12 	bl	80003f0 <__aeabi_i2d>
 8002fcc:	f04f 0200 	mov.w	r2, #0
 8002fd0:	4b4f      	ldr	r3, [pc, #316]	; (8003110 <APP_voidForward_LeftTasks+0x1d0>)
 8002fd2:	f7fd fae1 	bl	8000598 <__aeabi_dcmple>
 8002fd6:	4603      	mov	r3, r0
 8002fd8:	2b00      	cmp	r3, #0
 8002fda:	d06a      	beq.n	80030b2 <APP_voidForward_LeftTasks+0x172>
				if (G_xMy_Data.Speed <= G_u8_LimetedSpeed)
 8002fdc:	4b4d      	ldr	r3, [pc, #308]	; (8003114 <APP_voidForward_LeftTasks+0x1d4>)
 8002fde:	781b      	ldrb	r3, [r3, #0]
 8002fe0:	f3c3 1302 	ubfx	r3, r3, #4, #3
 8002fe4:	b2db      	uxtb	r3, r3
 8002fe6:	461a      	mov	r2, r3
 8002fe8:	4b4b      	ldr	r3, [pc, #300]	; (8003118 <APP_voidForward_LeftTasks+0x1d8>)
 8002fea:	781b      	ldrb	r3, [r3, #0]
 8002fec:	429a      	cmp	r2, r3
 8002fee:	dc31      	bgt.n	8003054 <APP_voidForward_LeftTasks+0x114>
					SET_BIT(G_u8DataAfterProccing , 6) ;
 8002ff0:	4b46      	ldr	r3, [pc, #280]	; (800310c <APP_voidForward_LeftTasks+0x1cc>)
 8002ff2:	881b      	ldrh	r3, [r3, #0]
 8002ff4:	f043 0340 	orr.w	r3, r3, #64	; 0x40
 8002ff8:	b29a      	uxth	r2, r3
 8002ffa:	4b44      	ldr	r3, [pc, #272]	; (800310c <APP_voidForward_LeftTasks+0x1cc>)
 8002ffc:	801a      	strh	r2, [r3, #0]
					CLR_BIT(G_u8DataAfterProccing , 7) ;
 8002ffe:	4b43      	ldr	r3, [pc, #268]	; (800310c <APP_voidForward_LeftTasks+0x1cc>)
 8003000:	881b      	ldrh	r3, [r3, #0]
 8003002:	f023 0380 	bic.w	r3, r3, #128	; 0x80
 8003006:	b29a      	uxth	r2, r3
 8003008:	4b40      	ldr	r3, [pc, #256]	; (800310c <APP_voidForward_LeftTasks+0x1cc>)
 800300a:	801a      	strh	r2, [r3, #0]
					G_u8DataAfterProccing = ((G_u8DataAfterProccing & (0xFFF0)) | G_xMy_Data.Direction) ;
 800300c:	4b3f      	ldr	r3, [pc, #252]	; (800310c <APP_voidForward_LeftTasks+0x1cc>)
 800300e:	881b      	ldrh	r3, [r3, #0]
 8003010:	b21b      	sxth	r3, r3
 8003012:	f023 030f 	bic.w	r3, r3, #15
 8003016:	b21a      	sxth	r2, r3
 8003018:	4b3e      	ldr	r3, [pc, #248]	; (8003114 <APP_voidForward_LeftTasks+0x1d4>)
 800301a:	781b      	ldrb	r3, [r3, #0]
 800301c:	f3c3 0303 	ubfx	r3, r3, #0, #4
 8003020:	b2db      	uxtb	r3, r3
 8003022:	b21b      	sxth	r3, r3
 8003024:	4313      	orrs	r3, r2
 8003026:	b21b      	sxth	r3, r3
 8003028:	b29a      	uxth	r2, r3
 800302a:	4b38      	ldr	r3, [pc, #224]	; (800310c <APP_voidForward_LeftTasks+0x1cc>)
 800302c:	801a      	strh	r2, [r3, #0]
					G_u8DataAfterProccing = ((G_u8DataAfterProccing & (0xFF8F)) | (G_xMy_Data.Speed << 4)) ;
 800302e:	4b37      	ldr	r3, [pc, #220]	; (800310c <APP_voidForward_LeftTasks+0x1cc>)
 8003030:	881b      	ldrh	r3, [r3, #0]
 8003032:	b21b      	sxth	r3, r3
 8003034:	f023 0370 	bic.w	r3, r3, #112	; 0x70
 8003038:	b21a      	sxth	r2, r3
 800303a:	4b36      	ldr	r3, [pc, #216]	; (8003114 <APP_voidForward_LeftTasks+0x1d4>)
 800303c:	781b      	ldrb	r3, [r3, #0]
 800303e:	f3c3 1302 	ubfx	r3, r3, #4, #3
 8003042:	b2db      	uxtb	r3, r3
 8003044:	011b      	lsls	r3, r3, #4
 8003046:	b21b      	sxth	r3, r3
 8003048:	4313      	orrs	r3, r2
 800304a:	b21b      	sxth	r3, r3
 800304c:	b29a      	uxth	r2, r3
 800304e:	4b2f      	ldr	r3, [pc, #188]	; (800310c <APP_voidForward_LeftTasks+0x1cc>)
 8003050:	801a      	strh	r2, [r3, #0]
}
 8003052:	e054      	b.n	80030fe <APP_voidForward_LeftTasks+0x1be>
					CLR_BIT(G_u8DataAfterProccing , 6) ;
 8003054:	4b2d      	ldr	r3, [pc, #180]	; (800310c <APP_voidForward_LeftTasks+0x1cc>)
 8003056:	881b      	ldrh	r3, [r3, #0]
 8003058:	f023 0340 	bic.w	r3, r3, #64	; 0x40
 800305c:	b29a      	uxth	r2, r3
 800305e:	4b2b      	ldr	r3, [pc, #172]	; (800310c <APP_voidForward_LeftTasks+0x1cc>)
 8003060:	801a      	strh	r2, [r3, #0]
					SET_BIT(G_u8DataAfterProccing , 7) ;
 8003062:	4b2a      	ldr	r3, [pc, #168]	; (800310c <APP_voidForward_LeftTasks+0x1cc>)
 8003064:	881b      	ldrh	r3, [r3, #0]
 8003066:	f043 0380 	orr.w	r3, r3, #128	; 0x80
 800306a:	b29a      	uxth	r2, r3
 800306c:	4b27      	ldr	r3, [pc, #156]	; (800310c <APP_voidForward_LeftTasks+0x1cc>)
 800306e:	801a      	strh	r2, [r3, #0]
					G_u8DataAfterProccing = ((G_u8DataAfterProccing & (0xFFF0)) | G_xMy_Data.Direction) ;
 8003070:	4b26      	ldr	r3, [pc, #152]	; (800310c <APP_voidForward_LeftTasks+0x1cc>)
 8003072:	881b      	ldrh	r3, [r3, #0]
 8003074:	b21b      	sxth	r3, r3
 8003076:	f023 030f 	bic.w	r3, r3, #15
 800307a:	b21a      	sxth	r2, r3
 800307c:	4b25      	ldr	r3, [pc, #148]	; (8003114 <APP_voidForward_LeftTasks+0x1d4>)
 800307e:	781b      	ldrb	r3, [r3, #0]
 8003080:	f3c3 0303 	ubfx	r3, r3, #0, #4
 8003084:	b2db      	uxtb	r3, r3
 8003086:	b21b      	sxth	r3, r3
 8003088:	4313      	orrs	r3, r2
 800308a:	b21b      	sxth	r3, r3
 800308c:	b29a      	uxth	r2, r3
 800308e:	4b1f      	ldr	r3, [pc, #124]	; (800310c <APP_voidForward_LeftTasks+0x1cc>)
 8003090:	801a      	strh	r2, [r3, #0]
					G_u8DataAfterProccing = ((G_u8DataAfterProccing & (0xFF8F)) | (G_u8_LimetedSpeed << 4)) ;
 8003092:	4b1e      	ldr	r3, [pc, #120]	; (800310c <APP_voidForward_LeftTasks+0x1cc>)
 8003094:	881b      	ldrh	r3, [r3, #0]
 8003096:	b21b      	sxth	r3, r3
 8003098:	f023 0370 	bic.w	r3, r3, #112	; 0x70
 800309c:	b21a      	sxth	r2, r3
 800309e:	4b1e      	ldr	r3, [pc, #120]	; (8003118 <APP_voidForward_LeftTasks+0x1d8>)
 80030a0:	781b      	ldrb	r3, [r3, #0]
 80030a2:	011b      	lsls	r3, r3, #4
 80030a4:	b21b      	sxth	r3, r3
 80030a6:	4313      	orrs	r3, r2
 80030a8:	b21b      	sxth	r3, r3
 80030aa:	b29a      	uxth	r2, r3
 80030ac:	4b17      	ldr	r3, [pc, #92]	; (800310c <APP_voidForward_LeftTasks+0x1cc>)
 80030ae:	801a      	strh	r2, [r3, #0]
}
 80030b0:	e025      	b.n	80030fe <APP_voidForward_LeftTasks+0x1be>
			CLR_BIT(G_u8DataAfterProccing , 6) ;
 80030b2:	4b16      	ldr	r3, [pc, #88]	; (800310c <APP_voidForward_LeftTasks+0x1cc>)
 80030b4:	881b      	ldrh	r3, [r3, #0]
 80030b6:	f023 0340 	bic.w	r3, r3, #64	; 0x40
 80030ba:	b29a      	uxth	r2, r3
 80030bc:	4b13      	ldr	r3, [pc, #76]	; (800310c <APP_voidForward_LeftTasks+0x1cc>)
 80030be:	801a      	strh	r2, [r3, #0]
			CLR_BIT(G_u8DataAfterProccing , 7) ;
 80030c0:	4b12      	ldr	r3, [pc, #72]	; (800310c <APP_voidForward_LeftTasks+0x1cc>)
 80030c2:	881b      	ldrh	r3, [r3, #0]
 80030c4:	f023 0380 	bic.w	r3, r3, #128	; 0x80
 80030c8:	b29a      	uxth	r2, r3
 80030ca:	4b10      	ldr	r3, [pc, #64]	; (800310c <APP_voidForward_LeftTasks+0x1cc>)
 80030cc:	801a      	strh	r2, [r3, #0]
			G_u8DataAfterProccing = ((G_u8DataAfterProccing & (0xFFF0)) | G_xMy_Data.Direction) ;
 80030ce:	4b0f      	ldr	r3, [pc, #60]	; (800310c <APP_voidForward_LeftTasks+0x1cc>)
 80030d0:	881b      	ldrh	r3, [r3, #0]
 80030d2:	b21b      	sxth	r3, r3
 80030d4:	f023 030f 	bic.w	r3, r3, #15
 80030d8:	b21a      	sxth	r2, r3
 80030da:	4b0e      	ldr	r3, [pc, #56]	; (8003114 <APP_voidForward_LeftTasks+0x1d4>)
 80030dc:	781b      	ldrb	r3, [r3, #0]
 80030de:	f3c3 0303 	ubfx	r3, r3, #0, #4
 80030e2:	b2db      	uxtb	r3, r3
 80030e4:	b21b      	sxth	r3, r3
 80030e6:	4313      	orrs	r3, r2
 80030e8:	b21b      	sxth	r3, r3
 80030ea:	b29a      	uxth	r2, r3
 80030ec:	4b07      	ldr	r3, [pc, #28]	; (800310c <APP_voidForward_LeftTasks+0x1cc>)
 80030ee:	801a      	strh	r2, [r3, #0]
				G_u8DataAfterProccing = ((G_u8DataAfterProccing & (0xFF8F)) | (max_speed << 4)) ;
 80030f0:	4b06      	ldr	r3, [pc, #24]	; (800310c <APP_voidForward_LeftTasks+0x1cc>)
 80030f2:	881b      	ldrh	r3, [r3, #0]
 80030f4:	f043 0370 	orr.w	r3, r3, #112	; 0x70
 80030f8:	b29a      	uxth	r2, r3
 80030fa:	4b04      	ldr	r3, [pc, #16]	; (800310c <APP_voidForward_LeftTasks+0x1cc>)
 80030fc:	801a      	strh	r2, [r3, #0]
}
 80030fe:	bf00      	nop
 8003100:	bd80      	pop	{r7, pc}
 8003102:	bf00      	nop
 8003104:	200000fc 	.word	0x200000fc
 8003108:	40240000 	.word	0x40240000
 800310c:	20000100 	.word	0x20000100
 8003110:	40340000 	.word	0x40340000
 8003114:	200000f8 	.word	0x200000f8
 8003118:	200000ca 	.word	0x200000ca

0800311c <APP_GET_UART_Command>:


}

void APP_GET_UART_Command()
{
 800311c:	b580      	push	{r7, lr}
 800311e:	af00      	add	r7, sp, #0
	APP_G_u8DataFromUART = MUART_u8ReadDataRegister(UART1);
 8003120:	4804      	ldr	r0, [pc, #16]	; (8003134 <APP_GET_UART_Command+0x18>)
 8003122:	f7fe ff1d 	bl	8001f60 <MUART_u8ReadDataRegister>
 8003126:	4603      	mov	r3, r0
 8003128:	461a      	mov	r2, r3
 800312a:	4b03      	ldr	r3, [pc, #12]	; (8003138 <APP_GET_UART_Command+0x1c>)
 800312c:	701a      	strb	r2, [r3, #0]
}
 800312e:	bf00      	nop
 8003130:	bd80      	pop	{r7, pc}
 8003132:	bf00      	nop
 8003134:	40013800 	.word	0x40013800
 8003138:	200001d8 	.word	0x200001d8

0800313c <NMI_Handler>:
/******************************************************************************/
/**
  * @brief This function handles Non maskable interrupt.
  */
void NMI_Handler(void)
{
 800313c:	b480      	push	{r7}
 800313e:	af00      	add	r7, sp, #0

  /* USER CODE END NonMaskableInt_IRQn 0 */
  /* USER CODE BEGIN NonMaskableInt_IRQn 1 */

  /* USER CODE END NonMaskableInt_IRQn 1 */
}
 8003140:	bf00      	nop
 8003142:	46bd      	mov	sp, r7
 8003144:	bc80      	pop	{r7}
 8003146:	4770      	bx	lr

08003148 <HardFault_Handler>:

/**
  * @brief This function handles Hard fault interrupt.
  */
void HardFault_Handler(void)
{
 8003148:	b480      	push	{r7}
 800314a:	af00      	add	r7, sp, #0
  /* USER CODE BEGIN HardFault_IRQn 0 */

  /* USER CODE END HardFault_IRQn 0 */
  while (1)
 800314c:	e7fe      	b.n	800314c <HardFault_Handler+0x4>

0800314e <MemManage_Handler>:

/**
  * @brief This function handles Memory management fault.
  */
void MemManage_Handler(void)
{
 800314e:	b480      	push	{r7}
 8003150:	af00      	add	r7, sp, #0
  /* USER CODE BEGIN MemoryManagement_IRQn 0 */

  /* USER CODE END MemoryManagement_IRQn 0 */
  while (1)
 8003152:	e7fe      	b.n	8003152 <MemManage_Handler+0x4>

08003154 <BusFault_Handler>:

/**
  * @brief This function handles Prefetch fault, memory access fault.
  */
void BusFault_Handler(void)
{
 8003154:	b480      	push	{r7}
 8003156:	af00      	add	r7, sp, #0
  /* USER CODE BEGIN BusFault_IRQn 0 */

  /* USER CODE END BusFault_IRQn 0 */
  while (1)
 8003158:	e7fe      	b.n	8003158 <BusFault_Handler+0x4>

0800315a <UsageFault_Handler>:

/**
  * @brief This function handles Undefined instruction or illegal state.
  */
void UsageFault_Handler(void)
{
 800315a:	b480      	push	{r7}
 800315c:	af00      	add	r7, sp, #0
  /* USER CODE BEGIN UsageFault_IRQn 0 */

  /* USER CODE END UsageFault_IRQn 0 */
  while (1)
 800315e:	e7fe      	b.n	800315e <UsageFault_Handler+0x4>

08003160 <SVC_Handler>:

/**
  * @brief This function handles System service call via SWI instruction.
  */
void SVC_Handler(void)
{
 8003160:	b480      	push	{r7}
 8003162:	af00      	add	r7, sp, #0

  /* USER CODE END SVCall_IRQn 0 */
  /* USER CODE BEGIN SVCall_IRQn 1 */

  /* USER CODE END SVCall_IRQn 1 */
}
 8003164:	bf00      	nop
 8003166:	46bd      	mov	sp, r7
 8003168:	bc80      	pop	{r7}
 800316a:	4770      	bx	lr

0800316c <DebugMon_Handler>:

/**
  * @brief This function handles Debug monitor.
  */
void DebugMon_Handler(void)
{
 800316c:	b480      	push	{r7}
 800316e:	af00      	add	r7, sp, #0

  /* USER CODE END DebugMonitor_IRQn 0 */
  /* USER CODE BEGIN DebugMonitor_IRQn 1 */

  /* USER CODE END DebugMonitor_IRQn 1 */
}
 8003170:	bf00      	nop
 8003172:	46bd      	mov	sp, r7
 8003174:	bc80      	pop	{r7}
 8003176:	4770      	bx	lr

08003178 <PendSV_Handler>:

/**
  * @brief This function handles Pendable request for system service.
  */
void PendSV_Handler(void)
{
 8003178:	b480      	push	{r7}
 800317a:	af00      	add	r7, sp, #0

  /* USER CODE END PendSV_IRQn 0 */
  /* USER CODE BEGIN PendSV_IRQn 1 */

  /* USER CODE END PendSV_IRQn 1 */
}
 800317c:	bf00      	nop
 800317e:	46bd      	mov	sp, r7
 8003180:	bc80      	pop	{r7}
 8003182:	4770      	bx	lr

08003184 <SystemInit>:
  * @note   This function should be used only after reset.
  * @param  None
  * @retval None
  */
void SystemInit (void)
{
 8003184:	b480      	push	{r7}
 8003186:	af00      	add	r7, sp, #0

  /* Configure the Vector Table location -------------------------------------*/
#if defined(USER_VECT_TAB_ADDRESS)
  SCB->VTOR = VECT_TAB_BASE_ADDRESS | VECT_TAB_OFFSET; /* Vector Table Relocation in Internal SRAM. */
#endif /* USER_VECT_TAB_ADDRESS */
}
 8003188:	bf00      	nop
 800318a:	46bd      	mov	sp, r7
 800318c:	bc80      	pop	{r7}
 800318e:	4770      	bx	lr

08003190 <Reset_Handler>:
  .weak Reset_Handler
  .type Reset_Handler, %function
Reset_Handler:

/* Copy the data segment initializers from flash to SRAM */
  ldr r0, =_sdata
 8003190:	480c      	ldr	r0, [pc, #48]	; (80031c4 <LoopFillZerobss+0x12>)
  ldr r1, =_edata
 8003192:	490d      	ldr	r1, [pc, #52]	; (80031c8 <LoopFillZerobss+0x16>)
  ldr r2, =_sidata
 8003194:	4a0d      	ldr	r2, [pc, #52]	; (80031cc <LoopFillZerobss+0x1a>)
  movs r3, #0
 8003196:	2300      	movs	r3, #0
  b LoopCopyDataInit
 8003198:	e002      	b.n	80031a0 <LoopCopyDataInit>

0800319a <CopyDataInit>:

CopyDataInit:
  ldr r4, [r2, r3]
 800319a:	58d4      	ldr	r4, [r2, r3]
  str r4, [r0, r3]
 800319c:	50c4      	str	r4, [r0, r3]
  adds r3, r3, #4
 800319e:	3304      	adds	r3, #4

080031a0 <LoopCopyDataInit>:

LoopCopyDataInit:
  adds r4, r0, r3
 80031a0:	18c4      	adds	r4, r0, r3
  cmp r4, r1
 80031a2:	428c      	cmp	r4, r1
  bcc CopyDataInit
 80031a4:	d3f9      	bcc.n	800319a <CopyDataInit>
  
/* Zero fill the bss segment. */
  ldr r2, =_sbss
 80031a6:	4a0a      	ldr	r2, [pc, #40]	; (80031d0 <LoopFillZerobss+0x1e>)
  ldr r4, =_ebss
 80031a8:	4c0a      	ldr	r4, [pc, #40]	; (80031d4 <LoopFillZerobss+0x22>)
  movs r3, #0
 80031aa:	2300      	movs	r3, #0
  b LoopFillZerobss
 80031ac:	e001      	b.n	80031b2 <LoopFillZerobss>

080031ae <FillZerobss>:

FillZerobss:
  str  r3, [r2]
 80031ae:	6013      	str	r3, [r2, #0]
  adds r2, r2, #4
 80031b0:	3204      	adds	r2, #4

080031b2 <LoopFillZerobss>:

LoopFillZerobss:
  cmp r2, r4
 80031b2:	42a2      	cmp	r2, r4
  bcc FillZerobss
 80031b4:	d3fb      	bcc.n	80031ae <FillZerobss>

/* Call the clock system intitialization function.*/
    bl  SystemInit
 80031b6:	f7ff ffe5 	bl	8003184 <SystemInit>
/* Call static constructors */
    bl __libc_init_array
 80031ba:	f000 f80f 	bl	80031dc <__libc_init_array>
/* Call the application's entry point.*/
  bl main
 80031be:	f7ff f93b 	bl	8002438 <main>
  bx lr
 80031c2:	4770      	bx	lr
  ldr r0, =_sdata
 80031c4:	20000000 	.word	0x20000000
  ldr r1, =_edata
 80031c8:	200000cc 	.word	0x200000cc
  ldr r2, =_sidata
 80031cc:	08003244 	.word	0x08003244
  ldr r2, =_sbss
 80031d0:	200000cc 	.word	0x200000cc
  ldr r4, =_ebss
 80031d4:	200001dc 	.word	0x200001dc

080031d8 <ADC1_2_IRQHandler>:
 * @retval : None
*/
    .section .text.Default_Handler,"ax",%progbits
Default_Handler:
Infinite_Loop:
  b Infinite_Loop
 80031d8:	e7fe      	b.n	80031d8 <ADC1_2_IRQHandler>
	...

080031dc <__libc_init_array>:
 80031dc:	b570      	push	{r4, r5, r6, lr}
 80031de:	2500      	movs	r5, #0
 80031e0:	4e0c      	ldr	r6, [pc, #48]	; (8003214 <__libc_init_array+0x38>)
 80031e2:	4c0d      	ldr	r4, [pc, #52]	; (8003218 <__libc_init_array+0x3c>)
 80031e4:	1ba4      	subs	r4, r4, r6
 80031e6:	10a4      	asrs	r4, r4, #2
 80031e8:	42a5      	cmp	r5, r4
 80031ea:	d109      	bne.n	8003200 <__libc_init_array+0x24>
 80031ec:	f000 f81a 	bl	8003224 <_init>
 80031f0:	2500      	movs	r5, #0
 80031f2:	4e0a      	ldr	r6, [pc, #40]	; (800321c <__libc_init_array+0x40>)
 80031f4:	4c0a      	ldr	r4, [pc, #40]	; (8003220 <__libc_init_array+0x44>)
 80031f6:	1ba4      	subs	r4, r4, r6
 80031f8:	10a4      	asrs	r4, r4, #2
 80031fa:	42a5      	cmp	r5, r4
 80031fc:	d105      	bne.n	800320a <__libc_init_array+0x2e>
 80031fe:	bd70      	pop	{r4, r5, r6, pc}
 8003200:	f856 3025 	ldr.w	r3, [r6, r5, lsl #2]
 8003204:	4798      	blx	r3
 8003206:	3501      	adds	r5, #1
 8003208:	e7ee      	b.n	80031e8 <__libc_init_array+0xc>
 800320a:	f856 3025 	ldr.w	r3, [r6, r5, lsl #2]
 800320e:	4798      	blx	r3
 8003210:	3501      	adds	r5, #1
 8003212:	e7f2      	b.n	80031fa <__libc_init_array+0x1e>
 8003214:	0800323c 	.word	0x0800323c
 8003218:	0800323c 	.word	0x0800323c
 800321c:	0800323c 	.word	0x0800323c
 8003220:	08003240 	.word	0x08003240

08003224 <_init>:
 8003224:	b5f8      	push	{r3, r4, r5, r6, r7, lr}
 8003226:	bf00      	nop
 8003228:	bcf8      	pop	{r3, r4, r5, r6, r7}
 800322a:	bc08      	pop	{r3}
 800322c:	469e      	mov	lr, r3
 800322e:	4770      	bx	lr

08003230 <_fini>:
 8003230:	b5f8      	push	{r3, r4, r5, r6, r7, lr}
 8003232:	bf00      	nop
 8003234:	bcf8      	pop	{r3, r4, r5, r6, r7}
 8003236:	bc08      	pop	{r3}
 8003238:	469e      	mov	lr, r3
 800323a:	4770      	bx	lr
